 enginegui

 Timestamp is 5fedaae5 (Thu Dec 31 12:41:41 2020)

 Preferred load address is 0000000180000000

 Start         Length     Name                   Class
 0001:00000000 000a7dc0H .text$mn                CODE
 0001:000a7dc0 00000040H .text$mn$00             CODE
 0001:000a7e00 00000f9dH .text$x                 CODE
 0002:00000000 000002e0H .idata$5                DATA
 0002:000002e0 00000028H .00cfg                  DATA
 0002:00000308 00000008H .CRT$XCA                DATA
 0002:00000310 00000008H .CRT$XCZ                DATA
 0002:00000318 00000008H .CRT$XIA                DATA
 0002:00000320 00000018H .CRT$XIC                DATA
 0002:00000338 00000008H .CRT$XIZ                DATA
 0002:00000340 00000008H .CRT$XPA                DATA
 0002:00000348 00000010H .CRT$XPX                DATA
 0002:00000358 00000008H .CRT$XPXA               DATA
 0002:00000360 00000008H .CRT$XPZ                DATA
 0002:00000368 00000008H .CRT$XTA                DATA
 0002:00000370 00000010H .CRT$XTZ                DATA
 0002:00000378 00000000H .gehcont$y              DATA
 0002:00000378 00000000H .gfids$y                DATA
 0002:00000380 000200d0H .rdata                  DATA
 0002:00020450 00000464H .rdata$r                DATA
 0002:000208b4 0000033cH .rdata$zzzdbg           DATA
 0002:00020bf0 00000008H .rtc$IAA                DATA
 0002:00020bf8 00000008H .rtc$IZZ                DATA
 0002:00020c00 00000008H .rtc$TAA                DATA
 0002:00020c08 00000008H .rtc$TZZ                DATA
 0002:00020c10 00006ab8H .xdata                  DATA
 0002:000276c8 00000088H .xdata$x                DATA
 0002:00027750 00000044H .edata                  DATA
 0002:00027794 00000014H .idata$2                DATA
 0002:000277a8 00000018H .idata$3                DATA
 0002:000277c0 000002e0H .idata$4                DATA
 0002:00027aa0 000006aaH .idata$6                DATA
 0003:00000000 00000ad0H .data                   DATA
 0003:00000ad0 00000170H .data$r                 DATA
 0003:00000c40 00001aecH .bss                    DATA
 0004:00000000 000082c8H .pdata                  DATA
 0005:00000000 00000004H .msvcjmc                DATA
 0006:00000000 00000094H _RDATA                  DATA
 0007:00000000 00000060H .rsrc$01                DATA
 0007:00000060 00000180H .rsrc$02                DATA

  Address         Publics by Value              Rva+Base               Lib:Object

 0000:00000000       __arm64x_native_entrypoint 0000000000000000     <absolute>
 0000:00000000       __hybrid_auxiliary_iat     0000000000000000     <absolute>
 0000:00000000       __x64_code_ranges_to_entry_points 0000000000000000     <absolute>
 0000:00000000       __arm64x_redirection_metadata_count 0000000000000000     <absolute>
 0000:00000000       __arm64x_redirection_metadata 0000000000000000     <absolute>
 0000:00000000       __x64_code_ranges_to_entry_points_count 0000000000000000     <absolute>
 0000:00000000       ___safe_se_handler_table   0000000000000000     <absolute>
 0000:00000000       __volatile_metadata        0000000000000000     <absolute>
 0000:00000000       __guard_eh_cont_count      0000000000000000     <absolute>
 0000:00000000       __hybrid_code_map_count    0000000000000000     <absolute>
 0000:00000000       __guard_longjmp_count      0000000000000000     <absolute>
 0000:00000000       __arm64x_extra_rfe_table   0000000000000000     <absolute>
 0000:00000000       __enclave_config           0000000000000000     <absolute>
 0000:00000000       __arm64x_extra_rfe_table_size 0000000000000000     <absolute>
 0000:00000000       ___safe_se_handler_count   0000000000000000     <absolute>
 0000:00000000       __guard_iat_count          0000000000000000     <absolute>
 0000:00000000       __dynamic_value_reloc_table 0000000000000000     <absolute>
 0000:00000000       __guard_eh_cont_table      0000000000000000     <absolute>
 0000:00000000       __guard_fids_count         0000000000000000     <absolute>
 0000:00000000       __hybrid_code_map          0000000000000000     <absolute>
 0000:00000000       __guard_iat_table          0000000000000000     <absolute>
 0000:00000000       __AbsoluteZero             0000000000000000     <absolute>
 0000:00000000       __guard_fids_table         0000000000000000     <absolute>
 0000:00000000       __guard_longjmp_table      0000000000000000     <absolute>
 0000:00000100       __guard_flags              0000000000000100     <absolute>
 0000:00000000       __ImageBase                0000000180000000     <linker-defined>
 0001:00000000       Foo                        0000000180001000 f   gui.obj
 0001:00000030       __JustMyCode_Default       0000000180001030 f i gui.obj
 0001:00000040       __local_stdio_printf_options 0000000180001040 f i gui.obj
 0001:00000060       printf                     0000000180001060 f i gui.obj
 0001:000000f0       __CheckForDebuggerJustMyCode 00000001800010f0 f   LIBCMTD:debugger_jmc.obj
 0001:00000540       _CRT_INIT                  0000000180001540 f   LIBCMTD:dll_dllmain.obj
 0001:00000570       _DllMainCRTStartup         0000000180001570 f   LIBCMTD:dll_dllmain.obj
 0001:00000670       __security_init_cookie     0000000180001670 f   LIBCMTD:gs_support.obj
 0001:000006f0       DllMain                    00000001800016f0 f   LIBCMTD:dll_dllmain_stub.obj
 0001:00000710       ?__scrt_initialize_type_info@@YAXXZ 0000000180001710 f   LIBCMTD:tncleanup.obj
 0001:00000730       ?__scrt_uninitialize_type_info@@YAXXZ 0000000180001730 f   LIBCMTD:tncleanup.obj
 0001:00000750       __local_stdio_scanf_options 0000000180001750 f i LIBCMTD:default_local_stdio_options.obj
 0001:00000760       __scrt_initialize_default_local_stdio_options 0000000180001760 f   LIBCMTD:default_local_stdio_options.obj
 0001:000007b0       ?configure_argv@__scrt_narrow_argv_policy@@SAHXZ 00000001800017b0 f i LIBCMTD:utility.obj
 0001:000008a0       ?initialize_environment@__scrt_narrow_environment_policy@@SAHXZ 00000001800018a0 f i LIBCMTD:utility.obj
 0001:00000940       NtCurrentTeb               0000000180001940 f i LIBCMTD:utility.obj
 0001:00000950       __scrt_acquire_startup_lock 0000000180001950 f   LIBCMTD:utility.obj
 0001:000009c0       __scrt_dllmain_after_initialize_c 00000001800019c0 f   LIBCMTD:utility.obj
 0001:000009f0       __scrt_dllmain_before_initialize_c 00000001800019f0 f   LIBCMTD:utility.obj
 0001:00000a10       __scrt_dllmain_crt_thread_attach 0000000180001a10 f   LIBCMTD:utility.obj
 0001:00000a40       __scrt_dllmain_crt_thread_detach 0000000180001a40 f   LIBCMTD:utility.obj
 0001:00000a60       __scrt_dllmain_exception_filter 0000000180001a60 f   LIBCMTD:utility.obj
 0001:00000ad0       __scrt_dllmain_uninitialize_c 0000000180001ad0 f   LIBCMTD:utility.obj
 0001:00000b00       __scrt_dllmain_uninitialize_critical 0000000180001b00 f   LIBCMTD:utility.obj
 0001:00000b20       __scrt_initialize_crt      0000000180001b20 f   LIBCMTD:utility.obj
 0001:00000b70       __scrt_initialize_onexit_tables 0000000180001b70 f   LIBCMTD:utility.obj
 0001:00000c80       __scrt_is_nonwritable_in_current_image 0000000180001c80 f   LIBCMTD:utility.obj
 0001:00000d10       __scrt_release_startup_lock 0000000180001d10 f   LIBCMTD:utility.obj
 0001:00000d40       __scrt_uninitialize_crt    0000000180001d40 f   LIBCMTD:utility.obj
 0001:00000d80       _onexit                    0000000180001d80 f   LIBCMTD:utility.obj
 0001:00000e00       at_quick_exit              0000000180001e00 f   LIBCMTD:utility.obj
 0001:00000e50       atexit                     0000000180001e50 f   LIBCMTD:utility.obj
 0001:00000e90       __scrt_get_dyn_tls_init_callback 0000000180001e90 f   LIBCMTD:dyn_tls_init.obj
 0001:00000ea0       __crt_debugger_hook        0000000180001ea0 f   LIBCMTD:utility_desktop.obj
 0001:00000eb0       __scrt_fastfail            0000000180001eb0 f   LIBCMTD:utility_desktop.obj
 0001:00001050       __scrt_get_show_window_mode 0000000180002050 f   LIBCMTD:utility_desktop.obj
 0001:000010b0       __scrt_initialize_mta      00000001800020b0 f   LIBCMTD:utility_desktop.obj
 0001:000010c0       __scrt_initialize_winrt    00000001800020c0 f   LIBCMTD:utility_desktop.obj
 0001:000010d0       __scrt_is_managed_app      00000001800020d0 f   LIBCMTD:utility_desktop.obj
 0001:00001180       __scrt_set_unhandled_exception_filter 0000000180002180 f   LIBCMTD:utility_desktop.obj
 0001:000011a0       __scrt_exe_initialize_mta  00000001800021a0 f   LIBCMTD:utility_desktop.obj
 0001:000011a0       __scrt_stub_for_initialize_mta 00000001800021a0 f   LIBCMTD:utility_desktop.obj
 0001:000011b0       __scrt_unhandled_exception_filter 00000001800021b0 f   LIBCMTD:utility_desktop.obj
 0001:00001250       _RTC_Initialize            0000000180002250 f   LIBCMTD:initsect.obj
 0001:000012a0       _RTC_Terminate             00000001800022a0 f   LIBCMTD:initsect.obj
 0001:000012f0       _guard_check_icall_nop     00000001800022f0 f i LIBCMTD:guard_support.obj
 0001:00001300       ReadNoFence64              0000000180002300 f i LIBCMTD:guard_support.obj
 0001:00001320       ReadPointerNoFence         0000000180002320 f i LIBCMTD:guard_support.obj
 0001:00001340       _guard_icall_checks_enforced 0000000180002340 f i LIBCMTD:guard_support.obj
 0001:00001380       _guard_rf_checks_enforced  0000000180002380 f i LIBCMTD:guard_support.obj
 0001:00001390       __isa_available_init       0000000180002390 f   LIBCMTD:cpu_disp.obj
 0001:00001730       _get_startup_argv_mode     0000000180002730 f   LIBCMTD:argv_mode.obj
 0001:00001740       __scrt_is_ucrt_dll_in_use  0000000180002740 f   LIBCMTD:ucrt_detection.obj
 0001:00001770       __GSHandlerCheck           0000000180002770 f   LIBCMTD:gshandler.obj
 0001:000017b0       __GSHandlerCheckCommon     00000001800027b0 f   LIBCMTD:gshandler.obj
 0001:000018c0       __security_check_cookie    00000001800028c0 f   LIBCMTD:amdsecgs.obj
 0001:000018f0       __raise_securityfailure    00000001800028f0 f   LIBCMTD:gs_report.obj
 0001:00001930       __report_gsfailure         0000000180002930 f   LIBCMTD:gs_report.obj
 0001:00001a10       __report_rangecheckfailure 0000000180002a10 f   LIBCMTD:gs_report.obj
 0001:00001a30       __report_securityfailure   0000000180002a30 f   LIBCMTD:gs_report.obj
 0001:00001ad0       __report_securityfailureEx 0000000180002ad0 f   LIBCMTD:gs_report.obj
 0001:00001d40       __C_specific_handler       0000000180002d40 f   libvcruntimed:riscchandler.obj
 0001:000021f0       ??$?RD@__crt_internal_free_policy@@QEBAXQEBD@Z 00000001800031f0 f i libvcruntimed:std_type_info.obj
 0001:00002220       ??$?RX@__crt_internal_free_policy@@QEBAXQEBX@Z 0000000180003220 f i libvcruntimed:std_type_info.obj
 0001:00002250       ??$__crt_interlocked_compare_exchange_pointer@$$CBDPEAD$$T@@YAPEBDPEDSEBDQEAD$$T@Z 0000000180003250 f i libvcruntimed:std_type_info.obj
 0001:00002290       ??$__crt_interlocked_read_pointer@$$CBD@@YAPEBDPEDSEBD@Z 0000000180003290 f i libvcruntimed:std_type_info.obj
 0001:000022b0       ??0?$__crt_unique_heap_ptr@DU__crt_internal_free_policy@@@@QEAA@QEAD@Z 00000001800032b0 f i libvcruntimed:std_type_info.obj
 0001:000022d0       ??0?$__crt_unique_heap_ptr@XU__crt_internal_free_policy@@@@QEAA@QEAX@Z 00000001800032d0 f i libvcruntimed:std_type_info.obj
 0001:000022f0       ??1?$__crt_unique_heap_ptr@DU__crt_internal_free_policy@@@@QEAA@XZ 00000001800032f0 f i libvcruntimed:std_type_info.obj
 0001:00002310       ??1?$__crt_unique_heap_ptr@XU__crt_internal_free_policy@@@@QEAA@XZ 0000000180003310 f i libvcruntimed:std_type_info.obj
 0001:00002330       ??B?$__crt_unique_heap_ptr@DU__crt_internal_free_policy@@@@QEBA_NXZ 0000000180003330 f i libvcruntimed:std_type_info.obj
 0001:00002350       ??B?$__crt_unique_heap_ptr@XU__crt_internal_free_policy@@@@QEBA_NXZ 0000000180003350 f i libvcruntimed:std_type_info.obj
 0001:000023f0       ?__crt_interlocked_read_64@@YA_JPED_J@Z 00000001800033f0 f i libvcruntimed:std_type_info.obj
 0001:00002410       ?detach@?$__crt_unique_heap_ptr@XU__crt_internal_free_policy@@@@QEAAPEAXXZ 0000000180003410 f i libvcruntimed:std_type_info.obj
 0001:00002440       ?get@?$__crt_unique_heap_ptr@DU__crt_internal_free_policy@@@@QEBAPEADXZ 0000000180003440 f i libvcruntimed:std_type_info.obj
 0001:00002450       ?get@?$__crt_unique_heap_ptr@XU__crt_internal_free_policy@@@@QEBAPEAXXZ 0000000180003450 f i libvcruntimed:std_type_info.obj
 0001:00002460       ?is_valid@?$__crt_unique_heap_ptr@DU__crt_internal_free_policy@@@@QEBA_NXZ 0000000180003460 f i libvcruntimed:std_type_info.obj
 0001:00002490       ?is_valid@?$__crt_unique_heap_ptr@XU__crt_internal_free_policy@@@@QEBA_NXZ 0000000180003490 f i libvcruntimed:std_type_info.obj
 0001:000024c0       ?release@?$__crt_unique_heap_ptr@DU__crt_internal_free_policy@@@@QEAAXXZ 00000001800034c0 f i libvcruntimed:std_type_info.obj
 0001:000024f0       ?release@?$__crt_unique_heap_ptr@XU__crt_internal_free_policy@@@@QEAAXXZ 00000001800034f0 f i libvcruntimed:std_type_info.obj
 0001:00002520       __std_type_info_compare    0000000180003520 f   libvcruntimed:std_type_info.obj
 0001:00002560       __std_type_info_destroy_list 0000000180003560 f   libvcruntimed:std_type_info.obj
 0001:000025c0       __std_type_info_hash       00000001800035c0 f   libvcruntimed:std_type_info.obj
 0001:00002670       __std_type_info_name       0000000180003670 f   libvcruntimed:std_type_info.obj
 0001:00002920       __vcrt_initialize          0000000180003920 f   libvcruntimed:initialization.obj
 0001:00002960       __vcrt_thread_attach       0000000180003960 f   libvcruntimed:initialization.obj
 0001:00002980       __vcrt_thread_detach       0000000180003980 f   libvcruntimed:initialization.obj
 0001:000029a0       __vcrt_uninitialize        00000001800039a0 f   libvcruntimed:initialization.obj
 0001:000029c0       __vcrt_uninitialize_critical 00000001800039c0 f   libvcruntimed:initialization.obj
 0001:000029e0       __DestructExceptionObject  00000001800039e0 f   libvcruntimed:ehhelpers.obj
 0001:00002ae0       ?_CallMemberFunction0@@YAXQEAX0@Z 0000000180003ae0 f i libvcruntimed:ehhelpers.obj
 0001:00002bb0       ?raw_name@type_info@@QEBAPEBDXZ 0000000180003bb0 f i libvcruntimed:ehhelpers.obj
 0001:00002bc0       _IsExceptionObjectToBeDestroyed 0000000180003bc0 f   libvcruntimed:ehhelpers.obj
 0001:00002c10       _SetWinRTOutOfMemoryExceptionCallback 0000000180003c10 f   libvcruntimed:ehhelpers.obj
 0001:00002c30       __AdjustPointer            0000000180003c30 f   libvcruntimed:ehhelpers.obj
 0001:00002cb0       __FrameUnwindFilter        0000000180003cb0 f   libvcruntimed:ehhelpers.obj
 0001:00002d60       __GetPlatformExceptionInfo 0000000180003d60 f   libvcruntimed:ehhelpers.obj
 0001:00002e10       __current_exception        0000000180003e10 f   libvcruntimed:ehhelpers.obj
 0001:00002e30       __current_exception_context 0000000180003e30 f   libvcruntimed:ehhelpers.obj
 0001:00002e50       __processing_throw         0000000180003e50 f   libvcruntimed:ehhelpers.obj
 0001:00002e70       __std_terminate            0000000180003e70 f   libvcruntimed:ehhelpers.obj
 0001:00002e80       _is_exception_typeof       0000000180003e80 f   libvcruntimed:ehhelpers.obj
 0001:00002fe0       _NLG_Notify                0000000180003fe0 f   libvcruntimed:notify.obj
 0001:00003000       __NLG_Dispatch2            0000000180004000 f   libvcruntimed:notify.obj
 0001:00003010       __NLG_Return2              0000000180004010 f   libvcruntimed:notify.obj
 0001:00003030       __except_validate_context_record 0000000180004030 f   libvcruntimed:jbcxrval.obj
 0001:00003090       __except_validate_jump_buffer 0000000180004090 f   libvcruntimed:jbcxrval.obj
 0001:000030b0       __except_validate_jump_buffer_common 00000001800040b0 f i libvcruntimed:jbcxrval.obj
 0001:00003130       ??$?0$00@DName@@QEAA@PEBDU?$StringLifeSelector@$00@@@Z 0000000180004130 f i libvcruntimed:undname.obj
 0001:000031a0       ??$?0$00@pcharNode@@QEAA@PEBDHU?$StringLifeSelector@$00@@@Z 00000001800041a0 f i libvcruntimed:undname.obj
 0001:00003200       ??$?0$01@DName@@QEAA@PEBDU?$StringLifeSelector@$01@@@Z 0000000180004200 f i libvcruntimed:undname.obj
 0001:00003270       ??$?0$01@pcharNode@@QEAA@PEBDHU?$StringLifeSelector@$01@@@Z 0000000180004270 f i libvcruntimed:undname.obj
 0001:00003320       ??$?0$0A@@DName@@QEAA@PEBDU?$StringLifeSelector@$0A@@@@Z 0000000180004320 f i libvcruntimed:undname.obj
 0001:00003390       ??$?0$0A@@pcharNode@@QEAA@PEBDHU?$StringLifeSelector@$0A@@@@Z 0000000180004390 f i libvcruntimed:undname.obj
 0001:00003440       ??$?0_K$0A@@?$optional@_K@std@@QEAA@$$QEA_K@Z 0000000180004440 f i libvcruntimed:undname.obj
 0001:00003490       ??$?0_K@?$_Optional_construct_base@_K@std@@QEAA@Uin_place_t@1@$$QEA_K@Z 0000000180004490 f i libvcruntimed:undname.obj
 0001:000034c0       ??$?0_K@?$_Optional_destruct_base@_K$00@std@@QEAA@Uin_place_t@1@$$QEA_K@Z 00000001800044c0 f i libvcruntimed:undname.obj
 0001:00003500       ??$append@VDNameNode@@@DName@@AEAAXPEBVDNameNode@@@Z 0000000180004500 f i libvcruntimed:undname.obj
 0001:000035b0       ??$append@VDNameStatusNode@@@DName@@AEAAXPEBVDNameStatusNode@@@Z 00000001800045b0 f i libvcruntimed:undname.obj
 0001:00003660       ??$append@VcharNode@@@DName@@AEAAXPEBVcharNode@@@Z 0000000180004660 f i libvcruntimed:undname.obj
 0001:00003710       ??$append@VpDNameNode@@@DName@@AEAAXPEBVpDNameNode@@@Z 0000000180004710 f i libvcruntimed:undname.obj
 0001:000037c0       ??$append@VpcharNode@@@DName@@AEAAXPEBVpcharNode@@@Z 00000001800047c0 f i libvcruntimed:undname.obj
 0001:00003870       ??$doPchar@$00@DName@@AEAAXPEBDH@Z 0000000180004870 f i libvcruntimed:undname.obj
 0001:000039d0       ??$doPchar@$01@DName@@AEAAXPEBDH@Z 00000001800049d0 f i libvcruntimed:undname.obj
 0001:00003b30       ??$doPchar@$0A@@DName@@AEAAXPEBDH@Z 0000000180004b30 f i libvcruntimed:undname.obj
 0001:00003c90       ??$forward@_K@std@@YA$$QEA_KAEA_K@Z 0000000180004c90 f i libvcruntimed:undname.obj
 0001:00003ca0       ??$size@D$04@std@@YA_KAEAY04$$CBD@Z 0000000180004ca0 f i libvcruntimed:undname.obj
 0001:00003cb0       ??$size@D$0EB@@std@@YA_KAEAY0EB@$$CBD@Z 0000000180004cb0 f i libvcruntimed:undname.obj
 0001:00003cc0       ??0?$_Optional_construct_base@_K@std@@QEAA@XZ 0000000180004cc0 f i libvcruntimed:undname.obj
 0001:00003ce0       ??0?$_Optional_destruct_base@_K$00@std@@QEAA@XZ 0000000180004ce0 f i libvcruntimed:undname.obj
 0001:00003d00       ??0?$optional@_K@std@@QEAA@XZ 0000000180004d00 f i libvcruntimed:undname.obj
 0001:00003d30       ??0Block@_HeapManager@@QEAA@XZ 0000000180004d30 f i libvcruntimed:undname.obj
 0001:00003d50       ??0DName@@QEAA@AEAPEBDD@Z  0000000180004d50 f   libvcruntimed:undname.obj
 0001:00003f20       ??0DName@@QEAA@AEBUStringLiteral@@@Z 0000000180004f20 f   libvcruntimed:undname.obj
 0001:00003f80       ??0DName@@QEAA@AEBV0@@Z    0000000180004f80 f i libvcruntimed:undname.obj
 0001:00003fb0       ??0DName@@QEAA@D@Z         0000000180004fb0 f   libvcruntimed:undname.obj
 0001:00003ff0       ??0DName@@QEAA@PEAV0@@Z    0000000180004ff0 f   libvcruntimed:undname.obj
 0001:000040d0       ??0DName@@QEAA@W4DNameStatus@@@Z 00000001800050d0 f   libvcruntimed:undname.obj
 0001:00004180       ??0DName@@QEAA@XZ          0000000180005180 f i libvcruntimed:undname.obj
 0001:000041b0       ??0DName@@QEAA@_J@Z        00000001800051b0 f   libvcruntimed:undname.obj
 0001:000042c0       ??0DName@@QEAA@_K@Z        00000001800052c0 f   libvcruntimed:undname.obj
 0001:00004390       ??0DNameNode@@IEAA@XZ      0000000180005390 f i libvcruntimed:undname.obj
 0001:000043b0       ??0Replicator@@QEAA@XZ     00000001800053b0 f i libvcruntimed:undname.obj
 0001:000043f0       ??0UnDecorator@@QEAA@PEBDP6APEADJ@ZK@Z 00000001800053f0 f i libvcruntimed:undname.obj
 0001:000044a0       ??0charNode@@QEAA@D@Z      00000001800054a0 f i libvcruntimed:undname.obj
 0001:000044e0       ??0pDNameNode@@QEAA@PEAVDName@@@Z 00000001800054e0 f   libvcruntimed:undname.obj
 0001:00004560       ??0pairNode@@QEAA@PEBVDNameNode@@0@Z 0000000180005560 f i libvcruntimed:undname.obj
 0001:000045e0       ??2@YAPEAX_KAEAV_HeapManager@@H@Z 00000001800055e0 f   libvcruntimed:undname.obj
 0001:00004640       ??4DName@@QEAAAEAV0@AEBUStringLiteral@@@Z 0000000180005640 f   libvcruntimed:undname.obj
 0001:00004690       ??4DName@@QEAAAEAV0@AEBV0@@Z 0000000180005690 f   libvcruntimed:undname.obj
 0001:000046c0       ??4DName@@QEAAAEAV0@D@Z    00000001800056c0 f i libvcruntimed:undname.obj
 0001:00004700       ??4DName@@QEAAAEAV0@PEAV0@@Z 0000000180005700 f   libvcruntimed:undname.obj
 0001:000047d0       ??4DName@@QEAAAEAV0@W4DNameStatus@@@Z 00000001800057d0 f   libvcruntimed:undname.obj
 0001:00004860       ??AReplicator@@QEBA?AVDName@@H@Z 0000000180005860 f   libvcruntimed:undname.obj
 0001:000048f0       ??B?$optional@_K@std@@QEBA_NXZ 00000001800058f0 f i libvcruntimed:undname.obj
 0001:00004900       ??D?$optional@_K@std@@QEGAAAEA_KXZ 0000000180005900 f i libvcruntimed:undname.obj
 0001:00004910       ??H@YA?AVDName@@AEBUStringLiteral@@AEBV0@@Z 0000000180005910 f i libvcruntimed:undname.obj
 0001:00004960       ??H@YA?AVDName@@DAEBV0@@Z  0000000180005960 f i libvcruntimed:undname.obj
 0001:000049b0       ??H@YA?AVDName@@W4DNameStatus@@AEBV0@@Z 00000001800059b0 f i libvcruntimed:undname.obj
 0001:00004a00       ??HDName@@QEBA?AV0@AEBUStringLiteral@@@Z 0000000180005a00 f   libvcruntimed:undname.obj
 0001:00004a50       ??HDName@@QEBA?AV0@AEBV0@@Z 0000000180005a50 f   libvcruntimed:undname.obj
 0001:00004aa0       ??HDName@@QEBA?AV0@D@Z     0000000180005aa0 f   libvcruntimed:undname.obj
 0001:00004af0       ??HDName@@QEBA?AV0@PEAV0@@Z 0000000180005af0 f   libvcruntimed:undname.obj
 0001:00004b40       ??HDName@@QEBA?AV0@W4DNameStatus@@@Z 0000000180005b40 f   libvcruntimed:undname.obj
 0001:00004b90       ??HStringLiteral@@QEBA?AU0@H@Z 0000000180005b90 f i libvcruntimed:undname.obj
 0001:00004bd0       ??YDName@@QEAAAEAV0@AEBUStringLiteral@@@Z 0000000180005bd0 f   libvcruntimed:undname.obj
 0001:00004ca0       ??YDName@@QEAAAEAV0@AEBV0@@Z 0000000180005ca0 f   libvcruntimed:undname.obj
 0001:00004d60       ??YDName@@QEAAAEAV0@D@Z    0000000180005d60 f   libvcruntimed:undname.obj
 0001:00004e00       ??YDName@@QEAAAEAV0@PEAV0@@Z 0000000180005e00 f   libvcruntimed:undname.obj
 0001:00004ee0       ??YDName@@QEAAAEAV0@W4DNameStatus@@@Z 0000000180005ee0 f   libvcruntimed:undname.obj
 0001:00004f50       ??YReplicator@@QEAAAEAV0@AEBVDName@@@Z 0000000180005f50 f   libvcruntimed:undname.obj
 0001:00005010       ??_5DName@@QEAAAEAV0@AEBV0@@Z 0000000180006010 f   libvcruntimed:undname.obj
 0001:00005080       ??__K_l@@YA?AUStringLiteral@@PEBD_K@Z 0000000180006080 f i libvcruntimed:undname.obj
 0001:000050d0       ?Constructor@_HeapManager@@QEAAXP6APEAX_K@ZP6AXPEAX@Z@Z 00000001800060d0 f i libvcruntimed:undname.obj
 0001:00005130       ?Destructor@_HeapManager@@QEAAXXZ 0000000180006130 f i libvcruntimed:undname.obj
 0001:000051d0       ?UScore@UnDecorator@@SA?AUStringLiteral@@W4Tokens@@@Z 00000001800061d0 f   libvcruntimed:undname.obj
 0001:00005260       ?composeDeclaration@UnDecorator@@CA?AVDName@@AEBV2@@Z 0000000180006260 f i libvcruntimed:undname.obj
 0001:00007760       ?dbGetString@DName@@QEBAPEADXZ 0000000180008760 f   libvcruntimed:undname.obj
 0001:00007790       ?doAccessSpecifiers@UnDecorator@@SAHXZ 0000000180008790 f i libvcruntimed:undname.obj
 0001:000077c0       ?doAllocationLanguage@UnDecorator@@SAHXZ 00000001800087c0 f i libvcruntimed:undname.obj
 0001:000077f0       ?doAllocationModel@UnDecorator@@SAHXZ 00000001800087f0 f i libvcruntimed:undname.obj
 0001:00007820       ?doEcsu@UnDecorator@@SAHXZ 0000000180008820 f i libvcruntimed:undname.obj
 0001:00007850       ?doEllipsis@UnDecorator@@SAHXZ 0000000180008850 f i libvcruntimed:undname.obj
 0001:00007880       ?doFunctionReturns@UnDecorator@@SAHXZ 0000000180008880 f i libvcruntimed:undname.obj
 0001:000078b0       ?doMSKeywords@UnDecorator@@SAHXZ 00000001800088b0 f i libvcruntimed:undname.obj
 0001:000078e0       ?doMemberTypes@UnDecorator@@SAHXZ 00000001800088e0 f i libvcruntimed:undname.obj
 0001:00007910       ?doNameOnly@UnDecorator@@SAHXZ 0000000180008910 f i libvcruntimed:undname.obj
 0001:00007920       ?doNoIdentCharCheck@UnDecorator@@SAHXZ 0000000180008920 f i libvcruntimed:undname.obj
 0001:00007930       ?doPchar@DName@@AEAAXD@Z   0000000180008930 f   libvcruntimed:undname.obj
 0001:000079c0       ?doPtr64@UnDecorator@@SAHXZ 00000001800089c0 f i libvcruntimed:undname.obj
 0001:000079f0       ?doRestrictionSpec@UnDecorator@@SAHXZ 00000001800089f0 f i libvcruntimed:undname.obj
 0001:00007a20       ?doThisTypes@UnDecorator@@SAHXZ 0000000180008a20 f i libvcruntimed:undname.obj
 0001:00007a50       ?doThrowTypes@UnDecorator@@SAHXZ 0000000180008a50 f i libvcruntimed:undname.obj
 0001:00007a80       ?doTypeOnly@UnDecorator@@SAHXZ 0000000180008a80 f i libvcruntimed:undname.obj
 0001:00007a90       ?doUnderScore@UnDecorator@@SAHXZ 0000000180008a90 f i libvcruntimed:undname.obj
 0001:00007ac0       ?getArgumentList@UnDecorator@@CA?AVDName@@XZ 0000000180008ac0 f   libvcruntimed:undname.obj
 0001:00007c60       ?getArgumentTypes@UnDecorator@@CA?AVDName@@XZ 0000000180008c60 f   libvcruntimed:undname.obj
 0001:00007fc0       ?getArrayObject@UnDecorator@@CA?AVDName@@XZ 0000000180008fc0 f   libvcruntimed:undname.obj
 0001:000080e0       ?getArrayType@UnDecorator@@CA?AVDName@@AEBV2@@Z 00000001800090e0 f i libvcruntimed:undname.obj
 0001:000084a0       ?getBasedType@UnDecorator@@CA?AVDName@@XZ 00000001800094a0 f   libvcruntimed:undname.obj
 0001:00008610       ?getBasicDataType@UnDecorator@@CA?AVDName@@AEBV2@@Z 0000000180009610 f   libvcruntimed:undname.obj
 0001:000092e0       ?getCHPEName@UnDecorator@@QEAAPEADPEADH@Z 000000018000a2e0 f i libvcruntimed:undname.obj
 0001:000094b0       ?getCallIndex@UnDecorator@@CA?AVDName@@XZ 000000018000a4b0 f i libvcruntimed:undname.obj
 0001:000094d0       ?getCallingConvention@UnDecorator@@CA?AVDName@@XZ 000000018000a4d0 f   libvcruntimed:undname.obj
 0001:00009870       ?getDataIndirectType@UnDecorator@@CA?AVDName@@AEBV2@W4IndirectionKind@@0H@Z 000000018000a870 f   libvcruntimed:undname.obj
 0001:0000a510       ?getDataIndirectType@UnDecorator@@CA?AVDName@@XZ 000000018000b510 f i libvcruntimed:undname.obj
 0001:0000a560       ?getDataType@UnDecorator@@CA?AVDName@@PEAV2@@Z 000000018000b560 f   libvcruntimed:undname.obj
 0001:0000a740       ?getDecoratedName@UnDecorator@@CA?AVDName@@XZ 000000018000b740 f   libvcruntimed:undname.obj
 0001:0000ac30       ?getDimension@UnDecorator@@CA?AVDName@@_N@Z 000000018000bc30 f   libvcruntimed:undname.obj
 0001:0000af40       ?getDispatchTarget@UnDecorator@@CA?AVDName@@XZ 000000018000bf40 f   libvcruntimed:undname.obj
 0001:0000b010       ?getDisplacement@UnDecorator@@CA?AVDName@@XZ 000000018000c010 f i libvcruntimed:undname.obj
 0001:0000b030       ?getECSUDataType@UnDecorator@@CA?AVDName@@XZ 000000018000c030 f   libvcruntimed:undname.obj
 0001:0000b3c0       ?getECSUName@UnDecorator@@CA?AVDName@@XZ 000000018000c3c0 f i libvcruntimed:undname.obj
 0001:0000b3e0       ?getEnumType@UnDecorator@@CA?AVDName@@XZ 000000018000c3e0 f i libvcruntimed:undname.obj
 0001:0000b670       ?getExtendedDataIndirectType@UnDecorator@@CA?AVDName@@AEAW4IndirectionKind@@AEA_NH@Z 000000018000c670 f   libvcruntimed:undname.obj
 0001:0000b990       ?getExternalDataType@UnDecorator@@CA?AVDName@@AEBV2@@Z 000000018000c990 f i libvcruntimed:undname.obj
 0001:0000ba70       ?getFloatingPoint@UnDecorator@@CA?AVDName@@H@Z 000000018000ca70 f   libvcruntimed:undname.obj
 0001:0000bce0       ?getFunctionIndirectType@UnDecorator@@CA?AVDName@@AEBV2@@Z 000000018000cce0 f   libvcruntimed:undname.obj
 0001:0000c310       ?getGuardNumber@UnDecorator@@CA?AVDName@@XZ 000000018000d310 f i libvcruntimed:undname.obj
 0001:0000c330       ?getLastChar@DName@@QEBADXZ 000000018000d330 f i libvcruntimed:undname.obj
 0001:0000c380       ?getLastChar@DNameStatusNode@@UEBADXZ 000000018000d380 f i libvcruntimed:undname.obj
 0001:0000c3c0       ?getLastChar@charNode@@UEBADXZ 000000018000d3c0 f i libvcruntimed:undname.obj
 0001:0000c3d0       ?getLastChar@pDNameNode@@UEBADXZ 000000018000d3d0 f i libvcruntimed:undname.obj
 0001:0000c410       ?getLastChar@pairNode@@UEBADXZ 000000018000d410 f i libvcruntimed:undname.obj
 0001:0000c490       ?getLastChar@pcharNode@@UEBADXZ 000000018000d490 f i libvcruntimed:undname.obj
 0001:0000c4d0       ?getLexicalFrame@UnDecorator@@CA?AVDName@@XZ 000000018000d4d0 f i libvcruntimed:undname.obj
 0001:0000c520       ?getMemoryWithBuffer@_HeapManager@@QEAAPEAX_K@Z 000000018000d520 f   libvcruntimed:undname.obj
 0001:0000c670       ?getMemoryWithoutBuffer@_HeapManager@@QEAAPEAX_K@Z 000000018000d670 f   libvcruntimed:undname.obj
 0001:0000c6c0       ?getNoexcept@UnDecorator@@CA?AVDName@@XZ 000000018000d6c0 f   libvcruntimed:undname.obj
 0001:0000c770       ?getNumberOfDimensions@UnDecorator@@CAHXZ 000000018000d770 f   libvcruntimed:undname.obj
 0001:0000c890       ?getOperatorName@UnDecorator@@CA?AVDName@@_NPEA_N@Z 000000018000d890 f i libvcruntimed:undname.obj
 0001:0000d7a0       ?getPointerType@UnDecorator@@CA?AVDName@@AEBV2@0@Z 000000018000e7a0 f i libvcruntimed:undname.obj
 0001:0000d7e0       ?getPointerTypeArray@UnDecorator@@CA?AVDName@@AEBV2@0@Z 000000018000e7e0 f i libvcruntimed:undname.obj
 0001:0000d820       ?getPrimaryDataType@UnDecorator@@CA?AVDName@@AEBV2@@Z 000000018000e820 f   libvcruntimed:undname.obj
 0001:0000de10       ?getPtrRefDataType@UnDecorator@@CA?AVDName@@AEBV2@H@Z 000000018000ee10 f   libvcruntimed:undname.obj
 0001:0000e200       ?getPtrRefType@UnDecorator@@CA?AVDName@@AEBV2@0W4IndirectionKind@@@Z 000000018000f200 f   libvcruntimed:undname.obj
 0001:0000e440       ?getReferenceType@UnDecorator@@CA?AVDName@@AEBV2@0W4IndirectionKind@@@Z 000000018000f440 f i libvcruntimed:undname.obj
 0001:0000e480       ?getRestrictionSpec@UnDecorator@@CA?AVDName@@XZ 000000018000f480 f   libvcruntimed:undname.obj
 0001:0000e710       ?getReturnType@UnDecorator@@CA?AVDName@@PEAV2@@Z 000000018000f710 f   libvcruntimed:undname.obj
 0001:0000e770       ?getScope@UnDecorator@@CA?AVDName@@XZ 000000018000f770 f   libvcruntimed:undname.obj
 0001:0000eec0       ?getScopedName@UnDecorator@@CA?AVDName@@XZ 000000018000fec0 f   libvcruntimed:undname.obj
 0001:0000f0c0       ?getSignedDimension@UnDecorator@@CA?AVDName@@XZ 00000001800100c0 f   libvcruntimed:undname.obj
 0001:0000f150       ?getStorageConvention@UnDecorator@@CA?AVDName@@XZ 0000000180010150 f i libvcruntimed:undname.obj
 0001:0000f170       ?getString@DName@@QEBAPEADPEAD0@Z 0000000180010170 f i libvcruntimed:undname.obj
 0001:0000f1f0       ?getString@DName@@QEBAPEADPEADH@Z 00000001800101f0 f i libvcruntimed:undname.obj
 0001:0000f2b0       ?getString@DNameStatusNode@@UEBAPEADPEAD0@Z 00000001800102b0 f i libvcruntimed:undname.obj
 0001:0000f300       ?getString@charNode@@UEBAPEADPEAD0@Z 0000000180010300 f i libvcruntimed:undname.obj
 0001:0000f340       ?getString@pDNameNode@@UEBAPEADPEAD0@Z 0000000180010340 f i libvcruntimed:undname.obj
 0001:0000f3a0       ?getString@pairNode@@UEBAPEADPEAD0@Z 00000001800103a0 f i libvcruntimed:undname.obj
 0001:0000f470       ?getString@pcharNode@@UEBAPEADPEAD0@Z 0000000180010470 f i libvcruntimed:undname.obj
 0001:0000f4b0       ?getStringEncoding@UnDecorator@@CA?AVDName@@W4PrefixKind@@H@Z 00000001800104b0 f   libvcruntimed:undname.obj
 0001:0000f610       ?getStringHelper@@YAPEADPEADPEBD1H@Z 0000000180010610 f i libvcruntimed:undname.obj
 0001:0000f680       ?getStringObject@UnDecorator@@CA?AVDName@@XZ 0000000180010680 f   libvcruntimed:undname.obj
 0001:0000f760       ?getSymbolName@UnDecorator@@CA?AVDName@@XZ 0000000180010760 f i libvcruntimed:undname.obj
 0001:0000f800       ?getTemplateArgumentList@UnDecorator@@CA?AVDName@@XZ 0000000180010800 f   libvcruntimed:undname.obj
 0001:0000fb40       ?getTemplateName@UnDecorator@@CA?AVDName@@_N@Z 0000000180010b40 f   libvcruntimed:undname.obj
 0001:0000fd80       ?getTemplateNonTypeArgument@UnDecorator@@CA?AVDName@@XZ 0000000180010d80 f   libvcruntimed:undname.obj
 0001:00010470       ?getTemplateTypeArgument@UnDecorator@@CA?AVDName@@XZ 0000000180011470 f   libvcruntimed:undname.obj
 0001:000106e0       ?getThisType@UnDecorator@@CA?AVDName@@XZ 00000001800116e0 f i libvcruntimed:undname.obj
 0001:00010730       ?getThrowTypes@UnDecorator@@CA?AVDName@@XZ 0000000180011730 f   libvcruntimed:undname.obj
 0001:00010780       ?getTypeEncoding@UnDecorator@@CAHXZ 0000000180011780 f i libvcruntimed:undname.obj
 0001:000113b0       ?getUndecoratedName@UnDecorator@@QEAAPEADPEADH@Z 00000001800123b0 f i libvcruntimed:undname.obj
 0001:000115a0       ?getVCallThunkType@UnDecorator@@CA?AVDName@@XZ 00000001800125a0 f i libvcruntimed:undname.obj
 0001:00011650       ?getValue@UnDecorator@@CA?AV?$optional@_K@std@@XZ 0000000180012650 f   libvcruntimed:undname.obj
 0001:00011720       ?getValueObject@UnDecorator@@CA?AVDName@@XZ 0000000180012720 f   libvcruntimed:undname.obj
 0001:000118e0       ?getVbTableType@UnDecorator@@CA?AVDName@@AEBV2@@Z 00000001800128e0 f i libvcruntimed:undname.obj
 0001:00011910       ?getVdispMapType@UnDecorator@@CA?AVDName@@AEBV2@@Z 0000000180012910 f i libvcruntimed:undname.obj
 0001:000119d0       ?getVfTableType@UnDecorator@@CA?AVDName@@AEBV2@@Z 00000001800129d0 f i libvcruntimed:undname.obj
 0001:00011c70       ?getZName@UnDecorator@@CA?AVDName@@_N0@Z 0000000180012c70 f   libvcruntimed:undname.obj
 0001:00012100       ?haveTemplateParameters@UnDecorator@@SAHXZ 0000000180013100 f i libvcruntimed:undname.obj
 0001:00012110       ?isArray@DName@@QEBAHXZ    0000000180013110 f i libvcruntimed:undname.obj
 0001:00012130       ?isComArray@DName@@QEBAHXZ 0000000180013130 f i libvcruntimed:undname.obj
 0001:00012150       ?isEmpty@DName@@QEBAHXZ    0000000180013150 f i libvcruntimed:undname.obj
 0001:00012180       ?isFull@Replicator@@QEBAHXZ 0000000180013180 f i libvcruntimed:undname.obj
 0001:000121b0       ?isNoTE@DName@@QEBAHXZ     00000001800131b0 f i libvcruntimed:undname.obj
 0001:000121d0       ?isPinPtr@DName@@QEBAHXZ   00000001800131d0 f i libvcruntimed:undname.obj
 0001:000121f0       ?isPtrRef@DName@@QEBAHXZ   00000001800131f0 f i libvcruntimed:undname.obj
 0001:00012210       ?isUDC@DName@@QEBAHXZ      0000000180013210 f i libvcruntimed:undname.obj
 0001:00012260       ?isUDTThunk@DName@@QEBAHXZ 0000000180013260 f i libvcruntimed:undname.obj
 0001:000122b0       ?isVCallThunk@DName@@QEBAHXZ 00000001800132b0 f i libvcruntimed:undname.obj
 0001:000122d0       ?isValid@DName@@QEBAHXZ    00000001800132d0 f i libvcruntimed:undname.obj
 0001:00012310       ?length@DName@@QEBAHXZ     0000000180013310 f i libvcruntimed:undname.obj
 0001:00012360       ?length@DNameStatusNode@@UEBAHXZ 0000000180013360 f i libvcruntimed:undname.obj
 0001:00012370       ?length@charNode@@UEBAHXZ  0000000180013370 f i libvcruntimed:undname.obj
 0001:00012380       ?length@pDNameNode@@UEBAHXZ 0000000180013380 f i libvcruntimed:undname.obj
 0001:000123c0       ?length@pairNode@@UEBAHXZ  00000001800133c0 f i libvcruntimed:undname.obj
 0001:00012450       ?length@pcharNode@@UEBAHXZ 0000000180013450 f i libvcruntimed:undname.obj
 0001:00012460       ?make@DNameStatusNode@@SAPEBV1@W4DNameStatus@@@Z 0000000180013460 f i libvcruntimed:undname.obj
 0001:000124b0       ?parseDecoratedName@UnDecorator@@CA?AVDName@@XZ 00000001800134b0 f   libvcruntimed:undname.obj
 0001:000126a0       ?raw_length@DNameStatusNode@@UEBAHXZ 00000001800136a0 f i libvcruntimed:undname.obj
 0001:000126c0       ?raw_length@charNode@@UEBAHXZ 00000001800136c0 f i libvcruntimed:undname.obj
 0001:000126e0       ?raw_length@pDNameNode@@UEBAHXZ 00000001800136e0 f i libvcruntimed:undname.obj
 0001:000126f0       ?raw_length@pairNode@@UEBAHXZ 00000001800136f0 f i libvcruntimed:undname.obj
 0001:00012700       ?raw_length@pcharNode@@UEBAHXZ 0000000180013700 f i libvcruntimed:undname.obj
 0001:00012720       ?setIsArray@DName@@QEAAXXZ 0000000180013720 f i libvcruntimed:undname.obj
 0001:00012740       ?setIsComArray@DName@@QEAAXXZ 0000000180013740 f i libvcruntimed:undname.obj
 0001:00012760       ?setIsNoTE@DName@@QEAAXXZ  0000000180013760 f i libvcruntimed:undname.obj
 0001:00012780       ?setIsPinPtr@DName@@QEAAXXZ 0000000180013780 f i libvcruntimed:undname.obj
 0001:000127a0       ?setIsUDC@DName@@QEAAXXZ   00000001800137a0 f i libvcruntimed:undname.obj
 0001:000127d0       ?setIsVCallThunk@DName@@QEAAXXZ 00000001800137d0 f i libvcruntimed:undname.obj
 0001:000127f0       ?setPtrRef@DName@@QEAAAEAV1@XZ 00000001800137f0 f i libvcruntimed:undname.obj
 0001:00012810       ?status@DName@@QEBA?AW4DNameStatus@@XZ 0000000180013810 f i libvcruntimed:undname.obj
 0001:00012940       __unDName                  0000000180013940 f   libvcruntimed:undname.obj
 0001:000129a0       __unDNameEx                00000001800139a0 f   libvcruntimed:undname.obj
 0001:00012a60       _vsprintf_s_l              0000000180013a60 f i libvcruntimed:undname.obj
 0001:00012ad0       sprintf_s                  0000000180013ad0 f i libvcruntimed:undname.obj
 0001:00012b30       unDNameGenerateCHPE        0000000180013b30 f   libvcruntimed:undname.obj
 0001:00012be0       ??$?RU__vcrt_ptd@@@__crt_internal_free_policy@@QEBAXQEBU__vcrt_ptd@@@Z 0000000180013be0 f i libvcruntimed:per_thread_data.obj
 0001:00012c10       ??0?$__crt_unique_heap_ptr@U__vcrt_ptd@@U__crt_internal_free_policy@@@@QEAA@QEAU__vcrt_ptd@@@Z 0000000180013c10 f i libvcruntimed:per_thread_data.obj
 0001:00012c50       ??1?$__crt_unique_heap_ptr@U__vcrt_ptd@@U__crt_internal_free_policy@@@@QEAA@XZ 0000000180013c50 f i libvcruntimed:per_thread_data.obj
 0001:00012c90       ??B?$__crt_unique_heap_ptr@U__vcrt_ptd@@U__crt_internal_free_policy@@@@QEBA_NXZ 0000000180013c90 f i libvcruntimed:per_thread_data.obj
 0001:00012cb0       ?detach@?$__crt_unique_heap_ptr@U__vcrt_ptd@@U__crt_internal_free_policy@@@@QEAAPEAU__vcrt_ptd@@XZ 0000000180013cb0 f i libvcruntimed:per_thread_data.obj
 0001:00012ce0       ?get@?$__crt_unique_heap_ptr@U__vcrt_ptd@@U__crt_internal_free_policy@@@@QEBAPEAU__vcrt_ptd@@XZ 0000000180013ce0 f i libvcruntimed:per_thread_data.obj
 0001:00012cf0       ?is_valid@?$__crt_unique_heap_ptr@U__vcrt_ptd@@U__crt_internal_free_policy@@@@QEBA_NXZ 0000000180013cf0 f i libvcruntimed:per_thread_data.obj
 0001:00012d20       ?release@?$__crt_unique_heap_ptr@U__vcrt_ptd@@U__crt_internal_free_policy@@@@QEAAXXZ 0000000180013d20 f i libvcruntimed:per_thread_data.obj
 0001:00012d90       __vcrt_freefls             0000000180013d90 f   libvcruntimed:per_thread_data.obj
 0001:00012dd0       __vcrt_freeptd             0000000180013dd0 f   libvcruntimed:per_thread_data.obj
 0001:00012e30       __vcrt_getptd              0000000180013e30 f   libvcruntimed:per_thread_data.obj
 0001:00012e60       __vcrt_getptd_noexit       0000000180013e60 f   libvcruntimed:per_thread_data.obj
 0001:00013000       __vcrt_getptd_noinit       0000000180014000 f   libvcruntimed:per_thread_data.obj
 0001:00013060       __vcrt_initialize_ptd      0000000180014060 f   libvcruntimed:per_thread_data.obj
 0001:000130b0       __vcrt_uninitialize_ptd    00000001800140b0 f   libvcruntimed:per_thread_data.obj
 0001:000130e0       __vcrt_initialize_locks    00000001800140e0 f   libvcruntimed:locks.obj
 0001:00013150       __vcrt_lock                0000000180014150 f   libvcruntimed:locks.obj
 0001:00013180       __vcrt_uninitialize_locks  0000000180014180 f   libvcruntimed:locks.obj
 0001:000131e0       __vcrt_unlock              00000001800141e0 f   libvcruntimed:locks.obj
 0001:00013210       ??$__crt_interlocked_exchange_pointer@$$A6AXXZP6AXXZ@@YAP6AXXZPEDS6AXXZQ6AXXZ@Z 0000000180014210 f i libvcruntimed:purevirt.obj
 0001:00013230       ??$__crt_interlocked_read_pointer@$$A6AXXZ@@YAP6AXXZPEDS6AXXZ@Z 0000000180014230 f i libvcruntimed:purevirt.obj
 0001:00013250       _get_purecall_handler      0000000180014250 f   libvcruntimed:purevirt.obj
 0001:00013270       _purecall                  0000000180014270 f   libvcruntimed:purevirt.obj
 0001:000132b0       _set_purecall_handler      00000001800142b0 f   libvcruntimed:purevirt.obj
 0001:000132e0       memcpy_repmovs             00000001800142e0 f   libvcruntimed:memcpy.obj
 0001:00013300       memmove                    0000000180014300 f   libvcruntimed:memcpy.obj
 0001:00013300       memcpy                     0000000180014300 f   libvcruntimed:memcpy.obj
 0001:000136e0       ??$?0AEAViterator@TryBlockMap4@FH4@@AEAV012@$0A@@?$pair@Viterator@TryBlockMap4@FH4@@V123@@std@@QEAA@AEAViterator@TryBlockMap4@FH4@@0@Z 00000001800146e0 f i libvcruntimed:risctrnsctrl.obj
 0001:00013740       ??$?0AEAViterator@TryBlockMap@__FrameHandler3@@AEAV012@$0A@@?$pair@Viterator@TryBlockMap@__FrameHandler3@@V123@@std@@QEAA@AEAViterator@TryBlockMap@__FrameHandler3@@0@Z 0000000180014740 f i libvcruntimed:risctrnsctrl.obj
 0001:00013910       ??$_CallSETranslator@V__FrameHandler3@@@@YAHPEAUEHExceptionRecord@@PEA_KPEAU_CONTEXT@@PEAU_xDISPATCHER_CONTEXT@@PEBU_s_FuncInfo@@K1H@Z 0000000180014910 f i libvcruntimed:risctrnsctrl.obj
 0001:000139a0       ??$_CallSETranslator@V__FrameHandler4@@@@YAHPEAUEHExceptionRecord@@PEA_KPEAU_CONTEXT@@PEAU_xDISPATCHER_CONTEXT@@PEAUFuncInfo4@FH4@@K1H@Z 00000001800149a0 f i libvcruntimed:risctrnsctrl.obj
 0001:00013a30       ??$forward@AEAViterator@TryBlockMap4@FH4@@@std@@YAAEAViterator@TryBlockMap4@FH4@@AEAV123@@Z 0000000180014a30 f i libvcruntimed:risctrnsctrl.obj
 0001:00013a40       ??$forward@AEAViterator@TryBlockMap@__FrameHandler3@@@std@@YAAEAViterator@TryBlockMap@__FrameHandler3@@AEAV123@@Z 0000000180014a40 f i libvcruntimed:risctrnsctrl.obj
 0001:00013a50       ??0FuncInfo4@FH4@@QEAA@XZ  0000000180014a50 f i libvcruntimed:risctrnsctrl.obj
 0001:00013ac0       ??0FuncInfoHeader@FH4@@QEAA@XZ 0000000180014ac0 f i libvcruntimed:risctrnsctrl.obj
 0001:00013ae0       ??0iterator@TryBlockMap4@FH4@@QEAA@AEAV12@I@Z 0000000180014ae0 f i libvcruntimed:risctrnsctrl.obj
 0001:00013b10       ??0iterator@TryBlockMap@__FrameHandler3@@QEAA@AEAV12@I@Z 0000000180014b10 f i libvcruntimed:risctrnsctrl.obj
 0001:00013b40       ??4iterator@TryBlockMap4@FH4@@QEAAAEAV012@AEBV012@@Z 0000000180014b40 f i libvcruntimed:risctrnsctrl.obj
 0001:00013b60       ??9iterator@TryBlockMap4@FH4@@QEBA_NAEBV012@@Z 0000000180014b60 f i libvcruntimed:risctrnsctrl.obj
 0001:00013ba0       ??Diterator@TryBlockMap4@FH4@@QEAA?AUTryBlockMapEntry4@2@XZ 0000000180014ba0 f i libvcruntimed:risctrnsctrl.obj
 0001:00013bd0       ??Eiterator@TryBlockMap4@FH4@@QEAAAEAV012@XZ 0000000180014bd0 f i libvcruntimed:risctrnsctrl.obj
 0001:00013c10       ?CatchTryBlock@__FrameHandler3@@SAPEBU_s_TryBlockMapEntry@@PEBU_s_FuncInfo@@H@Z 0000000180014c10 f   libvcruntimed:risctrnsctrl.obj
 0001:00013ca0       ?DecompFuncInfo@FH4@@YA_JPEAEAEAUFuncInfo4@1@_KH@Z 0000000180014ca0 f i libvcruntimed:risctrnsctrl.obj
 0001:00013ce0       ?DecompFuncInfo@FH4@@YA_JPEAEAEAUFuncInfo4@1@_KH_N@Z 0000000180014ce0 f i libvcruntimed:risctrnsctrl.obj
 0001:00013eb0       ?DecompTryBlock@TryBlockMap4@FH4@@AEAAXXZ 0000000180014eb0 f i libvcruntimed:risctrnsctrl.obj
 0001:00013f30       ?ExecutionInCatch@__FrameHandler3@@SA_NPEAU_xDISPATCHER_CONTEXT@@PEBU_s_FuncInfo@@@Z 0000000180014f30 f   libvcruntimed:risctrnsctrl.obj
 0001:00013f80       ?ExecutionInCatch@__FrameHandler4@@SA_NPEAU_xDISPATCHER_CONTEXT@@PEAUFuncInfo4@FH4@@@Z 0000000180014f80 f   libvcruntimed:risctrnsctrl.obj
 0001:00013fa0       ?FrameUnwindToEmptyState@__FrameHandler3@@SAXPEA_KPEAU_xDISPATCHER_CONTEXT@@PEBU_s_FuncInfo@@@Z 0000000180014fa0 f   libvcruntimed:risctrnsctrl.obj
 0001:00014040       ?FrameUnwindToEmptyState@__FrameHandler4@@SAXPEA_KPEAU_xDISPATCHER_CONTEXT@@PEAUFuncInfo4@FH4@@@Z 0000000180015040 f   libvcruntimed:risctrnsctrl.obj
 0001:00014090       ?GetEstablisherFrame@__FrameHandler3@@SAPEA_KPEA_KPEAU_xDISPATCHER_CONTEXT@@PEBU_s_FuncInfo@@0@Z 0000000180015090 f   libvcruntimed:risctrnsctrl.obj
 0001:00014200       ?GetEstablisherFrame@__FrameHandler4@@SAPEA_KPEA_KPEAU_xDISPATCHER_CONTEXT@@PEAUFuncInfo4@FH4@@0@Z 0000000180015200 f   libvcruntimed:risctrnsctrl.obj
 0001:00014270       ?GetRangeOfTrysToCheck@__FrameHandler3@@SA?AU?$pair@Viterator@TryBlockMap@__FrameHandler3@@V123@@std@@AEAVTryBlockMap@1@HPEAU_xDISPATCHER_CONTEXT@@PEBU_s_FuncInfo@@H@Z 0000000180015270 f   libvcruntimed:risctrnsctrl.obj
 0001:000144b0       ?GetRangeOfTrysToCheck@__FrameHandler4@@SA?AU?$pair@Viterator@TryBlockMap4@FH4@@V123@@std@@AEAVTryBlockMap4@FH4@@HPEAU_xDISPATCHER_CONTEXT@@PEAUFuncInfo4@5@H@Z 00000001800154b0 f   libvcruntimed:risctrnsctrl.obj
 0001:00014660       ?ReadInt@FH4@@YAHPEAPEAE@Z 0000000180015660 f i libvcruntimed:risctrnsctrl.obj
 0001:000146a0       ?ReadUnsigned@FH4@@YAIPEAPEAE@Z 00000001800156a0 f i libvcruntimed:risctrnsctrl.obj
 0001:00014730       ?UnwindNestedFrames@__FrameHandler3@@SAXPEA_KPEAUEHExceptionRecord@@PEAU_CONTEXT@@0PEAXPEBU_s_FuncInfo@@HHPEBU_s_HandlerType@@PEAU_xDISPATCHER_CONTEXT@@E@Z 0000000180015730 f   libvcruntimed:risctrnsctrl.obj
 0001:000148a0       ?UnwindNestedFrames@__FrameHandler4@@SAXPEA_KPEAUEHExceptionRecord@@PEAU_CONTEXT@@0PEAXPEAUFuncInfo4@FH4@@HHPEAUHandlerType4@5@PEAU_xDISPATCHER_CONTEXT@@E@Z 00000001800158a0 f   libvcruntimed:risctrnsctrl.obj
 0001:00014a70       ?begin@TryBlockMap4@FH4@@QEAA?AViterator@12@XZ 0000000180015a70 f i libvcruntimed:risctrnsctrl.obj
 0001:00014aa0       ?end@TryBlockMap4@FH4@@QEAA?AViterator@12@XZ 0000000180015aa0 f i libvcruntimed:risctrnsctrl.obj
 0001:00014ad0       ?imageRelToByteBuffer@FH4@@YAPEAE_KH@Z 0000000180015ad0 f i libvcruntimed:risctrnsctrl.obj
 0001:00014af0       ?incrementToSentinel@iterator@TryBlockMap4@FH4@@QEAAXXZ 0000000180015af0 f i libvcruntimed:risctrnsctrl.obj
 0001:00014b10       ?setBuffer@TryBlockMap4@FH4@@QEAAXViterator@12@@Z 0000000180015b10 f i libvcruntimed:risctrnsctrl.obj
 0001:00014b80       _CreateFrameInfo           0000000180015b80 f   libvcruntimed:risctrnsctrl.obj
 0001:00014bf0       _FindAndUnlinkFrame        0000000180015bf0 f   libvcruntimed:risctrnsctrl.obj
 0001:00014c70       _GetImageBase              0000000180015c70 f   libvcruntimed:risctrnsctrl.obj
 0001:00014c90       _GetThrowImageBase         0000000180015c90 f   libvcruntimed:risctrnsctrl.obj
 0001:00014cb0       _SetImageBase              0000000180015cb0 f   libvcruntimed:risctrnsctrl.obj
 0001:00014cd0       _SetThrowImageBase         0000000180015cd0 f   libvcruntimed:risctrnsctrl.obj
 0001:00014cf0       __CxxFrameHandler          0000000180015cf0 f   libvcruntimed:risctrnsctrl.obj
 0001:00014d30       __CxxFrameHandler2         0000000180015d30 f   libvcruntimed:risctrnsctrl.obj
 0001:00014d70       __CxxFrameHandler3         0000000180015d70 f   libvcruntimed:risctrnsctrl.obj
 0001:00014e50       __CxxFrameHandler4         0000000180015e50 f   libvcruntimed:risctrnsctrl.obj
 0001:00014f60       ??$__crt_interlocked_exchange_pointer@UHINSTANCE__@@PEAU1@@@YAPEAUHINSTANCE__@@PEDSEAU0@QEAU0@@Z 0000000180015f60 f i libvcruntimed:winapi_downlevel.obj
 0001:00014f80       ??$__crt_interlocked_exchange_pointer@UHINSTANCE__@@PEAX@@YAPEAUHINSTANCE__@@PEDSEAU0@QEAX@Z 0000000180015f80 f i libvcruntimed:winapi_downlevel.obj
 0001:00014fa0       ??$__crt_interlocked_exchange_pointer@XPEAX@@YAPEAXPEDSEAXQEAX@Z 0000000180015fa0 f i libvcruntimed:winapi_downlevel.obj
 0001:00014fc0       ??$__crt_interlocked_read_pointer@UHINSTANCE__@@@@YAPEAUHINSTANCE__@@PEDSEAU0@@Z 0000000180015fc0 f i libvcruntimed:winapi_downlevel.obj
 0001:00014fe0       ??$__crt_interlocked_read_pointer@X@@YAPEAXPEDSEAX@Z 0000000180015fe0 f i libvcruntimed:winapi_downlevel.obj
 0001:000154f0       __vcrt_FlsAlloc            00000001800164f0 f   libvcruntimed:winapi_downlevel.obj
 0001:00015540       __vcrt_FlsFree             0000000180016540 f   libvcruntimed:winapi_downlevel.obj
 0001:00015590       __vcrt_FlsGetValue         0000000180016590 f   libvcruntimed:winapi_downlevel.obj
 0001:000155e0       __vcrt_FlsSetValue         00000001800165e0 f   libvcruntimed:winapi_downlevel.obj
 0001:00015640       __vcrt_InitializeCriticalSectionEx 0000000180016640 f   libvcruntimed:winapi_downlevel.obj
 0001:000156b0       ?GetCurrentState@__FrameHandler3@@SAHPEA_KPEAU_xDISPATCHER_CONTEXT@@PEBU_s_FuncInfo@@@Z 00000001800166b0 f   libvcruntimed:ehstate.obj
 0001:00015710       ?GetUnwindTryBlock@__FrameHandler3@@SAHPEA_KPEAU_xDISPATCHER_CONTEXT@@PEBU_s_FuncInfo@@@Z 0000000180016710 f   libvcruntimed:ehstate.obj
 0001:00015760       ?SetState@__FrameHandler3@@SAXPEA_KPEBU_s_FuncInfo@@H@Z 0000000180016760 f   libvcruntimed:ehstate.obj
 0001:00015790       ?SetUnwindTryBlock@__FrameHandler3@@SAXPEA_KPEAU_xDISPATCHER_CONTEXT@@PEBU_s_FuncInfo@@H@Z 0000000180016790 f   libvcruntimed:ehstate.obj
 0001:00015800       ?StateFromControlPc@__FrameHandler3@@SAHPEBU_s_FuncInfo@@PEAU_xDISPATCHER_CONTEXT@@@Z 0000000180016800 f   libvcruntimed:ehstate.obj
 0001:00015840       ?StateFromControlPc@__FrameHandler4@@SAHPEAUFuncInfo4@FH4@@PEAU_xDISPATCHER_CONTEXT@@@Z 0000000180016840 f   libvcruntimed:ehstate.obj
 0001:00015880       ?StateFromIp@__FrameHandler3@@SAHPEBU_s_FuncInfo@@PEAU_xDISPATCHER_CONTEXT@@_K@Z 0000000180016880 f   libvcruntimed:ehstate.obj
 0001:00015970       ?StateFromIp@__FrameHandler4@@SAHPEAUFuncInfo4@FH4@@PEAU_xDISPATCHER_CONTEXT@@_K@Z 0000000180016970 f   libvcruntimed:ehstate.obj
 0001:00015a60       ?__FuncRelToRealOffset@@YA_KPEAU_xDISPATCHER_CONTEXT@@I@Z 0000000180016a60 f i libvcruntimed:ehstate.obj
 0001:00015a90       ?__RVAtoRealOffset@@YA_KPEAU_xDISPATCHER_CONTEXT@@H@Z 0000000180016a90 f i libvcruntimed:ehstate.obj
 0001:00017d10       ??$TypeMatchHelper@V__FrameHandler3@@@@YAHPEBU_s_HandlerType@@PEBU_s_CatchableType@@PEBU_s_ThrowInfo@@@Z 0000000180018d10 f i libvcruntimed:frame.obj
 0001:00017f10       ??$TypeMatchHelper@V__FrameHandler4@@@@YAHPEAUHandlerType4@FH4@@PEBU_s_CatchableType@@PEBU_s_ThrowInfo@@@Z 0000000180018f10 f i libvcruntimed:frame.obj
 0001:00018120       ??$__InternalCxxFrameHandler@V__FrameHandler3@@@@YA?AW4_EXCEPTION_DISPOSITION@@PEAUEHExceptionRecord@@PEA_KPEAU_CONTEXT@@PEAU_xDISPATCHER_CONTEXT@@PEBU_s_FuncInfo@@H1E@Z 0000000180019120 f i libvcruntimed:frame.obj
 0001:00018590       ??$__InternalCxxFrameHandler@V__FrameHandler4@@@@YA?AW4_EXCEPTION_DISPOSITION@@PEAUEHExceptionRecord@@PEA_KPEAU_CONTEXT@@PEAU_xDISPATCHER_CONTEXT@@PEAUFuncInfo4@FH4@@H1E@Z 0000000180019590 f i libvcruntimed:frame.obj
 0001:00018a20       ??0HandlerMap4@FH4@@QEAA@PEBUTryBlockMapEntry4@1@_KH@Z 0000000180019a20 f i libvcruntimed:frame.obj
 0001:00018ae0       ??0HandlerMap@__FrameHandler3@@QEAA@PEBU_s_TryBlockMapEntry@@_KI@Z 0000000180019ae0 f i libvcruntimed:frame.obj
 0001:00018b30       ??0HandlerType4@FH4@@QEAA@XZ 0000000180019b30 f i libvcruntimed:frame.obj
 0001:00018b50       ??0TryBlockMap4@FH4@@QEAA@PEBUFuncInfo4@1@_K@Z 0000000180019b50 f i libvcruntimed:frame.obj
 0001:00018be0       ??0TryBlockMap@__FrameHandler3@@QEAA@PEBU_s_FuncInfo@@_K@Z 0000000180019be0 f i libvcruntimed:frame.obj
 0001:00018c10       ??0UWMap4@FH4@@QEAA@PEBUFuncInfo4@1@_K@Z 0000000180019c10 f i libvcruntimed:frame.obj
 0001:00018c80       ??0bad_exception@std@@QEAA@AEBV01@@Z 0000000180019c80 f i libvcruntimed:frame.obj
 0001:00018cc0       ??0bad_exception@std@@QEAA@XZ 0000000180019cc0 f i libvcruntimed:frame.obj
 0001:00018d00       ??0exception@std@@QEAA@AEBV01@@Z 0000000180019d00 f i libvcruntimed:frame.obj
 0001:00018d60       ??0exception@std@@QEAA@QEBDH@Z 0000000180019d60 f i libvcruntimed:frame.obj
 0001:00018db0       ??0iterator@HandlerMap4@FH4@@QEAA@AEAV12@I@Z 0000000180019db0 f i libvcruntimed:frame.obj
 0001:00018de0       ??0iterator@HandlerMap@__FrameHandler3@@QEAA@AEAV12@I@Z 0000000180019de0 f i libvcruntimed:frame.obj
 0001:00018e10       ??0iterator@UWMap4@FH4@@QEAA@AEAV12@PEAE@Z 0000000180019e10 f i libvcruntimed:frame.obj
 0001:00018e40       ??1bad_exception@std@@UEAA@XZ 0000000180019e40 f i libvcruntimed:frame.obj
 0001:00018e60       ??1exception@std@@UEAA@XZ  0000000180019e60 f i libvcruntimed:frame.obj
 0001:00018e90       ??4iterator@UWMap4@FH4@@QEAAAEAV012@AEBV012@@Z 0000000180019e90 f i libvcruntimed:frame.obj
 0001:00018ee0       ??8iterator@HandlerMap4@FH4@@QEBA_NAEBV012@@Z 0000000180019ee0 f i libvcruntimed:frame.obj
 0001:00018f20       ??8iterator@HandlerMap@__FrameHandler3@@QEBA_NAEBV012@@Z 0000000180019f20 f i libvcruntimed:frame.obj
 0001:00018f60       ??8type_info@@QEBA_NAEBV0@@Z 0000000180019f60 f i libvcruntimed:frame.obj
 0001:00018fb0       ??9iterator@HandlerMap4@FH4@@QEBA_NAEBV012@@Z 0000000180019fb0 f i libvcruntimed:frame.obj
 0001:00018ff0       ??9iterator@HandlerMap@__FrameHandler3@@QEBA_NAEBV012@@Z 0000000180019ff0 f i libvcruntimed:frame.obj
 0001:00019030       ??Diterator@HandlerMap4@FH4@@QEAA?AUHandlerType4@2@XZ 000000018001a030 f i libvcruntimed:frame.obj
 0001:00019060       ??Diterator@HandlerMap@__FrameHandler3@@QEAA?BU_s_HandlerType@@XZ 000000018001a060 f i libvcruntimed:frame.obj
 0001:000190a0       ??Diterator@TryBlockMap@__FrameHandler3@@QEAA?BU_s_TryBlockMapEntry@@XZ 000000018001a0a0 f i libvcruntimed:frame.obj
 0001:000190f0       ??Diterator@UWMap4@FH4@@QEAA?AUUnwindMapEntry4@2@XZ 000000018001a0f0 f i libvcruntimed:frame.obj
 0001:00019170       ??Eiterator@HandlerMap4@FH4@@QEAAAEAV012@XZ 000000018001a170 f i libvcruntimed:frame.obj
 0001:000191b0       ??Eiterator@HandlerMap@__FrameHandler3@@QEAAAEAV012@XZ 000000018001a1b0 f i libvcruntimed:frame.obj
 0001:000191d0       ??Eiterator@TryBlockMap@__FrameHandler3@@QEAAAEAV012@XZ 000000018001a1d0 f i libvcruntimed:frame.obj
 0001:000191f0       ??Eiterator@UWMap4@FH4@@QEAAAEAV012@XZ 000000018001a1f0 f i libvcruntimed:frame.obj
 0001:00019230       ??Giterator@UWMap4@FH4@@QEBA_JAEBV012@@Z 000000018001a230 f i libvcruntimed:frame.obj
 0001:00019250       ??Miterator@TryBlockMap4@FH4@@QEBA_NAEBV012@@Z 000000018001a250 f i libvcruntimed:frame.obj
 0001:00019290       ??Miterator@TryBlockMap@__FrameHandler3@@QEBA_NAEBV012@@Z 000000018001a290 f i libvcruntimed:frame.obj
 0001:000192d0       ??Oiterator@UWMap4@FH4@@QEBA_NAEBV012@@Z 000000018001a2d0 f i libvcruntimed:frame.obj
 0001:00019310       ??Piterator@UWMap4@FH4@@QEBA_NAEBV012@@Z 000000018001a310 f i libvcruntimed:frame.obj
 0001:00019350       ??_Gbad_exception@std@@UEAAPEAXI@Z 000000018001a350 f i libvcruntimed:frame.obj
 0001:00019350       ??_Ebad_exception@std@@UEAAPEAXI@Z 000000018001a350 f i libvcruntimed:frame.obj
 0001:00019390       ??_Eexception@std@@UEAAPEAXI@Z 000000018001a390 f i libvcruntimed:frame.obj
 0001:00019390       ??_Gexception@std@@UEAAPEAXI@Z 000000018001a390 f i libvcruntimed:frame.obj
 0001:000193d0       ?BuildCatchObject@__FrameHandler3@@SAXPEAUEHExceptionRecord@@PEAXPEBU_s_HandlerType@@PEBU_s_CatchableType@@@Z 000000018001a3d0 f   libvcruntimed:frame.obj
 0001:00019410       ?BuildCatchObject@__FrameHandler4@@SAXPEAUEHExceptionRecord@@PEAXPEAUHandlerType4@FH4@@PEBU_s_CatchableType@@@Z 000000018001a410 f   libvcruntimed:frame.obj
 0001:00019450       ?BuildCatchObjectHelper@__FrameHandler3@@SAHPEAUEHExceptionRecord@@PEAXPEBU_s_HandlerType@@PEBU_s_CatchableType@@@Z 000000018001a450 f   libvcruntimed:frame.obj
 0001:00019490       ?BuildCatchObjectHelper@__FrameHandler4@@SAHPEAUEHExceptionRecord@@PEAXPEAUHandlerType4@FH4@@PEBU_s_CatchableType@@@Z 000000018001a490 f   libvcruntimed:frame.obj
 0001:000194d0       ?CxxCallCatchBlock@__FrameHandler3@@SAPEAXPEAU_EXCEPTION_RECORD@@@Z 000000018001a4d0 f   libvcruntimed:frame.obj
 0001:00019730       ?CxxCallCatchBlock@__FrameHandler4@@SAPEAXPEAU_EXCEPTION_RECORD@@@Z 000000018001a730 f   libvcruntimed:frame.obj
 0001:00019a60       ?DecompHandler@HandlerMap4@FH4@@AEAAXXZ 000000018001aa60 f i libvcruntimed:frame.obj
 0001:00019e30       ?FrameUnwindToState@__FrameHandler3@@SAXPEA_KPEAU_xDISPATCHER_CONTEXT@@PEBU_s_FuncInfo@@H@Z 000000018001ae30 f   libvcruntimed:frame.obj
 0001:0001a080       ?FrameUnwindToState@__FrameHandler4@@SAXPEA_KPEAU_xDISPATCHER_CONTEXT@@PEAUFuncInfo4@FH4@@H@Z 000000018001b080 f   libvcruntimed:frame.obj
 0001:0001a390       ?GetHandlerSearchState@__FrameHandler3@@SAHPEA_KPEAU_xDISPATCHER_CONTEXT@@PEBU_s_FuncInfo@@@Z 000000018001b390 f i libvcruntimed:frame.obj
 0001:0001a440       ?GetHandlerSearchState@__FrameHandler4@@SAHPEA_KPEAU_xDISPATCHER_CONTEXT@@PEAUFuncInfo4@FH4@@@Z 000000018001b440 f i libvcruntimed:frame.obj
 0001:0001a4c0       ?GetMaxState@__FrameHandler3@@SAHPEAU_xDISPATCHER_CONTEXT@@PEBU_s_FuncInfo@@@Z 000000018001b4c0 f i libvcruntimed:frame.obj
 0001:0001a4e0       ?GetMaxState@__FrameHandler4@@SAHPEAU_xDISPATCHER_CONTEXT@@PEAUFuncInfo4@FH4@@@Z 000000018001b4e0 f i libvcruntimed:frame.obj
 0001:0001a710       ?ReadEntry@UWMap4@FH4@@AEAAXPEAPEAE@Z 000000018001b710 f i libvcruntimed:frame.obj
 0001:0001a7c0       ?TypeMatch@__FrameHandler3@@SAHPEBU_s_HandlerType@@PEBU_s_CatchableType@@PEBU_s_ThrowInfo@@@Z 000000018001b7c0 f   libvcruntimed:frame.obj
 0001:0001a7f0       ?TypeMatch@__FrameHandler4@@SAHPEAUHandlerType4@FH4@@PEBU_s_CatchableType@@PEBU_s_ThrowInfo@@@Z 000000018001b7f0 f   libvcruntimed:frame.obj
 0001:0001a820       ?WalkBack@UWMap4@FH4@@AEAAXPEAPEAE@Z 000000018001b820 f i libvcruntimed:frame.obj
 0001:0001a870       ?WalkBack@iterator@UWMap4@FH4@@QEAAXXZ 000000018001b870 f i libvcruntimed:frame.obj
 0001:0001a8b0       ?WalkForward@UWMap4@FH4@@AEAAXPEAPEAE@Z 000000018001b8b0 f i libvcruntimed:frame.obj
 0001:0001a8e0       ?_CallMemberFunction1@@YAXQEAX00@Z 000000018001b8e0 f i libvcruntimed:frame.obj
 0001:0001a920       ?_CallMemberFunction2@@YAXQEAX00H@Z 000000018001b920 f i libvcruntimed:frame.obj
 0001:0001a9b0       ?begin@HandlerMap4@FH4@@QEAA?AViterator@12@XZ 000000018001b9b0 f i libvcruntimed:frame.obj
 0001:0001a9e0       ?begin@HandlerMap@__FrameHandler3@@QEAA?AViterator@12@XZ 000000018001b9e0 f i libvcruntimed:frame.obj
 0001:0001aa10       ?begin@UWMap4@FH4@@QEAA?AViterator@12@XZ 000000018001ba10 f i libvcruntimed:frame.obj
 0001:0001aa40       ?end@HandlerMap4@FH4@@QEAA?AViterator@12@XZ 000000018001ba40 f i libvcruntimed:frame.obj
 0001:0001aa70       ?end@HandlerMap@__FrameHandler3@@QEAA?AViterator@12@XZ 000000018001ba70 f i libvcruntimed:frame.obj
 0001:0001aaa0       ?getESTypes@__FrameHandler3@@SAPEBU_s_ESTypeList@@PEBU_s_FuncInfo@@@Z 000000018001baa0 f i libvcruntimed:frame.obj
 0001:0001aae0       ?getESTypes@__FrameHandler4@@SAPEBU_s_ESTypeList@@PEAUFuncInfo4@FH4@@@Z 000000018001bae0 f i libvcruntimed:frame.obj
 0001:0001aaf0       ?getLastEntry@HandlerMap4@FH4@@QEAAPEAUHandlerType4@2@XZ 000000018001baf0 f i libvcruntimed:frame.obj
 0001:0001ab30       ?getLastEntry@HandlerMap@__FrameHandler3@@QEAAPEBU_s_HandlerType@@XZ 000000018001bb30 f i libvcruntimed:frame.obj
 0001:0001ab50       ?getMagicNum@__FrameHandler3@@SAIPEBU_s_FuncInfo@@@Z 000000018001bb50 f i libvcruntimed:frame.obj
 0001:0001ab70       ?getMagicNum@__FrameHandler4@@SAIPEAUFuncInfo4@FH4@@@Z 000000018001bb70 f i libvcruntimed:frame.obj
 0001:0001ab80       ?getNumTryBlocks@TryBlockMap4@FH4@@QEAAIXZ 000000018001bb80 f i libvcruntimed:frame.obj
 0001:0001ab90       ?getNumTryBlocks@TryBlockMap@__FrameHandler3@@QEAAIXZ 000000018001bb90 f i libvcruntimed:frame.obj
 0001:0001abb0       ?getStartStop@UWMap4@FH4@@QEAAXHHAEAViterator@12@0@Z 000000018001bbb0 f i libvcruntimed:frame.obj
 0001:0001acd0       ?getStateFromIterators@UWMap4@FH4@@SAHAEBViterator@12@H0H0@Z 000000018001bcd0 f i libvcruntimed:frame.obj
 0001:0001ae10       ?isEHs@__FrameHandler3@@SA_NPEBU_s_FuncInfo@@@Z 000000018001be10 f i libvcruntimed:frame.obj
 0001:0001ae50       ?isEHs@__FrameHandler4@@SA_NPEAUFuncInfo4@FH4@@@Z 000000018001be50 f i libvcruntimed:frame.obj
 0001:0001ae70       ?isNoExcept@__FrameHandler3@@SA_NPEBU_s_FuncInfo@@@Z 000000018001be70 f i libvcruntimed:frame.obj
 0001:0001aeb0       ?isNoExcept@__FrameHandler4@@SA_NPEAUFuncInfo4@FH4@@@Z 000000018001beb0 f i libvcruntimed:frame.obj
 0001:0001aed0       ?reset@HandlerType4@FH4@@QEAAXXZ 000000018001bed0 f i libvcruntimed:frame.obj
 0001:0001af30       ?resetBuffer@HandlerMap4@FH4@@QEAAXXZ 000000018001bf30 f i libvcruntimed:frame.obj
 0001:0001af50       ?setBuffer@HandlerMap4@FH4@@QEAAXI@Z 000000018001bf50 f i libvcruntimed:frame.obj
 0001:0001afb0       ?what@exception@std@@UEBAPEBDXZ 000000018001bfb0 f i libvcruntimed:frame.obj
 0001:0001aff0       __BuildCatchObject         000000018001bff0 f   libvcruntimed:frame.obj
 0001:0001b030       __BuildCatchObjectHelper   000000018001c030 f   libvcruntimed:frame.obj
 0001:0001b070       __TypeMatch                000000018001c070 f   libvcruntimed:frame.obj
 0001:0001b0a0       __vcrt_EncodePointer       000000018001c0a0 f i libvcruntimed:frame.obj
 0001:0001b0d0       memset_repmovs             000000018001c0d0 f   libvcruntimed:memset.obj
 0001:0001b0f0       memset                     000000018001c0f0 f   libvcruntimed:memset.obj
 0001:0001b290       _CallSettingFrame          000000018001c290 f   libvcruntimed:handlers.obj
 0001:0001b2e0       _CallSettingFrame_LookupContinuationIndex 000000018001c2e0 f   libvcruntimed:handlers.obj
 0001:0001b310       _CallSettingFrame_NotifyContinuationAddr 000000018001c310 f   libvcruntimed:handlers.obj
 0001:0001b340       _CallSettingFrameEncoded   000000018001c340 f   libvcruntimed:handlers.obj
 0001:0001b390       ??$?RD@__crt_public_free_policy@@QEBAXQEBD@Z 000000018001c390 f i libvcruntimed:std_exception.obj
 0001:0001b3b0       ??0?$__crt_unique_heap_ptr@DU__crt_public_free_policy@@@@QEAA@QEAD@Z 000000018001c3b0 f i libvcruntimed:std_exception.obj
 0001:0001b3d0       ??1?$__crt_unique_heap_ptr@DU__crt_public_free_policy@@@@QEAA@XZ 000000018001c3d0 f i libvcruntimed:std_exception.obj
 0001:0001b3f0       ??B?$__crt_unique_heap_ptr@DU__crt_public_free_policy@@@@QEBA_NXZ 000000018001c3f0 f i libvcruntimed:std_exception.obj
 0001:0001b410       ?detach@?$__crt_unique_heap_ptr@DU__crt_public_free_policy@@@@QEAAPEADXZ 000000018001c410 f i libvcruntimed:std_exception.obj
 0001:0001b440       ?get@?$__crt_unique_heap_ptr@DU__crt_public_free_policy@@@@QEBAPEADXZ 000000018001c440 f i libvcruntimed:std_exception.obj
 0001:0001b450       ?is_valid@?$__crt_unique_heap_ptr@DU__crt_public_free_policy@@@@QEBA_NXZ 000000018001c450 f i libvcruntimed:std_exception.obj
 0001:0001b480       ?release@?$__crt_unique_heap_ptr@DU__crt_public_free_policy@@@@QEAAXXZ 000000018001c480 f i libvcruntimed:std_exception.obj
 0001:0001b4b0       __std_exception_copy       000000018001c4b0 f   libvcruntimed:std_exception.obj
 0001:0001b5f0       __std_exception_destroy    000000018001c5f0 f   libvcruntimed:std_exception.obj
 0001:0001b630       _CxxThrowException         000000018001c630 f   libvcruntimed:throw.obj
 0001:0001b760       ??$?RPEAU__crt_stdio_stream_data@@@__crt_internal_free_policy@@QEBAXQEBQEAU__crt_stdio_stream_data@@@Z 000000018001c760 f i libucrtd:_file.obj
 0001:0001b790       ??0?$__crt_unique_heap_ptr@PEAU__crt_stdio_stream_data@@U__crt_internal_free_policy@@@@QEAA@QEAPEAU__crt_stdio_stream_data@@@Z 000000018001c790 f i libucrtd:_file.obj
 0001:0001b7b0       ??0__crt_stdio_stream@@QEAA@QEAU_iobuf@@@Z 000000018001c7b0 f i libucrtd:_file.obj
 0001:0001b7d0       ??1?$__crt_unique_heap_ptr@PEAU__crt_stdio_stream_data@@U__crt_internal_free_policy@@@@QEAA@XZ 000000018001c7d0 f i libucrtd:_file.obj
 0001:0001b7f0       ??C__crt_stdio_stream@@QEBAPEAU__crt_stdio_stream_data@@XZ 000000018001c7f0 f i libucrtd:_file.obj
 0001:0001b800       ?detach@?$__crt_unique_heap_ptr@PEAU__crt_stdio_stream_data@@U__crt_internal_free_policy@@@@QEAAPEAPEAU__crt_stdio_stream_data@@XZ 000000018001c800 f i libucrtd:_file.obj
 0001:0001b830       ?release@?$__crt_unique_heap_ptr@PEAU__crt_stdio_stream_data@@U__crt_internal_free_policy@@@@QEAAXXZ 000000018001c830 f i libucrtd:_file.obj
 0001:0001b860       __acrt_initialize_stdio    000000018001c860 f   libucrtd:_file.obj
 0001:0001ba50       __acrt_iob_func            000000018001ca50 f   libucrtd:_file.obj
 0001:0001ba70       __acrt_uninitialize_stdio  000000018001ca70 f   libucrtd:_file.obj
 0001:0001bb00       _get_stream_buffer_pointers 000000018001cb00 f   libucrtd:_file.obj
 0001:0001bc30       _lock_file                 000000018001cc30 f   libucrtd:_file.obj
 0001:0001bc70       _unlock_file               000000018001cc70 f   libucrtd:_file.obj
 0001:0001bcb0       ??$?0AEBV?$stream_output_adapter@D@__crt_stdio_output@@AEB_KAEBQEBDAEAV__crt_cached_ptd_host@@AEBQEAD@?$format_validation_base@DV?$stream_output_adapter@D@__crt_stdio_output@@@__crt_stdio_output@@IEAA@AEBV?$stream_output_adapter@D@1@AEB_KAEBQEBDAEAV__crt_cached_ptd_host@@AEBQEAD@Z 000000018001ccb0 f i libucrtd:output.obj
 0001:0001bd00       ??$?0AEBV?$stream_output_adapter@D@__crt_stdio_output@@AEB_KAEBQEBDAEAV__crt_cached_ptd_host@@AEBQEAD@?$positional_parameter_base@DV?$stream_output_adapter@D@__crt_stdio_output@@@__crt_stdio_output@@IEAA@AEBV?$stream_output_adapter@D@1@AEB_KAEBQEBDAEAV__crt_cached_ptd_host@@AEBQEAD@Z 000000018001cd00 f i libucrtd:output.obj
 0001:0001bda0       ??$?0AEBV?$stream_output_adapter@D@__crt_stdio_output@@AEB_KAEBQEBDAEAV__crt_cached_ptd_host@@AEBQEAD@?$standard_base@DV?$stream_output_adapter@D@__crt_stdio_output@@@__crt_stdio_output@@IEAA@AEBV?$stream_output_adapter@D@1@AEB_KAEBQEBDAEAV__crt_cached_ptd_host@@AEBQEAD@Z 000000018001cda0 f i libucrtd:output.obj
 0001:0001be10       ??$?0AEBV?$stream_output_adapter@_W@__crt_stdio_output@@AEB_KAEBQEB_WAEAV__crt_cached_ptd_host@@AEBQEAD@?$format_validation_base@_WV?$stream_output_adapter@_W@__crt_stdio_output@@@__crt_stdio_output@@IEAA@AEBV?$stream_output_adapter@_W@1@AEB_KAEBQEB_WAEAV__crt_cached_ptd_host@@AEBQEAD@Z 000000018001ce10 f i libucrtd:output.obj
 0001:0001be60       ??$?0AEBV?$stream_output_adapter@_W@__crt_stdio_output@@AEB_KAEBQEB_WAEAV__crt_cached_ptd_host@@AEBQEAD@?$positional_parameter_base@_WV?$stream_output_adapter@_W@__crt_stdio_output@@@__crt_stdio_output@@IEAA@AEBV?$stream_output_adapter@_W@1@AEB_KAEBQEB_WAEAV__crt_cached_ptd_host@@AEBQEAD@Z 000000018001ce60 f i libucrtd:output.obj
 0001:0001bf00       ??$?0AEBV?$stream_output_adapter@_W@__crt_stdio_output@@AEB_KAEBQEB_WAEAV__crt_cached_ptd_host@@AEBQEAD@?$standard_base@_WV?$stream_output_adapter@_W@__crt_stdio_output@@@__crt_stdio_output@@IEAA@AEBV?$stream_output_adapter@_W@1@AEB_KAEBQEB_WAEAV__crt_cached_ptd_host@@AEBQEAD@Z 000000018001cf00 f i libucrtd:output.obj
 0001:0001bf70       ??$?0AEBV?$string_output_adapter@D@__crt_stdio_output@@AEB_KAEBQEBDAEAV__crt_cached_ptd_host@@AEBQEAD@?$format_validation_base@DV?$string_output_adapter@D@__crt_stdio_output@@@__crt_stdio_output@@IEAA@AEBV?$string_output_adapter@D@1@AEB_KAEBQEBDAEAV__crt_cached_ptd_host@@AEBQEAD@Z 000000018001cf70 f i libucrtd:output.obj
 0001:0001bfc0       ??$?0AEBV?$string_output_adapter@D@__crt_stdio_output@@AEB_KAEBQEBDAEAV__crt_cached_ptd_host@@AEBQEAD@?$positional_parameter_base@DV?$string_output_adapter@D@__crt_stdio_output@@@__crt_stdio_output@@IEAA@AEBV?$string_output_adapter@D@1@AEB_KAEBQEBDAEAV__crt_cached_ptd_host@@AEBQEAD@Z 000000018001cfc0 f i libucrtd:output.obj
 0001:0001c060       ??$?0AEBV?$string_output_adapter@D@__crt_stdio_output@@AEB_KAEBQEBDAEAV__crt_cached_ptd_host@@AEBQEAD@?$standard_base@DV?$string_output_adapter@D@__crt_stdio_output@@@__crt_stdio_output@@IEAA@AEBV?$string_output_adapter@D@1@AEB_KAEBQEBDAEAV__crt_cached_ptd_host@@AEBQEAD@Z 000000018001d060 f i libucrtd:output.obj
 0001:0001c0d0       ??$?0AEBV?$string_output_adapter@_W@__crt_stdio_output@@AEB_KAEBQEB_WAEAV__crt_cached_ptd_host@@AEBQEAD@?$format_validation_base@_WV?$string_output_adapter@_W@__crt_stdio_output@@@__crt_stdio_output@@IEAA@AEBV?$string_output_adapter@_W@1@AEB_KAEBQEB_WAEAV__crt_cached_ptd_host@@AEBQEAD@Z 000000018001d0d0 f i libucrtd:output.obj
 0001:0001c120       ??$?0AEBV?$string_output_adapter@_W@__crt_stdio_output@@AEB_KAEBQEB_WAEAV__crt_cached_ptd_host@@AEBQEAD@?$positional_parameter_base@_WV?$string_output_adapter@_W@__crt_stdio_output@@@__crt_stdio_output@@IEAA@AEBV?$string_output_adapter@_W@1@AEB_KAEBQEB_WAEAV__crt_cached_ptd_host@@AEBQEAD@Z 000000018001d120 f i libucrtd:output.obj
 0001:0001c1c0       ??$?0AEBV?$string_output_adapter@_W@__crt_stdio_output@@AEB_KAEBQEB_WAEAV__crt_cached_ptd_host@@AEBQEAD@?$standard_base@_WV?$string_output_adapter@_W@__crt_stdio_output@@@__crt_stdio_output@@IEAA@AEBV?$string_output_adapter@_W@1@AEB_KAEBQEB_WAEAV__crt_cached_ptd_host@@AEBQEAD@Z 000000018001d1c0 f i libucrtd:output.obj
 0001:0001c650       ??$__crt_interlocked_read@J@@YAJPEDJ@Z 000000018001d650 f i libucrtd:output.obj
 0001:0001c670       ??$_tcstol_internal@DPEAPEAD$0A@@@YAJAEAV__crt_cached_ptd_host@@QEBDQEAPEADH@Z 000000018001d670 f i libucrtd:output.obj
 0001:0001c6c0       ??$_tcstol_internal@_WPEAPEA_W$0A@@@YAJAEAV__crt_cached_ptd_host@@QEB_WQEAPEA_WH@Z 000000018001d6c0 f i libucrtd:output.obj
 0001:000206e0       ??$count@D@formatting_buffer@__crt_stdio_output@@QEBA_KXZ 00000001800216e0 f i libucrtd:output.obj
 0001:00020730       ??$count@_W@formatting_buffer@__crt_stdio_output@@QEBA_KXZ 0000000180021730 f i libucrtd:output.obj
 0001:00020780       ??$data@D@formatting_buffer@__crt_stdio_output@@QEAAPEADXZ 0000000180021780 f i libucrtd:output.obj
 0001:000207d0       ??$data@_W@formatting_buffer@__crt_stdio_output@@QEAAPEA_WXZ 00000001800217d0 f i libucrtd:output.obj
 0001:00020820       ??$ensure_buffer_is_big_enough@D@formatting_buffer@__crt_stdio_output@@QEAA_N_KAEAV__crt_cached_ptd_host@@@Z 0000000180021820 f i libucrtd:output.obj
 0001:00020960       ??$ensure_buffer_is_big_enough@_W@formatting_buffer@__crt_stdio_output@@QEAA_N_KAEAV__crt_cached_ptd_host@@@Z 0000000180021960 f i libucrtd:output.obj
 0001:00020aa0       ??$extract_argument_from_va_list@C_J@?$positional_parameter_base@DV?$stream_output_adapter@D@__crt_stdio_output@@@__crt_stdio_output@@IEAA_NAEA_J@Z 0000000180021aa0 f i libucrtd:output.obj
 0001:00020c60       ??$extract_argument_from_va_list@C_J@?$positional_parameter_base@DV?$string_output_adapter@D@__crt_stdio_output@@@__crt_stdio_output@@IEAA_NAEA_J@Z 0000000180021c60 f i libucrtd:output.obj
 0001:00020e20       ??$extract_argument_from_va_list@C_J@?$positional_parameter_base@_WV?$stream_output_adapter@_W@__crt_stdio_output@@@__crt_stdio_output@@IEAA_NAEA_J@Z 0000000180021e20 f i libucrtd:output.obj
 0001:00020fe0       ??$extract_argument_from_va_list@C_J@?$positional_parameter_base@_WV?$string_output_adapter@_W@__crt_stdio_output@@@__crt_stdio_output@@IEAA_NAEA_J@Z 0000000180021fe0 f i libucrtd:output.obj
 0001:000211a0       ??$extract_argument_from_va_list@C_J@?$standard_base@DV?$stream_output_adapter@D@__crt_stdio_output@@@__crt_stdio_output@@IEAA_NAEA_J@Z 00000001800221a0 f i libucrtd:output.obj
 0001:000211e0       ??$extract_argument_from_va_list@C_J@?$standard_base@DV?$string_output_adapter@D@__crt_stdio_output@@@__crt_stdio_output@@IEAA_NAEA_J@Z 00000001800221e0 f i libucrtd:output.obj
 0001:00021220       ??$extract_argument_from_va_list@C_J@?$standard_base@_WV?$stream_output_adapter@_W@__crt_stdio_output@@@__crt_stdio_output@@IEAA_NAEA_J@Z 0000000180022220 f i libucrtd:output.obj
 0001:00021260       ??$extract_argument_from_va_list@C_J@?$standard_base@_WV?$string_output_adapter@_W@__crt_stdio_output@@@__crt_stdio_output@@IEAA_NAEA_J@Z 0000000180022260 f i libucrtd:output.obj
 0001:000212a0       ??$extract_argument_from_va_list@E_J@?$positional_parameter_base@DV?$stream_output_adapter@D@__crt_stdio_output@@@__crt_stdio_output@@IEAA_NAEA_J@Z 00000001800222a0 f i libucrtd:output.obj
 0001:00021460       ??$extract_argument_from_va_list@E_J@?$positional_parameter_base@DV?$string_output_adapter@D@__crt_stdio_output@@@__crt_stdio_output@@IEAA_NAEA_J@Z 0000000180022460 f i libucrtd:output.obj
 0001:00021620       ??$extract_argument_from_va_list@E_J@?$positional_parameter_base@_WV?$stream_output_adapter@_W@__crt_stdio_output@@@__crt_stdio_output@@IEAA_NAEA_J@Z 0000000180022620 f i libucrtd:output.obj
 0001:000217e0       ??$extract_argument_from_va_list@E_J@?$positional_parameter_base@_WV?$string_output_adapter@_W@__crt_stdio_output@@@__crt_stdio_output@@IEAA_NAEA_J@Z 00000001800227e0 f i libucrtd:output.obj
 0001:000219a0       ??$extract_argument_from_va_list@E_J@?$standard_base@DV?$stream_output_adapter@D@__crt_stdio_output@@@__crt_stdio_output@@IEAA_NAEA_J@Z 00000001800229a0 f i libucrtd:output.obj
 0001:000219e0       ??$extract_argument_from_va_list@E_J@?$standard_base@DV?$string_output_adapter@D@__crt_stdio_output@@@__crt_stdio_output@@IEAA_NAEA_J@Z 00000001800229e0 f i libucrtd:output.obj
 0001:00021a20       ??$extract_argument_from_va_list@E_J@?$standard_base@_WV?$stream_output_adapter@_W@__crt_stdio_output@@@__crt_stdio_output@@IEAA_NAEA_J@Z 0000000180022a20 f i libucrtd:output.obj
 0001:00021a60       ??$extract_argument_from_va_list@E_J@?$standard_base@_WV?$string_output_adapter@_W@__crt_stdio_output@@@__crt_stdio_output@@IEAA_NAEA_J@Z 0000000180022a60 f i libucrtd:output.obj
 0001:00021aa0       ??$extract_argument_from_va_list@F_J@?$positional_parameter_base@DV?$stream_output_adapter@D@__crt_stdio_output@@@__crt_stdio_output@@IEAA_NAEA_J@Z 0000000180022aa0 f i libucrtd:output.obj
 0001:00021c60       ??$extract_argument_from_va_list@F_J@?$positional_parameter_base@DV?$string_output_adapter@D@__crt_stdio_output@@@__crt_stdio_output@@IEAA_NAEA_J@Z 0000000180022c60 f i libucrtd:output.obj
 0001:00021e20       ??$extract_argument_from_va_list@F_J@?$positional_parameter_base@_WV?$stream_output_adapter@_W@__crt_stdio_output@@@__crt_stdio_output@@IEAA_NAEA_J@Z 0000000180022e20 f i libucrtd:output.obj
 0001:00021fe0       ??$extract_argument_from_va_list@F_J@?$positional_parameter_base@_WV?$string_output_adapter@_W@__crt_stdio_output@@@__crt_stdio_output@@IEAA_NAEA_J@Z 0000000180022fe0 f i libucrtd:output.obj
 0001:000221a0       ??$extract_argument_from_va_list@F_J@?$standard_base@DV?$stream_output_adapter@D@__crt_stdio_output@@@__crt_stdio_output@@IEAA_NAEA_J@Z 00000001800231a0 f i libucrtd:output.obj
 0001:000221e0       ??$extract_argument_from_va_list@F_J@?$standard_base@DV?$string_output_adapter@D@__crt_stdio_output@@@__crt_stdio_output@@IEAA_NAEA_J@Z 00000001800231e0 f i libucrtd:output.obj
 0001:00022220       ??$extract_argument_from_va_list@F_J@?$standard_base@_WV?$stream_output_adapter@_W@__crt_stdio_output@@@__crt_stdio_output@@IEAA_NAEA_J@Z 0000000180023220 f i libucrtd:output.obj
 0001:00022260       ??$extract_argument_from_va_list@F_J@?$standard_base@_WV?$string_output_adapter@_W@__crt_stdio_output@@@__crt_stdio_output@@IEAA_NAEA_J@Z 0000000180023260 f i libucrtd:output.obj
 0001:000222a0       ??$extract_argument_from_va_list@GD@?$positional_parameter_base@DV?$stream_output_adapter@D@__crt_stdio_output@@@__crt_stdio_output@@IEAA_NAEAD@Z 00000001800232a0 f i libucrtd:output.obj
 0001:00022460       ??$extract_argument_from_va_list@GD@?$positional_parameter_base@DV?$string_output_adapter@D@__crt_stdio_output@@@__crt_stdio_output@@IEAA_NAEAD@Z 0000000180023460 f i libucrtd:output.obj
 0001:00022620       ??$extract_argument_from_va_list@GD@?$standard_base@DV?$stream_output_adapter@D@__crt_stdio_output@@@__crt_stdio_output@@IEAA_NAEAD@Z 0000000180023620 f i libucrtd:output.obj
 0001:00022650       ??$extract_argument_from_va_list@GD@?$standard_base@DV?$string_output_adapter@D@__crt_stdio_output@@@__crt_stdio_output@@IEAA_NAEAD@Z 0000000180023650 f i libucrtd:output.obj
 0001:00022680       ??$extract_argument_from_va_list@G_J@?$positional_parameter_base@DV?$stream_output_adapter@D@__crt_stdio_output@@@__crt_stdio_output@@IEAA_NAEA_J@Z 0000000180023680 f i libucrtd:output.obj
 0001:00022840       ??$extract_argument_from_va_list@G_J@?$positional_parameter_base@DV?$string_output_adapter@D@__crt_stdio_output@@@__crt_stdio_output@@IEAA_NAEA_J@Z 0000000180023840 f i libucrtd:output.obj
 0001:00022a00       ??$extract_argument_from_va_list@G_J@?$positional_parameter_base@_WV?$stream_output_adapter@_W@__crt_stdio_output@@@__crt_stdio_output@@IEAA_NAEA_J@Z 0000000180023a00 f i libucrtd:output.obj
 0001:00022bc0       ??$extract_argument_from_va_list@G_J@?$positional_parameter_base@_WV?$string_output_adapter@_W@__crt_stdio_output@@@__crt_stdio_output@@IEAA_NAEA_J@Z 0000000180023bc0 f i libucrtd:output.obj
 0001:00022d80       ??$extract_argument_from_va_list@G_J@?$standard_base@DV?$stream_output_adapter@D@__crt_stdio_output@@@__crt_stdio_output@@IEAA_NAEA_J@Z 0000000180023d80 f i libucrtd:output.obj
 0001:00022dc0       ??$extract_argument_from_va_list@G_J@?$standard_base@DV?$string_output_adapter@D@__crt_stdio_output@@@__crt_stdio_output@@IEAA_NAEA_J@Z 0000000180023dc0 f i libucrtd:output.obj
 0001:00022e00       ??$extract_argument_from_va_list@G_J@?$standard_base@_WV?$stream_output_adapter@_W@__crt_stdio_output@@@__crt_stdio_output@@IEAA_NAEA_J@Z 0000000180023e00 f i libucrtd:output.obj
 0001:00022e40       ??$extract_argument_from_va_list@G_J@?$standard_base@_WV?$string_output_adapter@_W@__crt_stdio_output@@@__crt_stdio_output@@IEAA_NAEA_J@Z 0000000180023e40 f i libucrtd:output.obj
 0001:00022e80       ??$extract_argument_from_va_list@H_J@?$positional_parameter_base@DV?$stream_output_adapter@D@__crt_stdio_output@@@__crt_stdio_output@@IEAA_NAEA_J@Z 0000000180023e80 f i libucrtd:output.obj
 0001:00023040       ??$extract_argument_from_va_list@H_J@?$positional_parameter_base@DV?$string_output_adapter@D@__crt_stdio_output@@@__crt_stdio_output@@IEAA_NAEA_J@Z 0000000180024040 f i libucrtd:output.obj
 0001:00023200       ??$extract_argument_from_va_list@H_J@?$positional_parameter_base@_WV?$stream_output_adapter@_W@__crt_stdio_output@@@__crt_stdio_output@@IEAA_NAEA_J@Z 0000000180024200 f i libucrtd:output.obj
 0001:000233c0       ??$extract_argument_from_va_list@H_J@?$positional_parameter_base@_WV?$string_output_adapter@_W@__crt_stdio_output@@@__crt_stdio_output@@IEAA_NAEA_J@Z 00000001800243c0 f i libucrtd:output.obj
 0001:00023580       ??$extract_argument_from_va_list@H_J@?$standard_base@DV?$stream_output_adapter@D@__crt_stdio_output@@@__crt_stdio_output@@IEAA_NAEA_J@Z 0000000180024580 f i libucrtd:output.obj
 0001:000235b0       ??$extract_argument_from_va_list@H_J@?$standard_base@DV?$string_output_adapter@D@__crt_stdio_output@@@__crt_stdio_output@@IEAA_NAEA_J@Z 00000001800245b0 f i libucrtd:output.obj
 0001:000235e0       ??$extract_argument_from_va_list@H_J@?$standard_base@_WV?$stream_output_adapter@_W@__crt_stdio_output@@@__crt_stdio_output@@IEAA_NAEA_J@Z 00000001800245e0 f i libucrtd:output.obj
 0001:00023610       ??$extract_argument_from_va_list@H_J@?$standard_base@_WV?$string_output_adapter@_W@__crt_stdio_output@@@__crt_stdio_output@@IEAA_NAEA_J@Z 0000000180024610 f i libucrtd:output.obj
 0001:00023640       ??$extract_argument_from_va_list@I_J@?$positional_parameter_base@DV?$stream_output_adapter@D@__crt_stdio_output@@@__crt_stdio_output@@IEAA_NAEA_J@Z 0000000180024640 f i libucrtd:output.obj
 0001:00023800       ??$extract_argument_from_va_list@I_J@?$positional_parameter_base@DV?$string_output_adapter@D@__crt_stdio_output@@@__crt_stdio_output@@IEAA_NAEA_J@Z 0000000180024800 f i libucrtd:output.obj
 0001:000239c0       ??$extract_argument_from_va_list@I_J@?$positional_parameter_base@_WV?$stream_output_adapter@_W@__crt_stdio_output@@@__crt_stdio_output@@IEAA_NAEA_J@Z 00000001800249c0 f i libucrtd:output.obj
 0001:00023b80       ??$extract_argument_from_va_list@I_J@?$positional_parameter_base@_WV?$string_output_adapter@_W@__crt_stdio_output@@@__crt_stdio_output@@IEAA_NAEA_J@Z 0000000180024b80 f i libucrtd:output.obj
 0001:00023d40       ??$extract_argument_from_va_list@I_J@?$standard_base@DV?$stream_output_adapter@D@__crt_stdio_output@@@__crt_stdio_output@@IEAA_NAEA_J@Z 0000000180024d40 f i libucrtd:output.obj
 0001:00023d70       ??$extract_argument_from_va_list@I_J@?$standard_base@DV?$string_output_adapter@D@__crt_stdio_output@@@__crt_stdio_output@@IEAA_NAEA_J@Z 0000000180024d70 f i libucrtd:output.obj
 0001:00023da0       ??$extract_argument_from_va_list@I_J@?$standard_base@_WV?$stream_output_adapter@_W@__crt_stdio_output@@@__crt_stdio_output@@IEAA_NAEA_J@Z 0000000180024da0 f i libucrtd:output.obj
 0001:00023dd0       ??$extract_argument_from_va_list@I_J@?$standard_base@_WV?$string_output_adapter@_W@__crt_stdio_output@@@__crt_stdio_output@@IEAA_NAEA_J@Z 0000000180024dd0 f i libucrtd:output.obj
 0001:00023e00       ??$extract_argument_from_va_list@PEADPEAD@?$positional_parameter_base@DV?$stream_output_adapter@D@__crt_stdio_output@@@__crt_stdio_output@@IEAA_NAEAPEAD@Z 0000000180024e00 f i libucrtd:output.obj
 0001:00023fc0       ??$extract_argument_from_va_list@PEADPEAD@?$positional_parameter_base@DV?$string_output_adapter@D@__crt_stdio_output@@@__crt_stdio_output@@IEAA_NAEAPEAD@Z 0000000180024fc0 f i libucrtd:output.obj
 0001:00024180       ??$extract_argument_from_va_list@PEADPEAD@?$positional_parameter_base@_WV?$stream_output_adapter@_W@__crt_stdio_output@@@__crt_stdio_output@@IEAA_NAEAPEAD@Z 0000000180025180 f i libucrtd:output.obj
 0001:00024340       ??$extract_argument_from_va_list@PEADPEAD@?$positional_parameter_base@_WV?$string_output_adapter@_W@__crt_stdio_output@@@__crt_stdio_output@@IEAA_NAEAPEAD@Z 0000000180025340 f i libucrtd:output.obj
 0001:00024500       ??$extract_argument_from_va_list@PEADPEAD@?$standard_base@DV?$stream_output_adapter@D@__crt_stdio_output@@@__crt_stdio_output@@IEAA_NAEAPEAD@Z 0000000180025500 f i libucrtd:output.obj
 0001:00024530       ??$extract_argument_from_va_list@PEADPEAD@?$standard_base@DV?$string_output_adapter@D@__crt_stdio_output@@@__crt_stdio_output@@IEAA_NAEAPEAD@Z 0000000180025530 f i libucrtd:output.obj
 0001:00024560       ??$extract_argument_from_va_list@PEADPEAD@?$standard_base@_WV?$stream_output_adapter@_W@__crt_stdio_output@@@__crt_stdio_output@@IEAA_NAEAPEAD@Z 0000000180025560 f i libucrtd:output.obj
 0001:00024590       ??$extract_argument_from_va_list@PEADPEAD@?$standard_base@_WV?$string_output_adapter@_W@__crt_stdio_output@@@__crt_stdio_output@@IEAA_NAEAPEAD@Z 0000000180025590 f i libucrtd:output.obj
 0001:000245c0       ??$extract_argument_from_va_list@PEAUansi_string@?1??type_case_Z@?$output_processor@DV?$stream_output_adapter@D@__crt_stdio_output@@V?$format_validation_base@DV?$stream_output_adapter@D@__crt_stdio_output@@@2@@__crt_stdio_output@@AEAA_NXZ@PEAU1?1??234@AEAA_NXZ@@?$standard_base@DV?$stream_output_adapter@D@__crt_stdio_output@@@__crt_stdio_output@@IEAA_NAEAPEAUansi_string@?1??type_case_Z@?$output_processor@DV?$stream_output_adapter@D@__crt_stdio_output@@V?$format_validation_base@DV?$stream_output_adapter@D@__crt_stdio_output@@@2@@1@AEAA_NXZ@@Z 00000001800255c0 f i libucrtd:output.obj
 0001:000245f0       ??$extract_argument_from_va_list@PEAUansi_string@?1??type_case_Z@?$output_processor@DV?$stream_output_adapter@D@__crt_stdio_output@@V?$positional_parameter_base@DV?$stream_output_adapter@D@__crt_stdio_output@@@2@@__crt_stdio_output@@AEAA_NXZ@PEAU1?1??234@AEAA_NXZ@@?$positional_parameter_base@DV?$stream_output_adapter@D@__crt_stdio_output@@@__crt_stdio_output@@IEAA_NAEAPEAUansi_string@?1??type_case_Z@?$output_processor@DV?$stream_output_adapter@D@__crt_stdio_output@@V?$positional_parameter_base@DV?$stream_output_adapter@D@__crt_stdio_output@@@2@@1@AEAA_NXZ@@Z 00000001800255f0 f i libucrtd:output.obj
 0001:000247b0       ??$extract_argument_from_va_list@PEAUansi_string@?1??type_case_Z@?$output_processor@DV?$stream_output_adapter@D@__crt_stdio_output@@V?$positional_parameter_base@DV?$stream_output_adapter@D@__crt_stdio_output@@@2@@__crt_stdio_output@@AEAA_NXZ@PEAU1?1??234@AEAA_NXZ@@?$standard_base@DV?$stream_output_adapter@D@__crt_stdio_output@@@__crt_stdio_output@@IEAA_NAEAPEAUansi_string@?1??type_case_Z@?$output_processor@DV?$stream_output_adapter@D@__crt_stdio_output@@V?$positional_parameter_base@DV?$stream_output_adapter@D@__crt_stdio_output@@@2@@1@AEAA_NXZ@@Z 00000001800257b0 f i libucrtd:output.obj
 0001:000247e0       ??$extract_argument_from_va_list@PEAUansi_string@?1??type_case_Z@?$output_processor@DV?$stream_output_adapter@D@__crt_stdio_output@@V?$standard_base@DV?$stream_output_adapter@D@__crt_stdio_output@@@2@@__crt_stdio_output@@AEAA_NXZ@PEAU1?1??234@AEAA_NXZ@@?$standard_base@DV?$stream_output_adapter@D@__crt_stdio_output@@@__crt_stdio_output@@IEAA_NAEAPEAUansi_string@?1??type_case_Z@?$output_processor@DV?$stream_output_adapter@D@__crt_stdio_output@@V?$standard_base@DV?$stream_output_adapter@D@__crt_stdio_output@@@2@@1@AEAA_NXZ@@Z 00000001800257e0 f i libucrtd:output.obj
 0001:00024810       ??$extract_argument_from_va_list@PEAUansi_string@?1??type_case_Z@?$output_processor@DV?$string_output_adapter@D@__crt_stdio_output@@V?$format_validation_base@DV?$string_output_adapter@D@__crt_stdio_output@@@2@@__crt_stdio_output@@AEAA_NXZ@PEAU1?1??234@AEAA_NXZ@@?$standard_base@DV?$string_output_adapter@D@__crt_stdio_output@@@__crt_stdio_output@@IEAA_NAEAPEAUansi_string@?1??type_case_Z@?$output_processor@DV?$string_output_adapter@D@__crt_stdio_output@@V?$format_validation_base@DV?$string_output_adapter@D@__crt_stdio_output@@@2@@1@AEAA_NXZ@@Z 0000000180025810 f i libucrtd:output.obj
 0001:00024840       ??$extract_argument_from_va_list@PEAUansi_string@?1??type_case_Z@?$output_processor@DV?$string_output_adapter@D@__crt_stdio_output@@V?$positional_parameter_base@DV?$string_output_adapter@D@__crt_stdio_output@@@2@@__crt_stdio_output@@AEAA_NXZ@PEAU1?1??234@AEAA_NXZ@@?$positional_parameter_base@DV?$string_output_adapter@D@__crt_stdio_output@@@__crt_stdio_output@@IEAA_NAEAPEAUansi_string@?1??type_case_Z@?$output_processor@DV?$string_output_adapter@D@__crt_stdio_output@@V?$positional_parameter_base@DV?$string_output_adapter@D@__crt_stdio_output@@@2@@1@AEAA_NXZ@@Z 0000000180025840 f i libucrtd:output.obj
 0001:00024a00       ??$extract_argument_from_va_list@PEAUansi_string@?1??type_case_Z@?$output_processor@DV?$string_output_adapter@D@__crt_stdio_output@@V?$positional_parameter_base@DV?$string_output_adapter@D@__crt_stdio_output@@@2@@__crt_stdio_output@@AEAA_NXZ@PEAU1?1??234@AEAA_NXZ@@?$standard_base@DV?$string_output_adapter@D@__crt_stdio_output@@@__crt_stdio_output@@IEAA_NAEAPEAUansi_string@?1??type_case_Z@?$output_processor@DV?$string_output_adapter@D@__crt_stdio_output@@V?$positional_parameter_base@DV?$string_output_adapter@D@__crt_stdio_output@@@2@@1@AEAA_NXZ@@Z 0000000180025a00 f i libucrtd:output.obj
 0001:00024a30       ??$extract_argument_from_va_list@PEAUansi_string@?1??type_case_Z@?$output_processor@DV?$string_output_adapter@D@__crt_stdio_output@@V?$standard_base@DV?$string_output_adapter@D@__crt_stdio_output@@@2@@__crt_stdio_output@@AEAA_NXZ@PEAU1?1??234@AEAA_NXZ@@?$standard_base@DV?$string_output_adapter@D@__crt_stdio_output@@@__crt_stdio_output@@IEAA_NAEAPEAUansi_string@?1??type_case_Z@?$output_processor@DV?$string_output_adapter@D@__crt_stdio_output@@V?$standard_base@DV?$string_output_adapter@D@__crt_stdio_output@@@2@@1@AEAA_NXZ@@Z 0000000180025a30 f i libucrtd:output.obj
 0001:00024a60       ??$extract_argument_from_va_list@PEAUansi_string@?1??type_case_Z@?$output_processor@_WV?$stream_output_adapter@_W@__crt_stdio_output@@V?$format_validation_base@_WV?$stream_output_adapter@_W@__crt_stdio_output@@@2@@__crt_stdio_output@@AEAA_NXZ@PEAU1?1??234@AEAA_NXZ@@?$standard_base@_WV?$stream_output_adapter@_W@__crt_stdio_output@@@__crt_stdio_output@@IEAA_NAEAPEAUansi_string@?1??type_case_Z@?$output_processor@_WV?$stream_output_adapter@_W@__crt_stdio_output@@V?$format_validation_base@_WV?$stream_output_adapter@_W@__crt_stdio_output@@@2@@1@AEAA_NXZ@@Z 0000000180025a60 f i libucrtd:output.obj
 0001:00024a90       ??$extract_argument_from_va_list@PEAUansi_string@?1??type_case_Z@?$output_processor@_WV?$stream_output_adapter@_W@__crt_stdio_output@@V?$positional_parameter_base@_WV?$stream_output_adapter@_W@__crt_stdio_output@@@2@@__crt_stdio_output@@AEAA_NXZ@PEAU1?1??234@AEAA_NXZ@@?$positional_parameter_base@_WV?$stream_output_adapter@_W@__crt_stdio_output@@@__crt_stdio_output@@IEAA_NAEAPEAUansi_string@?1??type_case_Z@?$output_processor@_WV?$stream_output_adapter@_W@__crt_stdio_output@@V?$positional_parameter_base@_WV?$stream_output_adapter@_W@__crt_stdio_output@@@2@@1@AEAA_NXZ@@Z 0000000180025a90 f i libucrtd:output.obj
 0001:00024c50       ??$extract_argument_from_va_list@PEAUansi_string@?1??type_case_Z@?$output_processor@_WV?$stream_output_adapter@_W@__crt_stdio_output@@V?$positional_parameter_base@_WV?$stream_output_adapter@_W@__crt_stdio_output@@@2@@__crt_stdio_output@@AEAA_NXZ@PEAU1?1??234@AEAA_NXZ@@?$standard_base@_WV?$stream_output_adapter@_W@__crt_stdio_output@@@__crt_stdio_output@@IEAA_NAEAPEAUansi_string@?1??type_case_Z@?$output_processor@_WV?$stream_output_adapter@_W@__crt_stdio_output@@V?$positional_parameter_base@_WV?$stream_output_adapter@_W@__crt_stdio_output@@@2@@1@AEAA_NXZ@@Z 0000000180025c50 f i libucrtd:output.obj
 0001:00024c80       ??$extract_argument_from_va_list@PEAUansi_string@?1??type_case_Z@?$output_processor@_WV?$stream_output_adapter@_W@__crt_stdio_output@@V?$standard_base@_WV?$stream_output_adapter@_W@__crt_stdio_output@@@2@@__crt_stdio_output@@AEAA_NXZ@PEAU1?1??234@AEAA_NXZ@@?$standard_base@_WV?$stream_output_adapter@_W@__crt_stdio_output@@@__crt_stdio_output@@IEAA_NAEAPEAUansi_string@?1??type_case_Z@?$output_processor@_WV?$stream_output_adapter@_W@__crt_stdio_output@@V?$standard_base@_WV?$stream_output_adapter@_W@__crt_stdio_output@@@2@@1@AEAA_NXZ@@Z 0000000180025c80 f i libucrtd:output.obj
 0001:00024cb0       ??$extract_argument_from_va_list@PEAUansi_string@?1??type_case_Z@?$output_processor@_WV?$string_output_adapter@_W@__crt_stdio_output@@V?$format_validation_base@_WV?$string_output_adapter@_W@__crt_stdio_output@@@2@@__crt_stdio_output@@AEAA_NXZ@PEAU1?1??234@AEAA_NXZ@@?$standard_base@_WV?$string_output_adapter@_W@__crt_stdio_output@@@__crt_stdio_output@@IEAA_NAEAPEAUansi_string@?1??type_case_Z@?$output_processor@_WV?$string_output_adapter@_W@__crt_stdio_output@@V?$format_validation_base@_WV?$string_output_adapter@_W@__crt_stdio_output@@@2@@1@AEAA_NXZ@@Z 0000000180025cb0 f i libucrtd:output.obj
 0001:00024ce0       ??$extract_argument_from_va_list@PEAUansi_string@?1??type_case_Z@?$output_processor@_WV?$string_output_adapter@_W@__crt_stdio_output@@V?$positional_parameter_base@_WV?$string_output_adapter@_W@__crt_stdio_output@@@2@@__crt_stdio_output@@AEAA_NXZ@PEAU1?1??234@AEAA_NXZ@@?$positional_parameter_base@_WV?$string_output_adapter@_W@__crt_stdio_output@@@__crt_stdio_output@@IEAA_NAEAPEAUansi_string@?1??type_case_Z@?$output_processor@_WV?$string_output_adapter@_W@__crt_stdio_output@@V?$positional_parameter_base@_WV?$string_output_adapter@_W@__crt_stdio_output@@@2@@1@AEAA_NXZ@@Z 0000000180025ce0 f i libucrtd:output.obj
 0001:00024ea0       ??$extract_argument_from_va_list@PEAUansi_string@?1??type_case_Z@?$output_processor@_WV?$string_output_adapter@_W@__crt_stdio_output@@V?$positional_parameter_base@_WV?$string_output_adapter@_W@__crt_stdio_output@@@2@@__crt_stdio_output@@AEAA_NXZ@PEAU1?1??234@AEAA_NXZ@@?$standard_base@_WV?$string_output_adapter@_W@__crt_stdio_output@@@__crt_stdio_output@@IEAA_NAEAPEAUansi_string@?1??type_case_Z@?$output_processor@_WV?$string_output_adapter@_W@__crt_stdio_output@@V?$positional_parameter_base@_WV?$string_output_adapter@_W@__crt_stdio_output@@@2@@1@AEAA_NXZ@@Z 0000000180025ea0 f i libucrtd:output.obj
 0001:00024ed0       ??$extract_argument_from_va_list@PEAUansi_string@?1??type_case_Z@?$output_processor@_WV?$string_output_adapter@_W@__crt_stdio_output@@V?$standard_base@_WV?$string_output_adapter@_W@__crt_stdio_output@@@2@@__crt_stdio_output@@AEAA_NXZ@PEAU1?1??234@AEAA_NXZ@@?$standard_base@_WV?$string_output_adapter@_W@__crt_stdio_output@@@__crt_stdio_output@@IEAA_NAEAPEAUansi_string@?1??type_case_Z@?$output_processor@_WV?$string_output_adapter@_W@__crt_stdio_output@@V?$standard_base@_WV?$string_output_adapter@_W@__crt_stdio_output@@@2@@1@AEAA_NXZ@@Z 0000000180025ed0 f i libucrtd:output.obj
 0001:00024f00       ??$extract_argument_from_va_list@PEAXPEAX@?$positional_parameter_base@DV?$stream_output_adapter@D@__crt_stdio_output@@@__crt_stdio_output@@IEAA_NAEAPEAX@Z 0000000180025f00 f i libucrtd:output.obj
 0001:000250c0       ??$extract_argument_from_va_list@PEAXPEAX@?$positional_parameter_base@DV?$string_output_adapter@D@__crt_stdio_output@@@__crt_stdio_output@@IEAA_NAEAPEAX@Z 00000001800260c0 f i libucrtd:output.obj
 0001:00025280       ??$extract_argument_from_va_list@PEAXPEAX@?$positional_parameter_base@_WV?$stream_output_adapter@_W@__crt_stdio_output@@@__crt_stdio_output@@IEAA_NAEAPEAX@Z 0000000180026280 f i libucrtd:output.obj
 0001:00025440       ??$extract_argument_from_va_list@PEAXPEAX@?$positional_parameter_base@_WV?$string_output_adapter@_W@__crt_stdio_output@@@__crt_stdio_output@@IEAA_NAEAPEAX@Z 0000000180026440 f i libucrtd:output.obj
 0001:00025600       ??$extract_argument_from_va_list@PEAXPEAX@?$standard_base@DV?$stream_output_adapter@D@__crt_stdio_output@@@__crt_stdio_output@@IEAA_NAEAPEAX@Z 0000000180026600 f i libucrtd:output.obj
 0001:00025630       ??$extract_argument_from_va_list@PEAXPEAX@?$standard_base@DV?$string_output_adapter@D@__crt_stdio_output@@@__crt_stdio_output@@IEAA_NAEAPEAX@Z 0000000180026630 f i libucrtd:output.obj
 0001:00025660       ??$extract_argument_from_va_list@PEAXPEAX@?$standard_base@_WV?$stream_output_adapter@_W@__crt_stdio_output@@@__crt_stdio_output@@IEAA_NAEAPEAX@Z 0000000180026660 f i libucrtd:output.obj
 0001:00025690       ??$extract_argument_from_va_list@PEAXPEAX@?$standard_base@_WV?$string_output_adapter@_W@__crt_stdio_output@@@__crt_stdio_output@@IEAA_NAEAPEAX@Z 0000000180026690 f i libucrtd:output.obj
 0001:000256c0       ??$extract_argument_from_va_list@U_CRT_DOUBLE@@U1@@?$positional_parameter_base@DV?$stream_output_adapter@D@__crt_stdio_output@@@__crt_stdio_output@@IEAA_NAEAU_CRT_DOUBLE@@@Z 00000001800266c0 f i libucrtd:output.obj
 0001:000258e0       ??$extract_argument_from_va_list@U_CRT_DOUBLE@@U1@@?$positional_parameter_base@DV?$string_output_adapter@D@__crt_stdio_output@@@__crt_stdio_output@@IEAA_NAEAU_CRT_DOUBLE@@@Z 00000001800268e0 f i libucrtd:output.obj
 0001:00025b00       ??$extract_argument_from_va_list@U_CRT_DOUBLE@@U1@@?$positional_parameter_base@_WV?$stream_output_adapter@_W@__crt_stdio_output@@@__crt_stdio_output@@IEAA_NAEAU_CRT_DOUBLE@@@Z 0000000180026b00 f i libucrtd:output.obj
 0001:00025d20       ??$extract_argument_from_va_list@U_CRT_DOUBLE@@U1@@?$positional_parameter_base@_WV?$string_output_adapter@_W@__crt_stdio_output@@@__crt_stdio_output@@IEAA_NAEAU_CRT_DOUBLE@@@Z 0000000180026d20 f i libucrtd:output.obj
 0001:00025f40       ??$extract_argument_from_va_list@U_CRT_DOUBLE@@U1@@?$standard_base@DV?$stream_output_adapter@D@__crt_stdio_output@@@__crt_stdio_output@@IEAA_NAEAU_CRT_DOUBLE@@@Z 0000000180026f40 f i libucrtd:output.obj
 0001:00025f90       ??$extract_argument_from_va_list@U_CRT_DOUBLE@@U1@@?$standard_base@DV?$string_output_adapter@D@__crt_stdio_output@@@__crt_stdio_output@@IEAA_NAEAU_CRT_DOUBLE@@@Z 0000000180026f90 f i libucrtd:output.obj
 0001:00025fe0       ??$extract_argument_from_va_list@U_CRT_DOUBLE@@U1@@?$standard_base@_WV?$stream_output_adapter@_W@__crt_stdio_output@@@__crt_stdio_output@@IEAA_NAEAU_CRT_DOUBLE@@@Z 0000000180026fe0 f i libucrtd:output.obj
 0001:00026030       ??$extract_argument_from_va_list@U_CRT_DOUBLE@@U1@@?$standard_base@_WV?$string_output_adapter@_W@__crt_stdio_output@@@__crt_stdio_output@@IEAA_NAEAU_CRT_DOUBLE@@@Z 0000000180027030 f i libucrtd:output.obj
 0001:00026080       ??$extract_argument_from_va_list@_J_J@?$positional_parameter_base@DV?$stream_output_adapter@D@__crt_stdio_output@@@__crt_stdio_output@@IEAA_NAEA_J@Z 0000000180027080 f i libucrtd:output.obj
 0001:00026240       ??$extract_argument_from_va_list@_J_J@?$positional_parameter_base@DV?$string_output_adapter@D@__crt_stdio_output@@@__crt_stdio_output@@IEAA_NAEA_J@Z 0000000180027240 f i libucrtd:output.obj
 0001:00026400       ??$extract_argument_from_va_list@_J_J@?$positional_parameter_base@_WV?$stream_output_adapter@_W@__crt_stdio_output@@@__crt_stdio_output@@IEAA_NAEA_J@Z 0000000180027400 f i libucrtd:output.obj
 0001:000265c0       ??$extract_argument_from_va_list@_J_J@?$positional_parameter_base@_WV?$string_output_adapter@_W@__crt_stdio_output@@@__crt_stdio_output@@IEAA_NAEA_J@Z 00000001800275c0 f i libucrtd:output.obj
 0001:00026780       ??$extract_argument_from_va_list@_J_J@?$standard_base@DV?$stream_output_adapter@D@__crt_stdio_output@@@__crt_stdio_output@@IEAA_NAEA_J@Z 0000000180027780 f i libucrtd:output.obj
 0001:000267b0       ??$extract_argument_from_va_list@_J_J@?$standard_base@DV?$string_output_adapter@D@__crt_stdio_output@@@__crt_stdio_output@@IEAA_NAEA_J@Z 00000001800277b0 f i libucrtd:output.obj
 0001:000267e0       ??$extract_argument_from_va_list@_J_J@?$standard_base@_WV?$stream_output_adapter@_W@__crt_stdio_output@@@__crt_stdio_output@@IEAA_NAEA_J@Z 00000001800277e0 f i libucrtd:output.obj
 0001:00026810       ??$extract_argument_from_va_list@_J_J@?$standard_base@_WV?$string_output_adapter@_W@__crt_stdio_output@@@__crt_stdio_output@@IEAA_NAEA_J@Z 0000000180027810 f i libucrtd:output.obj
 0001:00026840       ??$extract_argument_from_va_list@_K_J@?$positional_parameter_base@DV?$stream_output_adapter@D@__crt_stdio_output@@@__crt_stdio_output@@IEAA_NAEA_J@Z 0000000180027840 f i libucrtd:output.obj
 0001:00026a00       ??$extract_argument_from_va_list@_K_J@?$positional_parameter_base@DV?$string_output_adapter@D@__crt_stdio_output@@@__crt_stdio_output@@IEAA_NAEA_J@Z 0000000180027a00 f i libucrtd:output.obj
 0001:00026bc0       ??$extract_argument_from_va_list@_K_J@?$positional_parameter_base@_WV?$stream_output_adapter@_W@__crt_stdio_output@@@__crt_stdio_output@@IEAA_NAEA_J@Z 0000000180027bc0 f i libucrtd:output.obj
 0001:00026d80       ??$extract_argument_from_va_list@_K_J@?$positional_parameter_base@_WV?$string_output_adapter@_W@__crt_stdio_output@@@__crt_stdio_output@@IEAA_NAEA_J@Z 0000000180027d80 f i libucrtd:output.obj
 0001:00026f40       ??$extract_argument_from_va_list@_K_J@?$standard_base@DV?$stream_output_adapter@D@__crt_stdio_output@@@__crt_stdio_output@@IEAA_NAEA_J@Z 0000000180027f40 f i libucrtd:output.obj
 0001:00026f70       ??$extract_argument_from_va_list@_K_J@?$standard_base@DV?$string_output_adapter@D@__crt_stdio_output@@@__crt_stdio_output@@IEAA_NAEA_J@Z 0000000180027f70 f i libucrtd:output.obj
 0001:00026fa0       ??$extract_argument_from_va_list@_K_J@?$standard_base@_WV?$stream_output_adapter@_W@__crt_stdio_output@@@__crt_stdio_output@@IEAA_NAEA_J@Z 0000000180027fa0 f i libucrtd:output.obj
 0001:00026fd0       ??$extract_argument_from_va_list@_K_J@?$standard_base@_WV?$string_output_adapter@_W@__crt_stdio_output@@@__crt_stdio_output@@IEAA_NAEA_J@Z 0000000180027fd0 f i libucrtd:output.obj
 0001:00027000       ??$extract_argument_from_va_list@_W_W@?$positional_parameter_base@DV?$stream_output_adapter@D@__crt_stdio_output@@@__crt_stdio_output@@IEAA_NAEA_W@Z 0000000180028000 f i libucrtd:output.obj
 0001:000271c0       ??$extract_argument_from_va_list@_W_W@?$positional_parameter_base@DV?$string_output_adapter@D@__crt_stdio_output@@@__crt_stdio_output@@IEAA_NAEA_W@Z 00000001800281c0 f i libucrtd:output.obj
 0001:00027380       ??$extract_argument_from_va_list@_W_W@?$positional_parameter_base@_WV?$stream_output_adapter@_W@__crt_stdio_output@@@__crt_stdio_output@@IEAA_NAEA_W@Z 0000000180028380 f i libucrtd:output.obj
 0001:00027540       ??$extract_argument_from_va_list@_W_W@?$positional_parameter_base@_WV?$string_output_adapter@_W@__crt_stdio_output@@@__crt_stdio_output@@IEAA_NAEA_W@Z 0000000180028540 f i libucrtd:output.obj
 0001:00027700       ??$extract_argument_from_va_list@_W_W@?$standard_base@DV?$stream_output_adapter@D@__crt_stdio_output@@@__crt_stdio_output@@IEAA_NAEA_W@Z 0000000180028700 f i libucrtd:output.obj
 0001:00027730       ??$extract_argument_from_va_list@_W_W@?$standard_base@DV?$string_output_adapter@D@__crt_stdio_output@@@__crt_stdio_output@@IEAA_NAEA_W@Z 0000000180028730 f i libucrtd:output.obj
 0001:00027760       ??$extract_argument_from_va_list@_W_W@?$standard_base@_WV?$stream_output_adapter@_W@__crt_stdio_output@@@__crt_stdio_output@@IEAA_NAEA_W@Z 0000000180028760 f i libucrtd:output.obj
 0001:00027790       ??$extract_argument_from_va_list@_W_W@?$standard_base@_WV?$string_output_adapter@_W@__crt_stdio_output@@@__crt_stdio_output@@IEAA_NAEA_W@Z 0000000180028790 f i libucrtd:output.obj
 0001:000277c0       ??$get_parameter_type@D@?$positional_parameter_base@DV?$stream_output_adapter@D@__crt_stdio_output@@@__crt_stdio_output@@CA?AW4parameter_type@01@PEAD@Z 00000001800287c0 f i libucrtd:output.obj
 0001:000277d0       ??$get_parameter_type@D@?$positional_parameter_base@DV?$string_output_adapter@D@__crt_stdio_output@@@__crt_stdio_output@@CA?AW4parameter_type@01@PEAD@Z 00000001800287d0 f i libucrtd:output.obj
 0001:000277e0       ??$get_parameter_type@D@?$positional_parameter_base@_WV?$stream_output_adapter@_W@__crt_stdio_output@@@__crt_stdio_output@@CA?AW4parameter_type@01@PEAD@Z 00000001800287e0 f i libucrtd:output.obj
 0001:000277f0       ??$get_parameter_type@D@?$positional_parameter_base@_WV?$string_output_adapter@_W@__crt_stdio_output@@@__crt_stdio_output@@CA?AW4parameter_type@01@PEAD@Z 00000001800287f0 f i libucrtd:output.obj
 0001:00027800       ??$get_parameter_type@Uansi_string@?1??type_case_Z@?$output_processor@DV?$stream_output_adapter@D@__crt_stdio_output@@V?$positional_parameter_base@DV?$stream_output_adapter@D@__crt_stdio_output@@@2@@__crt_stdio_output@@AEAA_NXZ@@?$positional_parameter_base@DV?$stream_output_adapter@D@__crt_stdio_output@@@__crt_stdio_output@@CA?AW4parameter_type@01@PEAUansi_string@?1??type_case_Z@?$output_processor@DV?$stream_output_adapter@D@__crt_stdio_output@@V?$positional_parameter_base@DV?$stream_output_adapter@D@__crt_stdio_output@@@2@@1@AEAA_NXZ@@Z 0000000180028800 f i libucrtd:output.obj
 0001:00027810       ??$get_parameter_type@Uansi_string@?1??type_case_Z@?$output_processor@DV?$string_output_adapter@D@__crt_stdio_output@@V?$positional_parameter_base@DV?$string_output_adapter@D@__crt_stdio_output@@@2@@__crt_stdio_output@@AEAA_NXZ@@?$positional_parameter_base@DV?$string_output_adapter@D@__crt_stdio_output@@@__crt_stdio_output@@CA?AW4parameter_type@01@PEAUansi_string@?1??type_case_Z@?$output_processor@DV?$string_output_adapter@D@__crt_stdio_output@@V?$positional_parameter_base@DV?$string_output_adapter@D@__crt_stdio_output@@@2@@1@AEAA_NXZ@@Z 0000000180028810 f i libucrtd:output.obj
 0001:00027820       ??$get_parameter_type@Uansi_string@?1??type_case_Z@?$output_processor@_WV?$stream_output_adapter@_W@__crt_stdio_output@@V?$positional_parameter_base@_WV?$stream_output_adapter@_W@__crt_stdio_output@@@2@@__crt_stdio_output@@AEAA_NXZ@@?$positional_parameter_base@_WV?$stream_output_adapter@_W@__crt_stdio_output@@@__crt_stdio_output@@CA?AW4parameter_type@01@PEAUansi_string@?1??type_case_Z@?$output_processor@_WV?$stream_output_adapter@_W@__crt_stdio_output@@V?$positional_parameter_base@_WV?$stream_output_adapter@_W@__crt_stdio_output@@@2@@1@AEAA_NXZ@@Z 0000000180028820 f i libucrtd:output.obj
 0001:00027830       ??$get_parameter_type@Uansi_string@?1??type_case_Z@?$output_processor@_WV?$string_output_adapter@_W@__crt_stdio_output@@V?$positional_parameter_base@_WV?$string_output_adapter@_W@__crt_stdio_output@@@2@@__crt_stdio_output@@AEAA_NXZ@@?$positional_parameter_base@_WV?$string_output_adapter@_W@__crt_stdio_output@@@__crt_stdio_output@@CA?AW4parameter_type@01@PEAUansi_string@?1??type_case_Z@?$output_processor@_WV?$string_output_adapter@_W@__crt_stdio_output@@V?$positional_parameter_base@_WV?$string_output_adapter@_W@__crt_stdio_output@@@2@@1@AEAA_NXZ@@Z 0000000180028830 f i libucrtd:output.obj
 0001:00027840       ??$get_parameter_type@X@?$positional_parameter_base@DV?$stream_output_adapter@D@__crt_stdio_output@@@__crt_stdio_output@@CA?AW4parameter_type@01@PEAX@Z 0000000180028840 f i libucrtd:output.obj
 0001:00027850       ??$get_parameter_type@X@?$positional_parameter_base@DV?$string_output_adapter@D@__crt_stdio_output@@@__crt_stdio_output@@CA?AW4parameter_type@01@PEAX@Z 0000000180028850 f i libucrtd:output.obj
 0001:00027860       ??$get_parameter_type@X@?$positional_parameter_base@_WV?$stream_output_adapter@_W@__crt_stdio_output@@@__crt_stdio_output@@CA?AW4parameter_type@01@PEAX@Z 0000000180028860 f i libucrtd:output.obj
 0001:00027870       ??$get_parameter_type@X@?$positional_parameter_base@_WV?$string_output_adapter@_W@__crt_stdio_output@@@__crt_stdio_output@@CA?AW4parameter_type@01@PEAX@Z 0000000180028870 f i libucrtd:output.obj
 0001:00027880       ??$is_character_specifier@D@?$positional_parameter_base@DV?$stream_output_adapter@D@__crt_stdio_output@@@__crt_stdio_output@@CA_ND@Z 0000000180028880 f i libucrtd:output.obj
 0001:000278c0       ??$is_character_specifier@D@?$positional_parameter_base@DV?$string_output_adapter@D@__crt_stdio_output@@@__crt_stdio_output@@CA_ND@Z 00000001800288c0 f i libucrtd:output.obj
 0001:00027900       ??$is_character_specifier@_W@?$positional_parameter_base@_WV?$stream_output_adapter@_W@__crt_stdio_output@@@__crt_stdio_output@@CA_N_W@Z 0000000180028900 f i libucrtd:output.obj
 0001:00027940       ??$is_character_specifier@_W@?$positional_parameter_base@_WV?$string_output_adapter@_W@__crt_stdio_output@@@__crt_stdio_output@@CA_N_W@Z 0000000180028940 f i libucrtd:output.obj
 0001:00027980       ??$is_integral_specifier@D@?$positional_parameter_base@DV?$stream_output_adapter@D@__crt_stdio_output@@@__crt_stdio_output@@CA_ND@Z 0000000180028980 f i libucrtd:output.obj
 0001:000279f0       ??$is_integral_specifier@D@?$positional_parameter_base@DV?$string_output_adapter@D@__crt_stdio_output@@@__crt_stdio_output@@CA_ND@Z 00000001800289f0 f i libucrtd:output.obj
 0001:00027a60       ??$is_integral_specifier@_W@?$positional_parameter_base@_WV?$stream_output_adapter@_W@__crt_stdio_output@@@__crt_stdio_output@@CA_N_W@Z 0000000180028a60 f i libucrtd:output.obj
 0001:00027ad0       ??$is_integral_specifier@_W@?$positional_parameter_base@_WV?$string_output_adapter@_W@__crt_stdio_output@@@__crt_stdio_output@@CA_N_W@Z 0000000180028ad0 f i libucrtd:output.obj
 0001:00027b40       ??$is_overflow_condition@K@__crt_strtox@@YA_NIK@Z 0000000180028b40 f i libucrtd:output.obj
 0001:00027bb0       ??$is_pointer_specifier@D@?$positional_parameter_base@DV?$stream_output_adapter@D@__crt_stdio_output@@@__crt_stdio_output@@CA_ND@Z 0000000180028bb0 f i libucrtd:output.obj
 0001:00027be0       ??$is_pointer_specifier@D@?$positional_parameter_base@DV?$string_output_adapter@D@__crt_stdio_output@@@__crt_stdio_output@@CA_ND@Z 0000000180028be0 f i libucrtd:output.obj
 0001:00027c10       ??$is_pointer_specifier@_W@?$positional_parameter_base@_WV?$stream_output_adapter@_W@__crt_stdio_output@@@__crt_stdio_output@@CA_N_W@Z 0000000180028c10 f i libucrtd:output.obj
 0001:00027c40       ??$is_pointer_specifier@_W@?$positional_parameter_base@_WV?$string_output_adapter@_W@__crt_stdio_output@@@__crt_stdio_output@@CA_N_W@Z 0000000180028c40 f i libucrtd:output.obj
 0001:00027c70       ??$is_string_specifier@D@?$positional_parameter_base@DV?$stream_output_adapter@D@__crt_stdio_output@@@__crt_stdio_output@@CA_ND@Z 0000000180028c70 f i libucrtd:output.obj
 0001:00027cb0       ??$is_string_specifier@D@?$positional_parameter_base@DV?$string_output_adapter@D@__crt_stdio_output@@@__crt_stdio_output@@CA_ND@Z 0000000180028cb0 f i libucrtd:output.obj
 0001:00027cf0       ??$is_string_specifier@_W@?$positional_parameter_base@_WV?$stream_output_adapter@_W@__crt_stdio_output@@@__crt_stdio_output@@CA_N_W@Z 0000000180028cf0 f i libucrtd:output.obj
 0001:00027d30       ??$is_string_specifier@_W@?$positional_parameter_base@_WV?$string_output_adapter@_W@__crt_stdio_output@@@__crt_stdio_output@@CA_N_W@Z 0000000180028d30 f i libucrtd:output.obj
 0001:00027d70       ??$is_wide_character_specifier@D@__crt_stdio_output@@YA_N_KDW4length_modifier@0@@Z 0000000180028d70 f i libucrtd:output.obj
 0001:00027e10       ??$is_wide_character_specifier@_W@__crt_stdio_output@@YA_N_K_WW4length_modifier@0@@Z 0000000180028e10 f i libucrtd:output.obj
 0001:00027ee0       ??$make_c_string_character_source@DPEAPEAD@__crt_strtox@@YA?AV?$c_string_character_source@D@0@QEBDQEAPEAD@Z 0000000180028ee0 f i libucrtd:output.obj
 0001:00027f20       ??$make_c_string_character_source@_WPEAPEA_W@__crt_strtox@@YA?AV?$c_string_character_source@_W@0@QEB_WQEAPEA_W@Z 0000000180028f20 f i libucrtd:output.obj
 0001:00027f60       ??$parse_integer@KV?$c_string_character_source@D@__crt_strtox@@$0A@@__crt_strtox@@YAKAEAV__crt_cached_ptd_host@@V?$c_string_character_source@D@0@H_N@Z 0000000180028f60 f i libucrtd:output.obj
 0001:000283e0       ??$parse_integer@KV?$c_string_character_source@_W@__crt_strtox@@$0A@@__crt_strtox@@YAKAEAV__crt_cached_ptd_host@@V?$c_string_character_source@_W@0@H_N@Z 00000001800293e0 f i libucrtd:output.obj
 0001:00028860       ??$peek_va_arg@C@__crt_stdio_output@@YACPEAD@Z 0000000180029860 f i libucrtd:output.obj
 0001:000288c0       ??$peek_va_arg@E@__crt_stdio_output@@YAEPEAD@Z 00000001800298c0 f i libucrtd:output.obj
 0001:00028920       ??$peek_va_arg@F@__crt_stdio_output@@YAFPEAD@Z 0000000180029920 f i libucrtd:output.obj
 0001:00028980       ??$peek_va_arg@G@__crt_stdio_output@@YAGPEAD@Z 0000000180029980 f i libucrtd:output.obj
 0001:000289e0       ??$peek_va_arg@H@__crt_stdio_output@@YAHPEAD@Z 00000001800299e0 f i libucrtd:output.obj
 0001:00028a30       ??$peek_va_arg@I@__crt_stdio_output@@YAIPEAD@Z 0000000180029a30 f i libucrtd:output.obj
 0001:00028a80       ??$peek_va_arg@PEAD@__crt_stdio_output@@YAPEADPEAD@Z 0000000180029a80 f i libucrtd:output.obj
 0001:00028ae0       ??$peek_va_arg@PEAUansi_string@?1??type_case_Z@?$output_processor@DV?$stream_output_adapter@D@__crt_stdio_output@@V?$positional_parameter_base@DV?$stream_output_adapter@D@__crt_stdio_output@@@2@@__crt_stdio_output@@AEAA_NXZ@@__crt_stdio_output@@YAPEAUansi_string@?1??type_case_Z@?$output_processor@DV?$stream_output_adapter@D@__crt_stdio_output@@V?$positional_parameter_base@DV?$stream_output_adapter@D@__crt_stdio_output@@@2@@0@AEAA_NXZ@PEAD@Z 0000000180029ae0 f i libucrtd:output.obj
 0001:00028b40       ??$peek_va_arg@PEAUansi_string@?1??type_case_Z@?$output_processor@DV?$string_output_adapter@D@__crt_stdio_output@@V?$positional_parameter_base@DV?$string_output_adapter@D@__crt_stdio_output@@@2@@__crt_stdio_output@@AEAA_NXZ@@__crt_stdio_output@@YAPEAUansi_string@?1??type_case_Z@?$output_processor@DV?$string_output_adapter@D@__crt_stdio_output@@V?$positional_parameter_base@DV?$string_output_adapter@D@__crt_stdio_output@@@2@@0@AEAA_NXZ@PEAD@Z 0000000180029b40 f i libucrtd:output.obj
 0001:00028ba0       ??$peek_va_arg@PEAUansi_string@?1??type_case_Z@?$output_processor@_WV?$stream_output_adapter@_W@__crt_stdio_output@@V?$positional_parameter_base@_WV?$stream_output_adapter@_W@__crt_stdio_output@@@2@@__crt_stdio_output@@AEAA_NXZ@@__crt_stdio_output@@YAPEAUansi_string@?1??type_case_Z@?$output_processor@_WV?$stream_output_adapter@_W@__crt_stdio_output@@V?$positional_parameter_base@_WV?$stream_output_adapter@_W@__crt_stdio_output@@@2@@0@AEAA_NXZ@PEAD@Z 0000000180029ba0 f i libucrtd:output.obj
 0001:00028c00       ??$peek_va_arg@PEAUansi_string@?1??type_case_Z@?$output_processor@_WV?$string_output_adapter@_W@__crt_stdio_output@@V?$positional_parameter_base@_WV?$string_output_adapter@_W@__crt_stdio_output@@@2@@__crt_stdio_output@@AEAA_NXZ@@__crt_stdio_output@@YAPEAUansi_string@?1??type_case_Z@?$output_processor@_WV?$string_output_adapter@_W@__crt_stdio_output@@V?$positional_parameter_base@_WV?$string_output_adapter@_W@__crt_stdio_output@@@2@@0@AEAA_NXZ@PEAD@Z 0000000180029c00 f i libucrtd:output.obj
 0001:00028c60       ??$peek_va_arg@PEAX@__crt_stdio_output@@YAPEAXPEAD@Z 0000000180029c60 f i libucrtd:output.obj
 0001:00028cc0       ??$peek_va_arg@U_CRT_DOUBLE@@@__crt_stdio_output@@YA?AU_CRT_DOUBLE@@PEAD@Z 0000000180029cc0 f i libucrtd:output.obj
 0001:00028d20       ??$peek_va_arg@_J@__crt_stdio_output@@YA_JPEAD@Z 0000000180029d20 f i libucrtd:output.obj
 0001:00028d80       ??$peek_va_arg@_K@__crt_stdio_output@@YA_KPEAD@Z 0000000180029d80 f i libucrtd:output.obj
 0001:00028de0       ??$peek_va_arg@_W@__crt_stdio_output@@YA_WPEAD@Z 0000000180029de0 f i libucrtd:output.obj
 0001:00028e40       ??$puttc_nolock_internal@AEBDPEAU_iobuf@@AEAV__crt_cached_ptd_host@@@?$__crt_char_traits@D@@SAHAEBD$$QEAPEAU_iobuf@@AEAV__crt_cached_ptd_host@@@Z 0000000180029e40 f i libucrtd:output.obj
 0001:00028e80       ??$puttc_nolock_internal@AEB_WPEAU_iobuf@@AEAV__crt_cached_ptd_host@@@?$__crt_char_traits@_W@@SAGAEB_W$$QEAPEAU_iobuf@@AEAV__crt_cached_ptd_host@@@Z 0000000180029e80 f i libucrtd:output.obj
 0001:00028ec0       ??$read_va_arg@C@__crt_stdio_output@@YACAEAPEAD@Z 0000000180029ec0 f i libucrtd:output.obj
 0001:00028f30       ??$read_va_arg@E@__crt_stdio_output@@YAEAEAPEAD@Z 0000000180029f30 f i libucrtd:output.obj
 0001:00028fa0       ??$read_va_arg@F@__crt_stdio_output@@YAFAEAPEAD@Z 0000000180029fa0 f i libucrtd:output.obj
 0001:00029010       ??$read_va_arg@G@__crt_stdio_output@@YAGAEAPEAD@Z 000000018002a010 f i libucrtd:output.obj
 0001:00029080       ??$read_va_arg@H@__crt_stdio_output@@YAHAEAPEAD@Z 000000018002a080 f i libucrtd:output.obj
 0001:000290e0       ??$read_va_arg@I@__crt_stdio_output@@YAIAEAPEAD@Z 000000018002a0e0 f i libucrtd:output.obj
 0001:00029140       ??$read_va_arg@PEAD@__crt_stdio_output@@YAPEADAEAPEAD@Z 000000018002a140 f i libucrtd:output.obj
 0001:000291b0       ??$read_va_arg@PEAUansi_string@?1??type_case_Z@?$output_processor@DV?$stream_output_adapter@D@__crt_stdio_output@@V?$format_validation_base@DV?$stream_output_adapter@D@__crt_stdio_output@@@2@@__crt_stdio_output@@AEAA_NXZ@@__crt_stdio_output@@YAPEAUansi_string@?1??type_case_Z@?$output_processor@DV?$stream_output_adapter@D@__crt_stdio_output@@V?$format_validation_base@DV?$stream_output_adapter@D@__crt_stdio_output@@@2@@0@AEAA_NXZ@AEAPEAD@Z 000000018002a1b0 f i libucrtd:output.obj
 0001:00029220       ??$read_va_arg@PEAUansi_string@?1??type_case_Z@?$output_processor@DV?$stream_output_adapter@D@__crt_stdio_output@@V?$positional_parameter_base@DV?$stream_output_adapter@D@__crt_stdio_output@@@2@@__crt_stdio_output@@AEAA_NXZ@@__crt_stdio_output@@YAPEAUansi_string@?1??type_case_Z@?$output_processor@DV?$stream_output_adapter@D@__crt_stdio_output@@V?$positional_parameter_base@DV?$stream_output_adapter@D@__crt_stdio_output@@@2@@0@AEAA_NXZ@AEAPEAD@Z 000000018002a220 f i libucrtd:output.obj
 0001:00029290       ??$read_va_arg@PEAUansi_string@?1??type_case_Z@?$output_processor@DV?$stream_output_adapter@D@__crt_stdio_output@@V?$standard_base@DV?$stream_output_adapter@D@__crt_stdio_output@@@2@@__crt_stdio_output@@AEAA_NXZ@@__crt_stdio_output@@YAPEAUansi_string@?1??type_case_Z@?$output_processor@DV?$stream_output_adapter@D@__crt_stdio_output@@V?$standard_base@DV?$stream_output_adapter@D@__crt_stdio_output@@@2@@0@AEAA_NXZ@AEAPEAD@Z 000000018002a290 f i libucrtd:output.obj
 0001:00029300       ??$read_va_arg@PEAUansi_string@?1??type_case_Z@?$output_processor@DV?$string_output_adapter@D@__crt_stdio_output@@V?$format_validation_base@DV?$string_output_adapter@D@__crt_stdio_output@@@2@@__crt_stdio_output@@AEAA_NXZ@@__crt_stdio_output@@YAPEAUansi_string@?1??type_case_Z@?$output_processor@DV?$string_output_adapter@D@__crt_stdio_output@@V?$format_validation_base@DV?$string_output_adapter@D@__crt_stdio_output@@@2@@0@AEAA_NXZ@AEAPEAD@Z 000000018002a300 f i libucrtd:output.obj
 0001:00029370       ??$read_va_arg@PEAUansi_string@?1??type_case_Z@?$output_processor@DV?$string_output_adapter@D@__crt_stdio_output@@V?$positional_parameter_base@DV?$string_output_adapter@D@__crt_stdio_output@@@2@@__crt_stdio_output@@AEAA_NXZ@@__crt_stdio_output@@YAPEAUansi_string@?1??type_case_Z@?$output_processor@DV?$string_output_adapter@D@__crt_stdio_output@@V?$positional_parameter_base@DV?$string_output_adapter@D@__crt_stdio_output@@@2@@0@AEAA_NXZ@AEAPEAD@Z 000000018002a370 f i libucrtd:output.obj
 0001:000293e0       ??$read_va_arg@PEAUansi_string@?1??type_case_Z@?$output_processor@DV?$string_output_adapter@D@__crt_stdio_output@@V?$standard_base@DV?$string_output_adapter@D@__crt_stdio_output@@@2@@__crt_stdio_output@@AEAA_NXZ@@__crt_stdio_output@@YAPEAUansi_string@?1??type_case_Z@?$output_processor@DV?$string_output_adapter@D@__crt_stdio_output@@V?$standard_base@DV?$string_output_adapter@D@__crt_stdio_output@@@2@@0@AEAA_NXZ@AEAPEAD@Z 000000018002a3e0 f i libucrtd:output.obj
 0001:00029450       ??$read_va_arg@PEAUansi_string@?1??type_case_Z@?$output_processor@_WV?$stream_output_adapter@_W@__crt_stdio_output@@V?$format_validation_base@_WV?$stream_output_adapter@_W@__crt_stdio_output@@@2@@__crt_stdio_output@@AEAA_NXZ@@__crt_stdio_output@@YAPEAUansi_string@?1??type_case_Z@?$output_processor@_WV?$stream_output_adapter@_W@__crt_stdio_output@@V?$format_validation_base@_WV?$stream_output_adapter@_W@__crt_stdio_output@@@2@@0@AEAA_NXZ@AEAPEAD@Z 000000018002a450 f i libucrtd:output.obj
 0001:000294c0       ??$read_va_arg@PEAUansi_string@?1??type_case_Z@?$output_processor@_WV?$stream_output_adapter@_W@__crt_stdio_output@@V?$positional_parameter_base@_WV?$stream_output_adapter@_W@__crt_stdio_output@@@2@@__crt_stdio_output@@AEAA_NXZ@@__crt_stdio_output@@YAPEAUansi_string@?1??type_case_Z@?$output_processor@_WV?$stream_output_adapter@_W@__crt_stdio_output@@V?$positional_parameter_base@_WV?$stream_output_adapter@_W@__crt_stdio_output@@@2@@0@AEAA_NXZ@AEAPEAD@Z 000000018002a4c0 f i libucrtd:output.obj
 0001:00029530       ??$read_va_arg@PEAUansi_string@?1??type_case_Z@?$output_processor@_WV?$stream_output_adapter@_W@__crt_stdio_output@@V?$standard_base@_WV?$stream_output_adapter@_W@__crt_stdio_output@@@2@@__crt_stdio_output@@AEAA_NXZ@@__crt_stdio_output@@YAPEAUansi_string@?1??type_case_Z@?$output_processor@_WV?$stream_output_adapter@_W@__crt_stdio_output@@V?$standard_base@_WV?$stream_output_adapter@_W@__crt_stdio_output@@@2@@0@AEAA_NXZ@AEAPEAD@Z 000000018002a530 f i libucrtd:output.obj
 0001:000295a0       ??$read_va_arg@PEAUansi_string@?1??type_case_Z@?$output_processor@_WV?$string_output_adapter@_W@__crt_stdio_output@@V?$format_validation_base@_WV?$string_output_adapter@_W@__crt_stdio_output@@@2@@__crt_stdio_output@@AEAA_NXZ@@__crt_stdio_output@@YAPEAUansi_string@?1??type_case_Z@?$output_processor@_WV?$string_output_adapter@_W@__crt_stdio_output@@V?$format_validation_base@_WV?$string_output_adapter@_W@__crt_stdio_output@@@2@@0@AEAA_NXZ@AEAPEAD@Z 000000018002a5a0 f i libucrtd:output.obj
 0001:00029610       ??$read_va_arg@PEAUansi_string@?1??type_case_Z@?$output_processor@_WV?$string_output_adapter@_W@__crt_stdio_output@@V?$positional_parameter_base@_WV?$string_output_adapter@_W@__crt_stdio_output@@@2@@__crt_stdio_output@@AEAA_NXZ@@__crt_stdio_output@@YAPEAUansi_string@?1??type_case_Z@?$output_processor@_WV?$string_output_adapter@_W@__crt_stdio_output@@V?$positional_parameter_base@_WV?$string_output_adapter@_W@__crt_stdio_output@@@2@@0@AEAA_NXZ@AEAPEAD@Z 000000018002a610 f i libucrtd:output.obj
 0001:00029680       ??$read_va_arg@PEAUansi_string@?1??type_case_Z@?$output_processor@_WV?$string_output_adapter@_W@__crt_stdio_output@@V?$standard_base@_WV?$string_output_adapter@_W@__crt_stdio_output@@@2@@__crt_stdio_output@@AEAA_NXZ@@__crt_stdio_output@@YAPEAUansi_string@?1??type_case_Z@?$output_processor@_WV?$string_output_adapter@_W@__crt_stdio_output@@V?$standard_base@_WV?$string_output_adapter@_W@__crt_stdio_output@@@2@@0@AEAA_NXZ@AEAPEAD@Z 000000018002a680 f i libucrtd:output.obj
 0001:000296f0       ??$read_va_arg@PEAX@__crt_stdio_output@@YAPEAXAEAPEAD@Z 000000018002a6f0 f i libucrtd:output.obj
 0001:00029760       ??$read_va_arg@U_CRT_DOUBLE@@@__crt_stdio_output@@YA?AU_CRT_DOUBLE@@AEAPEAD@Z 000000018002a760 f i libucrtd:output.obj
 0001:000297d0       ??$read_va_arg@_J@__crt_stdio_output@@YA_JAEAPEAD@Z 000000018002a7d0 f i libucrtd:output.obj
 0001:00029840       ??$read_va_arg@_K@__crt_stdio_output@@YA_KAEAPEAD@Z 000000018002a840 f i libucrtd:output.obj
 0001:000298b0       ??$read_va_arg@_W@__crt_stdio_output@@YA_WAEAPEAD@Z 000000018002a8b0 f i libucrtd:output.obj
 0001:00029920       ??$scratch_count@D@formatting_buffer@__crt_stdio_output@@QEBA_KXZ 000000018002a920 f i libucrtd:output.obj
 0001:00029940       ??$scratch_data@D@formatting_buffer@__crt_stdio_output@@QEAAPEADXZ 000000018002a940 f i libucrtd:output.obj
 0001:000299b0       ??$type_case_integer@$07@?$output_processor@DV?$stream_output_adapter@D@__crt_stdio_output@@V?$format_validation_base@DV?$stream_output_adapter@D@__crt_stdio_output@@@2@@__crt_stdio_output@@AEAA_N_N@Z 000000018002a9b0 f i libucrtd:output.obj
 0001:00029e30       ??$type_case_integer@$07@?$output_processor@DV?$stream_output_adapter@D@__crt_stdio_output@@V?$positional_parameter_base@DV?$stream_output_adapter@D@__crt_stdio_output@@@2@@__crt_stdio_output@@AEAA_N_N@Z 000000018002ae30 f i libucrtd:output.obj
 0001:0002a2b0       ??$type_case_integer@$07@?$output_processor@DV?$stream_output_adapter@D@__crt_stdio_output@@V?$standard_base@DV?$stream_output_adapter@D@__crt_stdio_output@@@2@@__crt_stdio_output@@AEAA_N_N@Z 000000018002b2b0 f i libucrtd:output.obj
 0001:0002a730       ??$type_case_integer@$07@?$output_processor@DV?$string_output_adapter@D@__crt_stdio_output@@V?$format_validation_base@DV?$string_output_adapter@D@__crt_stdio_output@@@2@@__crt_stdio_output@@AEAA_N_N@Z 000000018002b730 f i libucrtd:output.obj
 0001:0002abb0       ??$type_case_integer@$07@?$output_processor@DV?$string_output_adapter@D@__crt_stdio_output@@V?$positional_parameter_base@DV?$string_output_adapter@D@__crt_stdio_output@@@2@@__crt_stdio_output@@AEAA_N_N@Z 000000018002bbb0 f i libucrtd:output.obj
 0001:0002b030       ??$type_case_integer@$07@?$output_processor@DV?$string_output_adapter@D@__crt_stdio_output@@V?$standard_base@DV?$string_output_adapter@D@__crt_stdio_output@@@2@@__crt_stdio_output@@AEAA_N_N@Z 000000018002c030 f i libucrtd:output.obj
 0001:0002b4b0       ??$type_case_integer@$07@?$output_processor@_WV?$stream_output_adapter@_W@__crt_stdio_output@@V?$format_validation_base@_WV?$stream_output_adapter@_W@__crt_stdio_output@@@2@@__crt_stdio_output@@AEAA_N_N@Z 000000018002c4b0 f i libucrtd:output.obj
 0001:0002b930       ??$type_case_integer@$07@?$output_processor@_WV?$stream_output_adapter@_W@__crt_stdio_output@@V?$positional_parameter_base@_WV?$stream_output_adapter@_W@__crt_stdio_output@@@2@@__crt_stdio_output@@AEAA_N_N@Z 000000018002c930 f i libucrtd:output.obj
 0001:0002bdb0       ??$type_case_integer@$07@?$output_processor@_WV?$stream_output_adapter@_W@__crt_stdio_output@@V?$standard_base@_WV?$stream_output_adapter@_W@__crt_stdio_output@@@2@@__crt_stdio_output@@AEAA_N_N@Z 000000018002cdb0 f i libucrtd:output.obj
 0001:0002c230       ??$type_case_integer@$07@?$output_processor@_WV?$string_output_adapter@_W@__crt_stdio_output@@V?$format_validation_base@_WV?$string_output_adapter@_W@__crt_stdio_output@@@2@@__crt_stdio_output@@AEAA_N_N@Z 000000018002d230 f i libucrtd:output.obj
 0001:0002c6b0       ??$type_case_integer@$07@?$output_processor@_WV?$string_output_adapter@_W@__crt_stdio_output@@V?$positional_parameter_base@_WV?$string_output_adapter@_W@__crt_stdio_output@@@2@@__crt_stdio_output@@AEAA_N_N@Z 000000018002d6b0 f i libucrtd:output.obj
 0001:0002cb30       ??$type_case_integer@$07@?$output_processor@_WV?$string_output_adapter@_W@__crt_stdio_output@@V?$standard_base@_WV?$string_output_adapter@_W@__crt_stdio_output@@@2@@__crt_stdio_output@@AEAA_N_N@Z 000000018002db30 f i libucrtd:output.obj
 0001:0002cfb0       ??$type_case_integer@$09@?$output_processor@DV?$stream_output_adapter@D@__crt_stdio_output@@V?$format_validation_base@DV?$stream_output_adapter@D@__crt_stdio_output@@@2@@__crt_stdio_output@@AEAA_N_N@Z 000000018002dfb0 f i libucrtd:output.obj
 0001:0002d430       ??$type_case_integer@$09@?$output_processor@DV?$stream_output_adapter@D@__crt_stdio_output@@V?$positional_parameter_base@DV?$stream_output_adapter@D@__crt_stdio_output@@@2@@__crt_stdio_output@@AEAA_N_N@Z 000000018002e430 f i libucrtd:output.obj
 0001:0002d8b0       ??$type_case_integer@$09@?$output_processor@DV?$stream_output_adapter@D@__crt_stdio_output@@V?$standard_base@DV?$stream_output_adapter@D@__crt_stdio_output@@@2@@__crt_stdio_output@@AEAA_N_N@Z 000000018002e8b0 f i libucrtd:output.obj
 0001:0002dd30       ??$type_case_integer@$09@?$output_processor@DV?$string_output_adapter@D@__crt_stdio_output@@V?$format_validation_base@DV?$string_output_adapter@D@__crt_stdio_output@@@2@@__crt_stdio_output@@AEAA_N_N@Z 000000018002ed30 f i libucrtd:output.obj
 0001:0002e1b0       ??$type_case_integer@$09@?$output_processor@DV?$string_output_adapter@D@__crt_stdio_output@@V?$positional_parameter_base@DV?$string_output_adapter@D@__crt_stdio_output@@@2@@__crt_stdio_output@@AEAA_N_N@Z 000000018002f1b0 f i libucrtd:output.obj
 0001:0002e630       ??$type_case_integer@$09@?$output_processor@DV?$string_output_adapter@D@__crt_stdio_output@@V?$standard_base@DV?$string_output_adapter@D@__crt_stdio_output@@@2@@__crt_stdio_output@@AEAA_N_N@Z 000000018002f630 f i libucrtd:output.obj
 0001:0002eab0       ??$type_case_integer@$09@?$output_processor@_WV?$stream_output_adapter@_W@__crt_stdio_output@@V?$format_validation_base@_WV?$stream_output_adapter@_W@__crt_stdio_output@@@2@@__crt_stdio_output@@AEAA_N_N@Z 000000018002fab0 f i libucrtd:output.obj
 0001:0002ef30       ??$type_case_integer@$09@?$output_processor@_WV?$stream_output_adapter@_W@__crt_stdio_output@@V?$positional_parameter_base@_WV?$stream_output_adapter@_W@__crt_stdio_output@@@2@@__crt_stdio_output@@AEAA_N_N@Z 000000018002ff30 f i libucrtd:output.obj
 0001:0002f3b0       ??$type_case_integer@$09@?$output_processor@_WV?$stream_output_adapter@_W@__crt_stdio_output@@V?$standard_base@_WV?$stream_output_adapter@_W@__crt_stdio_output@@@2@@__crt_stdio_output@@AEAA_N_N@Z 00000001800303b0 f i libucrtd:output.obj
 0001:0002f830       ??$type_case_integer@$09@?$output_processor@_WV?$string_output_adapter@_W@__crt_stdio_output@@V?$format_validation_base@_WV?$string_output_adapter@_W@__crt_stdio_output@@@2@@__crt_stdio_output@@AEAA_N_N@Z 0000000180030830 f i libucrtd:output.obj
 0001:0002fcb0       ??$type_case_integer@$09@?$output_processor@_WV?$string_output_adapter@_W@__crt_stdio_output@@V?$positional_parameter_base@_WV?$string_output_adapter@_W@__crt_stdio_output@@@2@@__crt_stdio_output@@AEAA_N_N@Z 0000000180030cb0 f i libucrtd:output.obj
 0001:00030130       ??$type_case_integer@$09@?$output_processor@_WV?$string_output_adapter@_W@__crt_stdio_output@@V?$standard_base@_WV?$string_output_adapter@_W@__crt_stdio_output@@@2@@__crt_stdio_output@@AEAA_N_N@Z 0000000180031130 f i libucrtd:output.obj
 0001:000305b0       ??$type_case_integer@$0BA@@?$output_processor@DV?$stream_output_adapter@D@__crt_stdio_output@@V?$format_validation_base@DV?$stream_output_adapter@D@__crt_stdio_output@@@2@@__crt_stdio_output@@AEAA_N_N@Z 00000001800315b0 f i libucrtd:output.obj
 0001:00030a30       ??$type_case_integer@$0BA@@?$output_processor@DV?$stream_output_adapter@D@__crt_stdio_output@@V?$positional_parameter_base@DV?$stream_output_adapter@D@__crt_stdio_output@@@2@@__crt_stdio_output@@AEAA_N_N@Z 0000000180031a30 f i libucrtd:output.obj
 0001:00030eb0       ??$type_case_integer@$0BA@@?$output_processor@DV?$stream_output_adapter@D@__crt_stdio_output@@V?$standard_base@DV?$stream_output_adapter@D@__crt_stdio_output@@@2@@__crt_stdio_output@@AEAA_N_N@Z 0000000180031eb0 f i libucrtd:output.obj
 0001:00031330       ??$type_case_integer@$0BA@@?$output_processor@DV?$string_output_adapter@D@__crt_stdio_output@@V?$format_validation_base@DV?$string_output_adapter@D@__crt_stdio_output@@@2@@__crt_stdio_output@@AEAA_N_N@Z 0000000180032330 f i libucrtd:output.obj
 0001:000317b0       ??$type_case_integer@$0BA@@?$output_processor@DV?$string_output_adapter@D@__crt_stdio_output@@V?$positional_parameter_base@DV?$string_output_adapter@D@__crt_stdio_output@@@2@@__crt_stdio_output@@AEAA_N_N@Z 00000001800327b0 f i libucrtd:output.obj
 0001:00031c30       ??$type_case_integer@$0BA@@?$output_processor@DV?$string_output_adapter@D@__crt_stdio_output@@V?$standard_base@DV?$string_output_adapter@D@__crt_stdio_output@@@2@@__crt_stdio_output@@AEAA_N_N@Z 0000000180032c30 f i libucrtd:output.obj
 0001:000320b0       ??$type_case_integer@$0BA@@?$output_processor@_WV?$stream_output_adapter@_W@__crt_stdio_output@@V?$format_validation_base@_WV?$stream_output_adapter@_W@__crt_stdio_output@@@2@@__crt_stdio_output@@AEAA_N_N@Z 00000001800330b0 f i libucrtd:output.obj
 0001:00032530       ??$type_case_integer@$0BA@@?$output_processor@_WV?$stream_output_adapter@_W@__crt_stdio_output@@V?$positional_parameter_base@_WV?$stream_output_adapter@_W@__crt_stdio_output@@@2@@__crt_stdio_output@@AEAA_N_N@Z 0000000180033530 f i libucrtd:output.obj
 0001:000329b0       ??$type_case_integer@$0BA@@?$output_processor@_WV?$stream_output_adapter@_W@__crt_stdio_output@@V?$standard_base@_WV?$stream_output_adapter@_W@__crt_stdio_output@@@2@@__crt_stdio_output@@AEAA_N_N@Z 00000001800339b0 f i libucrtd:output.obj
 0001:00032e30       ??$type_case_integer@$0BA@@?$output_processor@_WV?$string_output_adapter@_W@__crt_stdio_output@@V?$format_validation_base@_WV?$string_output_adapter@_W@__crt_stdio_output@@@2@@__crt_stdio_output@@AEAA_N_N@Z 0000000180033e30 f i libucrtd:output.obj
 0001:000332b0       ??$type_case_integer@$0BA@@?$output_processor@_WV?$string_output_adapter@_W@__crt_stdio_output@@V?$positional_parameter_base@_WV?$string_output_adapter@_W@__crt_stdio_output@@@2@@__crt_stdio_output@@AEAA_N_N@Z 00000001800342b0 f i libucrtd:output.obj
 0001:00033730       ??$type_case_integer@$0BA@@?$output_processor@_WV?$string_output_adapter@_W@__crt_stdio_output@@V?$standard_base@_WV?$string_output_adapter@_W@__crt_stdio_output@@@2@@__crt_stdio_output@@AEAA_N_N@Z 0000000180034730 f i libucrtd:output.obj
 0001:00033bb0       ??$type_case_integer_parse_into_buffer@I$07@?$output_processor@DV?$stream_output_adapter@D@__crt_stdio_output@@V?$format_validation_base@DV?$stream_output_adapter@D@__crt_stdio_output@@@2@@__crt_stdio_output@@AEAAXI_N@Z 0000000180034bb0 f i libucrtd:output.obj
 0001:00033ce0       ??$type_case_integer_parse_into_buffer@I$07@?$output_processor@DV?$stream_output_adapter@D@__crt_stdio_output@@V?$positional_parameter_base@DV?$stream_output_adapter@D@__crt_stdio_output@@@2@@__crt_stdio_output@@AEAAXI_N@Z 0000000180034ce0 f i libucrtd:output.obj
 0001:00033e10       ??$type_case_integer_parse_into_buffer@I$07@?$output_processor@DV?$stream_output_adapter@D@__crt_stdio_output@@V?$standard_base@DV?$stream_output_adapter@D@__crt_stdio_output@@@2@@__crt_stdio_output@@AEAAXI_N@Z 0000000180034e10 f i libucrtd:output.obj
 0001:00033f40       ??$type_case_integer_parse_into_buffer@I$07@?$output_processor@DV?$string_output_adapter@D@__crt_stdio_output@@V?$format_validation_base@DV?$string_output_adapter@D@__crt_stdio_output@@@2@@__crt_stdio_output@@AEAAXI_N@Z 0000000180034f40 f i libucrtd:output.obj
 0001:00034070       ??$type_case_integer_parse_into_buffer@I$07@?$output_processor@DV?$string_output_adapter@D@__crt_stdio_output@@V?$positional_parameter_base@DV?$string_output_adapter@D@__crt_stdio_output@@@2@@__crt_stdio_output@@AEAAXI_N@Z 0000000180035070 f i libucrtd:output.obj
 0001:000341a0       ??$type_case_integer_parse_into_buffer@I$07@?$output_processor@DV?$string_output_adapter@D@__crt_stdio_output@@V?$standard_base@DV?$string_output_adapter@D@__crt_stdio_output@@@2@@__crt_stdio_output@@AEAAXI_N@Z 00000001800351a0 f i libucrtd:output.obj
 0001:000342d0       ??$type_case_integer_parse_into_buffer@I$07@?$output_processor@_WV?$stream_output_adapter@_W@__crt_stdio_output@@V?$format_validation_base@_WV?$stream_output_adapter@_W@__crt_stdio_output@@@2@@__crt_stdio_output@@AEAAXI_N@Z 00000001800352d0 f i libucrtd:output.obj
 0001:00034410       ??$type_case_integer_parse_into_buffer@I$07@?$output_processor@_WV?$stream_output_adapter@_W@__crt_stdio_output@@V?$positional_parameter_base@_WV?$stream_output_adapter@_W@__crt_stdio_output@@@2@@__crt_stdio_output@@AEAAXI_N@Z 0000000180035410 f i libucrtd:output.obj
 0001:00034550       ??$type_case_integer_parse_into_buffer@I$07@?$output_processor@_WV?$stream_output_adapter@_W@__crt_stdio_output@@V?$standard_base@_WV?$stream_output_adapter@_W@__crt_stdio_output@@@2@@__crt_stdio_output@@AEAAXI_N@Z 0000000180035550 f i libucrtd:output.obj
 0001:00034690       ??$type_case_integer_parse_into_buffer@I$07@?$output_processor@_WV?$string_output_adapter@_W@__crt_stdio_output@@V?$format_validation_base@_WV?$string_output_adapter@_W@__crt_stdio_output@@@2@@__crt_stdio_output@@AEAAXI_N@Z 0000000180035690 f i libucrtd:output.obj
 0001:000347d0       ??$type_case_integer_parse_into_buffer@I$07@?$output_processor@_WV?$string_output_adapter@_W@__crt_stdio_output@@V?$positional_parameter_base@_WV?$string_output_adapter@_W@__crt_stdio_output@@@2@@__crt_stdio_output@@AEAAXI_N@Z 00000001800357d0 f i libucrtd:output.obj
 0001:00034910       ??$type_case_integer_parse_into_buffer@I$07@?$output_processor@_WV?$string_output_adapter@_W@__crt_stdio_output@@V?$standard_base@_WV?$string_output_adapter@_W@__crt_stdio_output@@@2@@__crt_stdio_output@@AEAAXI_N@Z 0000000180035910 f i libucrtd:output.obj
 0001:00034a50       ??$type_case_integer_parse_into_buffer@I$09@?$output_processor@DV?$stream_output_adapter@D@__crt_stdio_output@@V?$format_validation_base@DV?$stream_output_adapter@D@__crt_stdio_output@@@2@@__crt_stdio_output@@AEAAXI_N@Z 0000000180035a50 f i libucrtd:output.obj
 0001:00034b80       ??$type_case_integer_parse_into_buffer@I$09@?$output_processor@DV?$stream_output_adapter@D@__crt_stdio_output@@V?$positional_parameter_base@DV?$stream_output_adapter@D@__crt_stdio_output@@@2@@__crt_stdio_output@@AEAAXI_N@Z 0000000180035b80 f i libucrtd:output.obj
 0001:00034cb0       ??$type_case_integer_parse_into_buffer@I$09@?$output_processor@DV?$stream_output_adapter@D@__crt_stdio_output@@V?$standard_base@DV?$stream_output_adapter@D@__crt_stdio_output@@@2@@__crt_stdio_output@@AEAAXI_N@Z 0000000180035cb0 f i libucrtd:output.obj
 0001:00034de0       ??$type_case_integer_parse_into_buffer@I$09@?$output_processor@DV?$string_output_adapter@D@__crt_stdio_output@@V?$format_validation_base@DV?$string_output_adapter@D@__crt_stdio_output@@@2@@__crt_stdio_output@@AEAAXI_N@Z 0000000180035de0 f i libucrtd:output.obj
 0001:00034f10       ??$type_case_integer_parse_into_buffer@I$09@?$output_processor@DV?$string_output_adapter@D@__crt_stdio_output@@V?$positional_parameter_base@DV?$string_output_adapter@D@__crt_stdio_output@@@2@@__crt_stdio_output@@AEAAXI_N@Z 0000000180035f10 f i libucrtd:output.obj
 0001:00035040       ??$type_case_integer_parse_into_buffer@I$09@?$output_processor@DV?$string_output_adapter@D@__crt_stdio_output@@V?$standard_base@DV?$string_output_adapter@D@__crt_stdio_output@@@2@@__crt_stdio_output@@AEAAXI_N@Z 0000000180036040 f i libucrtd:output.obj
 0001:00035170       ??$type_case_integer_parse_into_buffer@I$09@?$output_processor@_WV?$stream_output_adapter@_W@__crt_stdio_output@@V?$format_validation_base@_WV?$stream_output_adapter@_W@__crt_stdio_output@@@2@@__crt_stdio_output@@AEAAXI_N@Z 0000000180036170 f i libucrtd:output.obj
 0001:000352b0       ??$type_case_integer_parse_into_buffer@I$09@?$output_processor@_WV?$stream_output_adapter@_W@__crt_stdio_output@@V?$positional_parameter_base@_WV?$stream_output_adapter@_W@__crt_stdio_output@@@2@@__crt_stdio_output@@AEAAXI_N@Z 00000001800362b0 f i libucrtd:output.obj
 0001:000353f0       ??$type_case_integer_parse_into_buffer@I$09@?$output_processor@_WV?$stream_output_adapter@_W@__crt_stdio_output@@V?$standard_base@_WV?$stream_output_adapter@_W@__crt_stdio_output@@@2@@__crt_stdio_output@@AEAAXI_N@Z 00000001800363f0 f i libucrtd:output.obj
 0001:00035530       ??$type_case_integer_parse_into_buffer@I$09@?$output_processor@_WV?$string_output_adapter@_W@__crt_stdio_output@@V?$format_validation_base@_WV?$string_output_adapter@_W@__crt_stdio_output@@@2@@__crt_stdio_output@@AEAAXI_N@Z 0000000180036530 f i libucrtd:output.obj
 0001:00035670       ??$type_case_integer_parse_into_buffer@I$09@?$output_processor@_WV?$string_output_adapter@_W@__crt_stdio_output@@V?$positional_parameter_base@_WV?$string_output_adapter@_W@__crt_stdio_output@@@2@@__crt_stdio_output@@AEAAXI_N@Z 0000000180036670 f i libucrtd:output.obj
 0001:000357b0       ??$type_case_integer_parse_into_buffer@I$09@?$output_processor@_WV?$string_output_adapter@_W@__crt_stdio_output@@V?$standard_base@_WV?$string_output_adapter@_W@__crt_stdio_output@@@2@@__crt_stdio_output@@AEAAXI_N@Z 00000001800367b0 f i libucrtd:output.obj
 0001:000358f0       ??$type_case_integer_parse_into_buffer@I$0BA@@?$output_processor@DV?$stream_output_adapter@D@__crt_stdio_output@@V?$format_validation_base@DV?$stream_output_adapter@D@__crt_stdio_output@@@2@@__crt_stdio_output@@AEAAXI_N@Z 00000001800368f0 f i libucrtd:output.obj
 0001:00035a20       ??$type_case_integer_parse_into_buffer@I$0BA@@?$output_processor@DV?$stream_output_adapter@D@__crt_stdio_output@@V?$positional_parameter_base@DV?$stream_output_adapter@D@__crt_stdio_output@@@2@@__crt_stdio_output@@AEAAXI_N@Z 0000000180036a20 f i libucrtd:output.obj
 0001:00035b50       ??$type_case_integer_parse_into_buffer@I$0BA@@?$output_processor@DV?$stream_output_adapter@D@__crt_stdio_output@@V?$standard_base@DV?$stream_output_adapter@D@__crt_stdio_output@@@2@@__crt_stdio_output@@AEAAXI_N@Z 0000000180036b50 f i libucrtd:output.obj
 0001:00035c80       ??$type_case_integer_parse_into_buffer@I$0BA@@?$output_processor@DV?$string_output_adapter@D@__crt_stdio_output@@V?$format_validation_base@DV?$string_output_adapter@D@__crt_stdio_output@@@2@@__crt_stdio_output@@AEAAXI_N@Z 0000000180036c80 f i libucrtd:output.obj
 0001:00035db0       ??$type_case_integer_parse_into_buffer@I$0BA@@?$output_processor@DV?$string_output_adapter@D@__crt_stdio_output@@V?$positional_parameter_base@DV?$string_output_adapter@D@__crt_stdio_output@@@2@@__crt_stdio_output@@AEAAXI_N@Z 0000000180036db0 f i libucrtd:output.obj
 0001:00035ee0       ??$type_case_integer_parse_into_buffer@I$0BA@@?$output_processor@DV?$string_output_adapter@D@__crt_stdio_output@@V?$standard_base@DV?$string_output_adapter@D@__crt_stdio_output@@@2@@__crt_stdio_output@@AEAAXI_N@Z 0000000180036ee0 f i libucrtd:output.obj
 0001:00036010       ??$type_case_integer_parse_into_buffer@I$0BA@@?$output_processor@_WV?$stream_output_adapter@_W@__crt_stdio_output@@V?$format_validation_base@_WV?$stream_output_adapter@_W@__crt_stdio_output@@@2@@__crt_stdio_output@@AEAAXI_N@Z 0000000180037010 f i libucrtd:output.obj
 0001:00036150       ??$type_case_integer_parse_into_buffer@I$0BA@@?$output_processor@_WV?$stream_output_adapter@_W@__crt_stdio_output@@V?$positional_parameter_base@_WV?$stream_output_adapter@_W@__crt_stdio_output@@@2@@__crt_stdio_output@@AEAAXI_N@Z 0000000180037150 f i libucrtd:output.obj
 0001:00036290       ??$type_case_integer_parse_into_buffer@I$0BA@@?$output_processor@_WV?$stream_output_adapter@_W@__crt_stdio_output@@V?$standard_base@_WV?$stream_output_adapter@_W@__crt_stdio_output@@@2@@__crt_stdio_output@@AEAAXI_N@Z 0000000180037290 f i libucrtd:output.obj
 0001:000363d0       ??$type_case_integer_parse_into_buffer@I$0BA@@?$output_processor@_WV?$string_output_adapter@_W@__crt_stdio_output@@V?$format_validation_base@_WV?$string_output_adapter@_W@__crt_stdio_output@@@2@@__crt_stdio_output@@AEAAXI_N@Z 00000001800373d0 f i libucrtd:output.obj
 0001:00036510       ??$type_case_integer_parse_into_buffer@I$0BA@@?$output_processor@_WV?$string_output_adapter@_W@__crt_stdio_output@@V?$positional_parameter_base@_WV?$string_output_adapter@_W@__crt_stdio_output@@@2@@__crt_stdio_output@@AEAAXI_N@Z 0000000180037510 f i libucrtd:output.obj
 0001:00036650       ??$type_case_integer_parse_into_buffer@I$0BA@@?$output_processor@_WV?$string_output_adapter@_W@__crt_stdio_output@@V?$standard_base@_WV?$string_output_adapter@_W@__crt_stdio_output@@@2@@__crt_stdio_output@@AEAAXI_N@Z 0000000180037650 f i libucrtd:output.obj
 0001:00036790       ??$type_case_integer_parse_into_buffer@_K$07@?$output_processor@DV?$stream_output_adapter@D@__crt_stdio_output@@V?$format_validation_base@DV?$stream_output_adapter@D@__crt_stdio_output@@@2@@__crt_stdio_output@@AEAAX_K_N@Z 0000000180037790 f i libucrtd:output.obj
 0001:000368d0       ??$type_case_integer_parse_into_buffer@_K$07@?$output_processor@DV?$stream_output_adapter@D@__crt_stdio_output@@V?$positional_parameter_base@DV?$stream_output_adapter@D@__crt_stdio_output@@@2@@__crt_stdio_output@@AEAAX_K_N@Z 00000001800378d0 f i libucrtd:output.obj
 0001:00036a10       ??$type_case_integer_parse_into_buffer@_K$07@?$output_processor@DV?$stream_output_adapter@D@__crt_stdio_output@@V?$standard_base@DV?$stream_output_adapter@D@__crt_stdio_output@@@2@@__crt_stdio_output@@AEAAX_K_N@Z 0000000180037a10 f i libucrtd:output.obj
 0001:00036b50       ??$type_case_integer_parse_into_buffer@_K$07@?$output_processor@DV?$string_output_adapter@D@__crt_stdio_output@@V?$format_validation_base@DV?$string_output_adapter@D@__crt_stdio_output@@@2@@__crt_stdio_output@@AEAAX_K_N@Z 0000000180037b50 f i libucrtd:output.obj
 0001:00036c90       ??$type_case_integer_parse_into_buffer@_K$07@?$output_processor@DV?$string_output_adapter@D@__crt_stdio_output@@V?$positional_parameter_base@DV?$string_output_adapter@D@__crt_stdio_output@@@2@@__crt_stdio_output@@AEAAX_K_N@Z 0000000180037c90 f i libucrtd:output.obj
 0001:00036dd0       ??$type_case_integer_parse_into_buffer@_K$07@?$output_processor@DV?$string_output_adapter@D@__crt_stdio_output@@V?$standard_base@DV?$string_output_adapter@D@__crt_stdio_output@@@2@@__crt_stdio_output@@AEAAX_K_N@Z 0000000180037dd0 f i libucrtd:output.obj
 0001:00036f10       ??$type_case_integer_parse_into_buffer@_K$07@?$output_processor@_WV?$stream_output_adapter@_W@__crt_stdio_output@@V?$format_validation_base@_WV?$stream_output_adapter@_W@__crt_stdio_output@@@2@@__crt_stdio_output@@AEAAX_K_N@Z 0000000180037f10 f i libucrtd:output.obj
 0001:00037050       ??$type_case_integer_parse_into_buffer@_K$07@?$output_processor@_WV?$stream_output_adapter@_W@__crt_stdio_output@@V?$positional_parameter_base@_WV?$stream_output_adapter@_W@__crt_stdio_output@@@2@@__crt_stdio_output@@AEAAX_K_N@Z 0000000180038050 f i libucrtd:output.obj
 0001:00037190       ??$type_case_integer_parse_into_buffer@_K$07@?$output_processor@_WV?$stream_output_adapter@_W@__crt_stdio_output@@V?$standard_base@_WV?$stream_output_adapter@_W@__crt_stdio_output@@@2@@__crt_stdio_output@@AEAAX_K_N@Z 0000000180038190 f i libucrtd:output.obj
 0001:000372d0       ??$type_case_integer_parse_into_buffer@_K$07@?$output_processor@_WV?$string_output_adapter@_W@__crt_stdio_output@@V?$format_validation_base@_WV?$string_output_adapter@_W@__crt_stdio_output@@@2@@__crt_stdio_output@@AEAAX_K_N@Z 00000001800382d0 f i libucrtd:output.obj
 0001:00037410       ??$type_case_integer_parse_into_buffer@_K$07@?$output_processor@_WV?$string_output_adapter@_W@__crt_stdio_output@@V?$positional_parameter_base@_WV?$string_output_adapter@_W@__crt_stdio_output@@@2@@__crt_stdio_output@@AEAAX_K_N@Z 0000000180038410 f i libucrtd:output.obj
 0001:00037550       ??$type_case_integer_parse_into_buffer@_K$07@?$output_processor@_WV?$string_output_adapter@_W@__crt_stdio_output@@V?$standard_base@_WV?$string_output_adapter@_W@__crt_stdio_output@@@2@@__crt_stdio_output@@AEAAX_K_N@Z 0000000180038550 f i libucrtd:output.obj
 0001:00037690       ??$type_case_integer_parse_into_buffer@_K$09@?$output_processor@DV?$stream_output_adapter@D@__crt_stdio_output@@V?$format_validation_base@DV?$stream_output_adapter@D@__crt_stdio_output@@@2@@__crt_stdio_output@@AEAAX_K_N@Z 0000000180038690 f i libucrtd:output.obj
 0001:000377d0       ??$type_case_integer_parse_into_buffer@_K$09@?$output_processor@DV?$stream_output_adapter@D@__crt_stdio_output@@V?$positional_parameter_base@DV?$stream_output_adapter@D@__crt_stdio_output@@@2@@__crt_stdio_output@@AEAAX_K_N@Z 00000001800387d0 f i libucrtd:output.obj
 0001:00037910       ??$type_case_integer_parse_into_buffer@_K$09@?$output_processor@DV?$stream_output_adapter@D@__crt_stdio_output@@V?$standard_base@DV?$stream_output_adapter@D@__crt_stdio_output@@@2@@__crt_stdio_output@@AEAAX_K_N@Z 0000000180038910 f i libucrtd:output.obj
 0001:00037a50       ??$type_case_integer_parse_into_buffer@_K$09@?$output_processor@DV?$string_output_adapter@D@__crt_stdio_output@@V?$format_validation_base@DV?$string_output_adapter@D@__crt_stdio_output@@@2@@__crt_stdio_output@@AEAAX_K_N@Z 0000000180038a50 f i libucrtd:output.obj
 0001:00037b90       ??$type_case_integer_parse_into_buffer@_K$09@?$output_processor@DV?$string_output_adapter@D@__crt_stdio_output@@V?$positional_parameter_base@DV?$string_output_adapter@D@__crt_stdio_output@@@2@@__crt_stdio_output@@AEAAX_K_N@Z 0000000180038b90 f i libucrtd:output.obj
 0001:00037cd0       ??$type_case_integer_parse_into_buffer@_K$09@?$output_processor@DV?$string_output_adapter@D@__crt_stdio_output@@V?$standard_base@DV?$string_output_adapter@D@__crt_stdio_output@@@2@@__crt_stdio_output@@AEAAX_K_N@Z 0000000180038cd0 f i libucrtd:output.obj
 0001:00037e10       ??$type_case_integer_parse_into_buffer@_K$09@?$output_processor@_WV?$stream_output_adapter@_W@__crt_stdio_output@@V?$format_validation_base@_WV?$stream_output_adapter@_W@__crt_stdio_output@@@2@@__crt_stdio_output@@AEAAX_K_N@Z 0000000180038e10 f i libucrtd:output.obj
 0001:00037f50       ??$type_case_integer_parse_into_buffer@_K$09@?$output_processor@_WV?$stream_output_adapter@_W@__crt_stdio_output@@V?$positional_parameter_base@_WV?$stream_output_adapter@_W@__crt_stdio_output@@@2@@__crt_stdio_output@@AEAAX_K_N@Z 0000000180038f50 f i libucrtd:output.obj
 0001:00038090       ??$type_case_integer_parse_into_buffer@_K$09@?$output_processor@_WV?$stream_output_adapter@_W@__crt_stdio_output@@V?$standard_base@_WV?$stream_output_adapter@_W@__crt_stdio_output@@@2@@__crt_stdio_output@@AEAAX_K_N@Z 0000000180039090 f i libucrtd:output.obj
 0001:000381d0       ??$type_case_integer_parse_into_buffer@_K$09@?$output_processor@_WV?$string_output_adapter@_W@__crt_stdio_output@@V?$format_validation_base@_WV?$string_output_adapter@_W@__crt_stdio_output@@@2@@__crt_stdio_output@@AEAAX_K_N@Z 00000001800391d0 f i libucrtd:output.obj
 0001:00038310       ??$type_case_integer_parse_into_buffer@_K$09@?$output_processor@_WV?$string_output_adapter@_W@__crt_stdio_output@@V?$positional_parameter_base@_WV?$string_output_adapter@_W@__crt_stdio_output@@@2@@__crt_stdio_output@@AEAAX_K_N@Z 0000000180039310 f i libucrtd:output.obj
 0001:00038450       ??$type_case_integer_parse_into_buffer@_K$09@?$output_processor@_WV?$string_output_adapter@_W@__crt_stdio_output@@V?$standard_base@_WV?$string_output_adapter@_W@__crt_stdio_output@@@2@@__crt_stdio_output@@AEAAX_K_N@Z 0000000180039450 f i libucrtd:output.obj
 0001:00038590       ??$type_case_integer_parse_into_buffer@_K$0BA@@?$output_processor@DV?$stream_output_adapter@D@__crt_stdio_output@@V?$format_validation_base@DV?$stream_output_adapter@D@__crt_stdio_output@@@2@@__crt_stdio_output@@AEAAX_K_N@Z 0000000180039590 f i libucrtd:output.obj
 0001:000386d0       ??$type_case_integer_parse_into_buffer@_K$0BA@@?$output_processor@DV?$stream_output_adapter@D@__crt_stdio_output@@V?$positional_parameter_base@DV?$stream_output_adapter@D@__crt_stdio_output@@@2@@__crt_stdio_output@@AEAAX_K_N@Z 00000001800396d0 f i libucrtd:output.obj
 0001:00038810       ??$type_case_integer_parse_into_buffer@_K$0BA@@?$output_processor@DV?$stream_output_adapter@D@__crt_stdio_output@@V?$standard_base@DV?$stream_output_adapter@D@__crt_stdio_output@@@2@@__crt_stdio_output@@AEAAX_K_N@Z 0000000180039810 f i libucrtd:output.obj
 0001:00038950       ??$type_case_integer_parse_into_buffer@_K$0BA@@?$output_processor@DV?$string_output_adapter@D@__crt_stdio_output@@V?$format_validation_base@DV?$string_output_adapter@D@__crt_stdio_output@@@2@@__crt_stdio_output@@AEAAX_K_N@Z 0000000180039950 f i libucrtd:output.obj
 0001:00038a90       ??$type_case_integer_parse_into_buffer@_K$0BA@@?$output_processor@DV?$string_output_adapter@D@__crt_stdio_output@@V?$positional_parameter_base@DV?$string_output_adapter@D@__crt_stdio_output@@@2@@__crt_stdio_output@@AEAAX_K_N@Z 0000000180039a90 f i libucrtd:output.obj
 0001:00038bd0       ??$type_case_integer_parse_into_buffer@_K$0BA@@?$output_processor@DV?$string_output_adapter@D@__crt_stdio_output@@V?$standard_base@DV?$string_output_adapter@D@__crt_stdio_output@@@2@@__crt_stdio_output@@AEAAX_K_N@Z 0000000180039bd0 f i libucrtd:output.obj
 0001:00038d10       ??$type_case_integer_parse_into_buffer@_K$0BA@@?$output_processor@_WV?$stream_output_adapter@_W@__crt_stdio_output@@V?$format_validation_base@_WV?$stream_output_adapter@_W@__crt_stdio_output@@@2@@__crt_stdio_output@@AEAAX_K_N@Z 0000000180039d10 f i libucrtd:output.obj
 0001:00038e50       ??$type_case_integer_parse_into_buffer@_K$0BA@@?$output_processor@_WV?$stream_output_adapter@_W@__crt_stdio_output@@V?$positional_parameter_base@_WV?$stream_output_adapter@_W@__crt_stdio_output@@@2@@__crt_stdio_output@@AEAAX_K_N@Z 0000000180039e50 f i libucrtd:output.obj
 0001:00038f90       ??$type_case_integer_parse_into_buffer@_K$0BA@@?$output_processor@_WV?$stream_output_adapter@_W@__crt_stdio_output@@V?$standard_base@_WV?$stream_output_adapter@_W@__crt_stdio_output@@@2@@__crt_stdio_output@@AEAAX_K_N@Z 0000000180039f90 f i libucrtd:output.obj
 0001:000390d0       ??$type_case_integer_parse_into_buffer@_K$0BA@@?$output_processor@_WV?$string_output_adapter@_W@__crt_stdio_output@@V?$format_validation_base@_WV?$string_output_adapter@_W@__crt_stdio_output@@@2@@__crt_stdio_output@@AEAAX_K_N@Z 000000018003a0d0 f i libucrtd:output.obj
 0001:00039210       ??$type_case_integer_parse_into_buffer@_K$0BA@@?$output_processor@_WV?$string_output_adapter@_W@__crt_stdio_output@@V?$positional_parameter_base@_WV?$string_output_adapter@_W@__crt_stdio_output@@@2@@__crt_stdio_output@@AEAAX_K_N@Z 000000018003a210 f i libucrtd:output.obj
 0001:00039350       ??$type_case_integer_parse_into_buffer@_K$0BA@@?$output_processor@_WV?$string_output_adapter@_W@__crt_stdio_output@@V?$standard_base@_WV?$string_output_adapter@_W@__crt_stdio_output@@@2@@__crt_stdio_output@@AEAAX_K_N@Z 000000018003a350 f i libucrtd:output.obj
 0001:00039490       ??$write_multiple_characters@V?$stream_output_adapter@D@__crt_stdio_output@@D@__crt_stdio_output@@YAXAEBV?$stream_output_adapter@D@0@DHQEAHAEAV__crt_cached_ptd_host@@@Z 000000018003a490 f i libucrtd:output.obj
 0001:00039500       ??$write_multiple_characters@V?$stream_output_adapter@_W@__crt_stdio_output@@D@__crt_stdio_output@@YAXAEBV?$stream_output_adapter@_W@0@DHQEAHAEAV__crt_cached_ptd_host@@@Z 000000018003a500 f i libucrtd:output.obj
 0001:00039570       ??$write_multiple_characters@V?$string_output_adapter@D@__crt_stdio_output@@D@__crt_stdio_output@@YAXAEBV?$string_output_adapter@D@0@DHQEAHAEAV__crt_cached_ptd_host@@@Z 000000018003a570 f i libucrtd:output.obj
 0001:000395e0       ??$write_multiple_characters@V?$string_output_adapter@_W@__crt_stdio_output@@D@__crt_stdio_output@@YAXAEBV?$string_output_adapter@_W@0@DHQEAHAEAV__crt_cached_ptd_host@@@Z 000000018003a5e0 f i libucrtd:output.obj
 0001:00039a10       ??0?$c_string_character_source@D@__crt_strtox@@QEAA@QEBDQEAPEBD@Z 000000018003aa10 f i libucrtd:output.obj
 0001:00039a60       ??0?$c_string_character_source@_W@__crt_strtox@@QEAA@QEB_WQEAPEB_W@Z 000000018003aa60 f i libucrtd:output.obj
 0001:00039ab0       ??0?$cached@H@__crt_cached_ptd_host@@QEAA@XZ 000000018003aab0 f i libucrtd:output.obj
 0001:00039ad0       ??0?$cached@K@__crt_cached_ptd_host@@QEAA@XZ 000000018003aad0 f i libucrtd:output.obj
 0001:00039af0       ??0?$common_data@D@__crt_stdio_output@@IEAA@AEAV__crt_cached_ptd_host@@@Z 000000018003aaf0 f i libucrtd:output.obj
 0001:00039bb0       ??0?$common_data@_W@__crt_stdio_output@@IEAA@AEAV__crt_cached_ptd_host@@@Z 000000018003abb0 f i libucrtd:output.obj
 0001:00039c70       ??0?$output_adapter_data@DV?$stream_output_adapter@D@__crt_stdio_output@@@__crt_stdio_output@@IEAA@AEBV?$stream_output_adapter@D@1@_KQEBDAEAV__crt_cached_ptd_host@@QEAD@Z 000000018003ac70 f i libucrtd:output.obj
 0001:00039cf0       ??0?$output_adapter_data@DV?$string_output_adapter@D@__crt_stdio_output@@@__crt_stdio_output@@IEAA@AEBV?$string_output_adapter@D@1@_KQEBDAEAV__crt_cached_ptd_host@@QEAD@Z 000000018003acf0 f i libucrtd:output.obj
 0001:00039d70       ??0?$output_adapter_data@_WV?$stream_output_adapter@_W@__crt_stdio_output@@@__crt_stdio_output@@IEAA@AEBV?$stream_output_adapter@_W@1@_KQEB_WAEAV__crt_cached_ptd_host@@QEAD@Z 000000018003ad70 f i libucrtd:output.obj
 0001:00039df0       ??0?$output_adapter_data@_WV?$string_output_adapter@_W@__crt_stdio_output@@@__crt_stdio_output@@IEAA@AEBV?$string_output_adapter@_W@1@_KQEB_WAEAV__crt_cached_ptd_host@@QEAD@Z 000000018003adf0 f i libucrtd:output.obj
 0001:00039e70       ??0?$output_processor@DV?$stream_output_adapter@D@__crt_stdio_output@@V?$format_validation_base@DV?$stream_output_adapter@D@__crt_stdio_output@@@2@@__crt_stdio_output@@QEAA@AEBV?$stream_output_adapter@D@1@_KQEBDAEAV__crt_cached_ptd_host@@QEAD@Z 000000018003ae70 f i libucrtd:output.obj
 0001:00039ec0       ??0?$output_processor@DV?$stream_output_adapter@D@__crt_stdio_output@@V?$positional_parameter_base@DV?$stream_output_adapter@D@__crt_stdio_output@@@2@@__crt_stdio_output@@QEAA@AEBV?$stream_output_adapter@D@1@_KQEBDAEAV__crt_cached_ptd_host@@QEAD@Z 000000018003aec0 f i libucrtd:output.obj
 0001:00039f10       ??0?$output_processor@DV?$stream_output_adapter@D@__crt_stdio_output@@V?$standard_base@DV?$stream_output_adapter@D@__crt_stdio_output@@@2@@__crt_stdio_output@@QEAA@AEBV?$stream_output_adapter@D@1@_KQEBDAEAV__crt_cached_ptd_host@@QEAD@Z 000000018003af10 f i libucrtd:output.obj
 0001:00039f60       ??0?$output_processor@DV?$string_output_adapter@D@__crt_stdio_output@@V?$format_validation_base@DV?$string_output_adapter@D@__crt_stdio_output@@@2@@__crt_stdio_output@@QEAA@AEBV?$string_output_adapter@D@1@_KQEBDAEAV__crt_cached_ptd_host@@QEAD@Z 000000018003af60 f i libucrtd:output.obj
 0001:00039fb0       ??0?$output_processor@DV?$string_output_adapter@D@__crt_stdio_output@@V?$positional_parameter_base@DV?$string_output_adapter@D@__crt_stdio_output@@@2@@__crt_stdio_output@@QEAA@AEBV?$string_output_adapter@D@1@_KQEBDAEAV__crt_cached_ptd_host@@QEAD@Z 000000018003afb0 f i libucrtd:output.obj
 0001:0003a000       ??0?$output_processor@DV?$string_output_adapter@D@__crt_stdio_output@@V?$standard_base@DV?$string_output_adapter@D@__crt_stdio_output@@@2@@__crt_stdio_output@@QEAA@AEBV?$string_output_adapter@D@1@_KQEBDAEAV__crt_cached_ptd_host@@QEAD@Z 000000018003b000 f i libucrtd:output.obj
 0001:0003a050       ??0?$output_processor@_WV?$stream_output_adapter@_W@__crt_stdio_output@@V?$format_validation_base@_WV?$stream_output_adapter@_W@__crt_stdio_output@@@2@@__crt_stdio_output@@QEAA@AEBV?$stream_output_adapter@_W@1@_KQEB_WAEAV__crt_cached_ptd_host@@QEAD@Z 000000018003b050 f i libucrtd:output.obj
 0001:0003a0a0       ??0?$output_processor@_WV?$stream_output_adapter@_W@__crt_stdio_output@@V?$positional_parameter_base@_WV?$stream_output_adapter@_W@__crt_stdio_output@@@2@@__crt_stdio_output@@QEAA@AEBV?$stream_output_adapter@_W@1@_KQEB_WAEAV__crt_cached_ptd_host@@QEAD@Z 000000018003b0a0 f i libucrtd:output.obj
 0001:0003a0f0       ??0?$output_processor@_WV?$stream_output_adapter@_W@__crt_stdio_output@@V?$standard_base@_WV?$stream_output_adapter@_W@__crt_stdio_output@@@2@@__crt_stdio_output@@QEAA@AEBV?$stream_output_adapter@_W@1@_KQEB_WAEAV__crt_cached_ptd_host@@QEAD@Z 000000018003b0f0 f i libucrtd:output.obj
 0001:0003a140       ??0?$output_processor@_WV?$string_output_adapter@_W@__crt_stdio_output@@V?$format_validation_base@_WV?$string_output_adapter@_W@__crt_stdio_output@@@2@@__crt_stdio_output@@QEAA@AEBV?$string_output_adapter@_W@1@_KQEB_WAEAV__crt_cached_ptd_host@@QEAD@Z 000000018003b140 f i libucrtd:output.obj
 0001:0003a190       ??0?$output_processor@_WV?$string_output_adapter@_W@__crt_stdio_output@@V?$positional_parameter_base@_WV?$string_output_adapter@_W@__crt_stdio_output@@@2@@__crt_stdio_output@@QEAA@AEBV?$string_output_adapter@_W@1@_KQEB_WAEAV__crt_cached_ptd_host@@QEAD@Z 000000018003b190 f i libucrtd:output.obj
 0001:0003a1e0       ??0?$output_processor@_WV?$string_output_adapter@_W@__crt_stdio_output@@V?$standard_base@_WV?$string_output_adapter@_W@__crt_stdio_output@@@2@@__crt_stdio_output@@QEAA@AEBV?$string_output_adapter@_W@1@_KQEB_WAEAV__crt_cached_ptd_host@@QEAD@Z 000000018003b1e0 f i libucrtd:output.obj
 0001:0003a230       ??0?$stream_output_adapter@D@__crt_stdio_output@@QEAA@QEAU_iobuf@@@Z 000000018003b230 f i libucrtd:output.obj
 0001:0003a270       ??0?$stream_output_adapter@_W@__crt_stdio_output@@QEAA@QEAU_iobuf@@@Z 000000018003b270 f i libucrtd:output.obj
 0001:0003a2b0       ??0?$string_output_adapter@D@__crt_stdio_output@@QEAA@QEAU?$string_output_adapter_context@D@1@@Z 000000018003b2b0 f i libucrtd:output.obj
 0001:0003a2d0       ??0?$string_output_adapter@_W@__crt_stdio_output@@QEAA@QEAU?$string_output_adapter_context@_W@1@@Z 000000018003b2d0 f i libucrtd:output.obj
 0001:0003a2f0       ??0__acrt_stdio_temporary_buffering_guard@@QEAA@QEAU_iobuf@@AEAV__crt_cached_ptd_host@@@Z 000000018003b2f0 f i libucrtd:output.obj
 0001:0003a340       ??0__crt_cached_ptd_host@@QEAA@QEAU__crt_locale_pointers@@@Z 000000018003b340 f i libucrtd:output.obj
 0001:0003a400       ??0__crt_scoped_get_last_error_reset@@QEAA@XZ 000000018003b400 f i libucrtd:output.obj
 0001:0003a420       ??0formatting_buffer@__crt_stdio_output@@QEAA@XZ 000000018003b420 f i libucrtd:output.obj
 0001:0003a460       ??0guard@?$cached@H@__crt_cached_ptd_host@@QEAA@AEAU12@@Z 000000018003b460 f i libucrtd:output.obj
 0001:0003a4a0       ??1?$c_string_character_source@D@__crt_strtox@@QEAA@XZ 000000018003b4a0 f i libucrtd:output.obj
 0001:0003a4d0       ??1?$c_string_character_source@_W@__crt_strtox@@QEAA@XZ 000000018003b4d0 f i libucrtd:output.obj
 0001:0003a500       ??1?$common_data@D@__crt_stdio_output@@QEAA@XZ 000000018003b500 f i libucrtd:output.obj
 0001:0003a520       ??1?$common_data@_W@__crt_stdio_output@@QEAA@XZ 000000018003b520 f i libucrtd:output.obj
 0001:0003a540       ??1?$format_validation_base@DV?$stream_output_adapter@D@__crt_stdio_output@@@__crt_stdio_output@@QEAA@XZ 000000018003b540 f i libucrtd:output.obj
 0001:0003a560       ??1?$format_validation_base@DV?$string_output_adapter@D@__crt_stdio_output@@@__crt_stdio_output@@QEAA@XZ 000000018003b560 f i libucrtd:output.obj
 0001:0003a580       ??1?$format_validation_base@_WV?$stream_output_adapter@_W@__crt_stdio_output@@@__crt_stdio_output@@QEAA@XZ 000000018003b580 f i libucrtd:output.obj
 0001:0003a5a0       ??1?$format_validation_base@_WV?$string_output_adapter@_W@__crt_stdio_output@@@__crt_stdio_output@@QEAA@XZ 000000018003b5a0 f i libucrtd:output.obj
 0001:0003a5c0       ??1?$output_adapter_data@DV?$stream_output_adapter@D@__crt_stdio_output@@@__crt_stdio_output@@QEAA@XZ 000000018003b5c0 f i libucrtd:output.obj
 0001:0003a5e0       ??1?$output_adapter_data@DV?$string_output_adapter@D@__crt_stdio_output@@@__crt_stdio_output@@QEAA@XZ 000000018003b5e0 f i libucrtd:output.obj
 0001:0003a600       ??1?$output_adapter_data@_WV?$stream_output_adapter@_W@__crt_stdio_output@@@__crt_stdio_output@@QEAA@XZ 000000018003b600 f i libucrtd:output.obj
 0001:0003a620       ??1?$output_adapter_data@_WV?$string_output_adapter@_W@__crt_stdio_output@@@__crt_stdio_output@@QEAA@XZ 000000018003b620 f i libucrtd:output.obj
 0001:0003a640       ??1?$output_processor@DV?$stream_output_adapter@D@__crt_stdio_output@@V?$format_validation_base@DV?$stream_output_adapter@D@__crt_stdio_output@@@2@@__crt_stdio_output@@QEAA@XZ 000000018003b640 f i libucrtd:output.obj
 0001:0003a660       ??1?$output_processor@DV?$stream_output_adapter@D@__crt_stdio_output@@V?$positional_parameter_base@DV?$stream_output_adapter@D@__crt_stdio_output@@@2@@__crt_stdio_output@@QEAA@XZ 000000018003b660 f i libucrtd:output.obj
 0001:0003a680       ??1?$output_processor@DV?$stream_output_adapter@D@__crt_stdio_output@@V?$standard_base@DV?$stream_output_adapter@D@__crt_stdio_output@@@2@@__crt_stdio_output@@QEAA@XZ 000000018003b680 f i libucrtd:output.obj
 0001:0003a6a0       ??1?$output_processor@DV?$string_output_adapter@D@__crt_stdio_output@@V?$format_validation_base@DV?$string_output_adapter@D@__crt_stdio_output@@@2@@__crt_stdio_output@@QEAA@XZ 000000018003b6a0 f i libucrtd:output.obj
 0001:0003a6c0       ??1?$output_processor@DV?$string_output_adapter@D@__crt_stdio_output@@V?$positional_parameter_base@DV?$string_output_adapter@D@__crt_stdio_output@@@2@@__crt_stdio_output@@QEAA@XZ 000000018003b6c0 f i libucrtd:output.obj
 0001:0003a6e0       ??1?$output_processor@DV?$string_output_adapter@D@__crt_stdio_output@@V?$standard_base@DV?$string_output_adapter@D@__crt_stdio_output@@@2@@__crt_stdio_output@@QEAA@XZ 000000018003b6e0 f i libucrtd:output.obj
 0001:0003a700       ??1?$output_processor@_WV?$stream_output_adapter@_W@__crt_stdio_output@@V?$format_validation_base@_WV?$stream_output_adapter@_W@__crt_stdio_output@@@2@@__crt_stdio_output@@QEAA@XZ 000000018003b700 f i libucrtd:output.obj
 0001:0003a720       ??1?$output_processor@_WV?$stream_output_adapter@_W@__crt_stdio_output@@V?$positional_parameter_base@_WV?$stream_output_adapter@_W@__crt_stdio_output@@@2@@__crt_stdio_output@@QEAA@XZ 000000018003b720 f i libucrtd:output.obj
 0001:0003a740       ??1?$output_processor@_WV?$stream_output_adapter@_W@__crt_stdio_output@@V?$standard_base@_WV?$stream_output_adapter@_W@__crt_stdio_output@@@2@@__crt_stdio_output@@QEAA@XZ 000000018003b740 f i libucrtd:output.obj
 0001:0003a760       ??1?$output_processor@_WV?$string_output_adapter@_W@__crt_stdio_output@@V?$format_validation_base@_WV?$string_output_adapter@_W@__crt_stdio_output@@@2@@__crt_stdio_output@@QEAA@XZ 000000018003b760 f i libucrtd:output.obj
 0001:0003a780       ??1?$output_processor@_WV?$string_output_adapter@_W@__crt_stdio_output@@V?$positional_parameter_base@_WV?$string_output_adapter@_W@__crt_stdio_output@@@2@@__crt_stdio_output@@QEAA@XZ 000000018003b780 f i libucrtd:output.obj
 0001:0003a7a0       ??1?$output_processor@_WV?$string_output_adapter@_W@__crt_stdio_output@@V?$standard_base@_WV?$string_output_adapter@_W@__crt_stdio_output@@@2@@__crt_stdio_output@@QEAA@XZ 000000018003b7a0 f i libucrtd:output.obj
 0001:0003a7c0       ??1?$positional_parameter_base@DV?$stream_output_adapter@D@__crt_stdio_output@@@__crt_stdio_output@@QEAA@XZ 000000018003b7c0 f i libucrtd:output.obj
 0001:0003a7e0       ??1?$positional_parameter_base@DV?$string_output_adapter@D@__crt_stdio_output@@@__crt_stdio_output@@QEAA@XZ 000000018003b7e0 f i libucrtd:output.obj
 0001:0003a800       ??1?$positional_parameter_base@_WV?$stream_output_adapter@_W@__crt_stdio_output@@@__crt_stdio_output@@QEAA@XZ 000000018003b800 f i libucrtd:output.obj
 0001:0003a820       ??1?$positional_parameter_base@_WV?$string_output_adapter@_W@__crt_stdio_output@@@__crt_stdio_output@@QEAA@XZ 000000018003b820 f i libucrtd:output.obj
 0001:0003a840       ??1?$standard_base@DV?$stream_output_adapter@D@__crt_stdio_output@@@__crt_stdio_output@@QEAA@XZ 000000018003b840 f i libucrtd:output.obj
 0001:0003a860       ??1?$standard_base@DV?$string_output_adapter@D@__crt_stdio_output@@@__crt_stdio_output@@QEAA@XZ 000000018003b860 f i libucrtd:output.obj
 0001:0003a880       ??1?$standard_base@_WV?$stream_output_adapter@_W@__crt_stdio_output@@@__crt_stdio_output@@QEAA@XZ 000000018003b880 f i libucrtd:output.obj
 0001:0003a8a0       ??1?$standard_base@_WV?$string_output_adapter@_W@__crt_stdio_output@@@__crt_stdio_output@@QEAA@XZ 000000018003b8a0 f i libucrtd:output.obj
 0001:0003a8c0       ??1__acrt_stdio_temporary_buffering_guard@@QEAA@XZ 000000018003b8c0 f i libucrtd:output.obj
 0001:0003a8f0       ??1__crt_cached_ptd_host@@QEAA@XZ 000000018003b8f0 f i libucrtd:output.obj
 0001:0003a9a0       ??1__crt_scoped_get_last_error_reset@@QEAA@XZ 000000018003b9a0 f i libucrtd:output.obj
 0001:0003a9c0       ??1formatting_buffer@__crt_stdio_output@@QEAA@XZ 000000018003b9c0 f i libucrtd:output.obj
 0001:0003a9f0       ??1guard@?$cached@H@__crt_cached_ptd_host@@QEAA@XZ 000000018003b9f0 f i libucrtd:output.obj
 0001:0003aa20       ??4?$__crt_unique_heap_ptr@DU__crt_internal_free_policy@@@@QEAAAEAV0@$$QEAV0@@Z 000000018003ba20 f i libucrtd:output.obj
 0001:0003aa60       ??A?$spectre_mitigated_lookup_table@Ustate_transition_pair@__crt_stdio_output@@$0IA@@__crt_stdio_output@@QEBAAEBUstate_transition_pair@1@_K@Z 000000018003ba60 f i libucrtd:output.obj
 0001:0003b2c0       ?__crt_interlocked_read_32@@YAHPEDH@Z 000000018003c2c0 f i libucrtd:output.obj
 0001:0003b2e0       ?adjust_hexit@?$output_processor@DV?$stream_output_adapter@D@__crt_stdio_output@@V?$format_validation_base@DV?$stream_output_adapter@D@__crt_stdio_output@@@2@@__crt_stdio_output@@CADH_N@Z 000000018003c2e0 f i libucrtd:output.obj
 0001:0003b330       ?adjust_hexit@?$output_processor@DV?$stream_output_adapter@D@__crt_stdio_output@@V?$positional_parameter_base@DV?$stream_output_adapter@D@__crt_stdio_output@@@2@@__crt_stdio_output@@CADH_N@Z 000000018003c330 f i libucrtd:output.obj
 0001:0003b380       ?adjust_hexit@?$output_processor@DV?$stream_output_adapter@D@__crt_stdio_output@@V?$standard_base@DV?$stream_output_adapter@D@__crt_stdio_output@@@2@@__crt_stdio_output@@CADH_N@Z 000000018003c380 f i libucrtd:output.obj
 0001:0003b3d0       ?adjust_hexit@?$output_processor@DV?$string_output_adapter@D@__crt_stdio_output@@V?$format_validation_base@DV?$string_output_adapter@D@__crt_stdio_output@@@2@@__crt_stdio_output@@CADH_N@Z 000000018003c3d0 f i libucrtd:output.obj
 0001:0003b420       ?adjust_hexit@?$output_processor@DV?$string_output_adapter@D@__crt_stdio_output@@V?$positional_parameter_base@DV?$string_output_adapter@D@__crt_stdio_output@@@2@@__crt_stdio_output@@CADH_N@Z 000000018003c420 f i libucrtd:output.obj
 0001:0003b470       ?adjust_hexit@?$output_processor@DV?$string_output_adapter@D@__crt_stdio_output@@V?$standard_base@DV?$string_output_adapter@D@__crt_stdio_output@@@2@@__crt_stdio_output@@CADH_N@Z 000000018003c470 f i libucrtd:output.obj
 0001:0003b4c0       ?adjust_hexit@?$output_processor@_WV?$stream_output_adapter@_W@__crt_stdio_output@@V?$format_validation_base@_WV?$stream_output_adapter@_W@__crt_stdio_output@@@2@@__crt_stdio_output@@CADH_N@Z 000000018003c4c0 f i libucrtd:output.obj
 0001:0003b510       ?adjust_hexit@?$output_processor@_WV?$stream_output_adapter@_W@__crt_stdio_output@@V?$positional_parameter_base@_WV?$stream_output_adapter@_W@__crt_stdio_output@@@2@@__crt_stdio_output@@CADH_N@Z 000000018003c510 f i libucrtd:output.obj
 0001:0003b560       ?adjust_hexit@?$output_processor@_WV?$stream_output_adapter@_W@__crt_stdio_output@@V?$standard_base@_WV?$stream_output_adapter@_W@__crt_stdio_output@@@2@@__crt_stdio_output@@CADH_N@Z 000000018003c560 f i libucrtd:output.obj
 0001:0003b5b0       ?adjust_hexit@?$output_processor@_WV?$string_output_adapter@_W@__crt_stdio_output@@V?$format_validation_base@_WV?$string_output_adapter@_W@__crt_stdio_output@@@2@@__crt_stdio_output@@CADH_N@Z 000000018003c5b0 f i libucrtd:output.obj
 0001:0003b600       ?adjust_hexit@?$output_processor@_WV?$string_output_adapter@_W@__crt_stdio_output@@V?$positional_parameter_base@_WV?$string_output_adapter@_W@__crt_stdio_output@@@2@@__crt_stdio_output@@CADH_N@Z 000000018003c600 f i libucrtd:output.obj
 0001:0003b650       ?adjust_hexit@?$output_processor@_WV?$string_output_adapter@_W@__crt_stdio_output@@V?$standard_base@_WV?$string_output_adapter@_W@__crt_stdio_output@@@2@@__crt_stdio_output@@CADH_N@Z 000000018003c650 f i libucrtd:output.obj
 0001:0003b6a0       ?advance_to_next_pass@?$positional_parameter_base@DV?$stream_output_adapter@D@__crt_stdio_output@@@__crt_stdio_output@@IEAA_NXZ 000000018003c6a0 f i libucrtd:output.obj
 0001:0003b750       ?advance_to_next_pass@?$positional_parameter_base@DV?$string_output_adapter@D@__crt_stdio_output@@@__crt_stdio_output@@IEAA_NXZ 000000018003c750 f i libucrtd:output.obj
 0001:0003b800       ?advance_to_next_pass@?$positional_parameter_base@_WV?$stream_output_adapter@_W@__crt_stdio_output@@@__crt_stdio_output@@IEAA_NXZ 000000018003c800 f i libucrtd:output.obj
 0001:0003b8b0       ?advance_to_next_pass@?$positional_parameter_base@_WV?$string_output_adapter@_W@__crt_stdio_output@@@__crt_stdio_output@@IEAA_NXZ 000000018003c8b0 f i libucrtd:output.obj
 0001:0003b960       ?advance_to_next_pass@?$standard_base@DV?$stream_output_adapter@D@__crt_stdio_output@@@__crt_stdio_output@@IEAA_NXZ 000000018003c960 f i libucrtd:output.obj
 0001:0003b9b0       ?advance_to_next_pass@?$standard_base@DV?$string_output_adapter@D@__crt_stdio_output@@@__crt_stdio_output@@IEAA_NXZ 000000018003c9b0 f i libucrtd:output.obj
 0001:0003ba00       ?advance_to_next_pass@?$standard_base@_WV?$stream_output_adapter@_W@__crt_stdio_output@@@__crt_stdio_output@@IEAA_NXZ 000000018003ca00 f i libucrtd:output.obj
 0001:0003ba50       ?advance_to_next_pass@?$standard_base@_WV?$string_output_adapter@_W@__crt_stdio_output@@@__crt_stdio_output@@IEAA_NXZ 000000018003ca50 f i libucrtd:output.obj
 0001:0003baa0       ?check@?$cached@H@__crt_cached_ptd_host@@QEBA_NH@Z 000000018003caa0 f i libucrtd:output.obj
 0001:0003bae0       ?check_synchronize_global_state_index@__crt_cached_ptd_host@@AEAA_KAEBV__crt_scoped_get_last_error_reset@@@Z 000000018003cae0 f i libucrtd:output.obj
 0001:0003bb20       ?check_synchronize_per_thread_data@__crt_cached_ptd_host@@AEAAPEAU__acrt_ptd@@XZ 000000018003cb20 f i libucrtd:output.obj
 0001:0003bb60       ?create_guard@?$cached@H@__crt_cached_ptd_host@@QEAA?AVguard@12@XZ 000000018003cb60 f i libucrtd:output.obj
 0001:0003bb90       ?crop_zeroes@__crt_stdio_output@@YAXPEADQEAU__crt_locale_pointers@@@Z 000000018003cb90 f i libucrtd:output.obj
 0001:0003bce0       ?disable@guard@?$cached@H@__crt_cached_ptd_host@@QEAAXXZ 000000018003cce0 f i libucrtd:output.obj
 0001:0003bcf0       ?enable@guard@?$cached@H@__crt_cached_ptd_host@@QEAAXXZ 000000018003ccf0 f i libucrtd:output.obj
 0001:0003bd00       ?find_next_state@?$output_processor@DV?$stream_output_adapter@D@__crt_stdio_output@@V?$format_validation_base@DV?$stream_output_adapter@D@__crt_stdio_output@@@2@@__crt_stdio_output@@AEBA?AW4state@2@DW432@@Z 000000018003cd00 f i libucrtd:output.obj
 0001:0003bda0       ?find_next_state@?$output_processor@DV?$stream_output_adapter@D@__crt_stdio_output@@V?$positional_parameter_base@DV?$stream_output_adapter@D@__crt_stdio_output@@@2@@__crt_stdio_output@@AEBA?AW4state@2@DW432@@Z 000000018003cda0 f i libucrtd:output.obj
 0001:0003be40       ?find_next_state@?$output_processor@DV?$stream_output_adapter@D@__crt_stdio_output@@V?$standard_base@DV?$stream_output_adapter@D@__crt_stdio_output@@@2@@__crt_stdio_output@@AEBA?AW4state@2@DW432@@Z 000000018003ce40 f i libucrtd:output.obj
 0001:0003bee0       ?find_next_state@?$output_processor@DV?$string_output_adapter@D@__crt_stdio_output@@V?$format_validation_base@DV?$string_output_adapter@D@__crt_stdio_output@@@2@@__crt_stdio_output@@AEBA?AW4state@2@DW432@@Z 000000018003cee0 f i libucrtd:output.obj
 0001:0003bf80       ?find_next_state@?$output_processor@DV?$string_output_adapter@D@__crt_stdio_output@@V?$positional_parameter_base@DV?$string_output_adapter@D@__crt_stdio_output@@@2@@__crt_stdio_output@@AEBA?AW4state@2@DW432@@Z 000000018003cf80 f i libucrtd:output.obj
 0001:0003c020       ?find_next_state@?$output_processor@DV?$string_output_adapter@D@__crt_stdio_output@@V?$standard_base@DV?$string_output_adapter@D@__crt_stdio_output@@@2@@__crt_stdio_output@@AEBA?AW4state@2@DW432@@Z 000000018003d020 f i libucrtd:output.obj
 0001:0003c0c0       ?find_next_state@?$output_processor@_WV?$stream_output_adapter@_W@__crt_stdio_output@@V?$format_validation_base@_WV?$stream_output_adapter@_W@__crt_stdio_output@@@2@@__crt_stdio_output@@AEBA?AW4state@2@_WW432@@Z 000000018003d0c0 f i libucrtd:output.obj
 0001:0003c160       ?find_next_state@?$output_processor@_WV?$stream_output_adapter@_W@__crt_stdio_output@@V?$positional_parameter_base@_WV?$stream_output_adapter@_W@__crt_stdio_output@@@2@@__crt_stdio_output@@AEBA?AW4state@2@_WW432@@Z 000000018003d160 f i libucrtd:output.obj
 0001:0003c200       ?find_next_state@?$output_processor@_WV?$stream_output_adapter@_W@__crt_stdio_output@@V?$standard_base@_WV?$stream_output_adapter@_W@__crt_stdio_output@@@2@@__crt_stdio_output@@AEBA?AW4state@2@_WW432@@Z 000000018003d200 f i libucrtd:output.obj
 0001:0003c2a0       ?find_next_state@?$output_processor@_WV?$string_output_adapter@_W@__crt_stdio_output@@V?$format_validation_base@_WV?$string_output_adapter@_W@__crt_stdio_output@@@2@@__crt_stdio_output@@AEBA?AW4state@2@_WW432@@Z 000000018003d2a0 f i libucrtd:output.obj
 0001:0003c340       ?find_next_state@?$output_processor@_WV?$string_output_adapter@_W@__crt_stdio_output@@V?$positional_parameter_base@_WV?$string_output_adapter@_W@__crt_stdio_output@@@2@@__crt_stdio_output@@AEBA?AW4state@2@_WW432@@Z 000000018003d340 f i libucrtd:output.obj
 0001:0003c3e0       ?find_next_state@?$output_processor@_WV?$string_output_adapter@_W@__crt_stdio_output@@V?$standard_base@_WV?$string_output_adapter@_W@__crt_stdio_output@@@2@@__crt_stdio_output@@AEBA?AW4state@2@_WW432@@Z 000000018003d3e0 f i libucrtd:output.obj
 0001:0003c480       ?force_decimal_point@__crt_stdio_output@@YAXPEADQEAU__crt_locale_pointers@@@Z 000000018003d480 f i libucrtd:output.obj
 0001:0003c580       ?force_synchronize_global_state_index@__crt_cached_ptd_host@@AEAA_KAEBV__crt_scoped_get_last_error_reset@@@Z 000000018003d580 f i libucrtd:output.obj
 0001:0003c5c0       ?force_synchronize_per_thread_data@__crt_cached_ptd_host@@AEAAPEAU__acrt_ptd@@XZ 000000018003d5c0 f i libucrtd:output.obj
 0001:0003c620       ?get@?$c_string_character_source@D@__crt_strtox@@QEAADXZ 000000018003d620 f i libucrtd:output.obj
 0001:0003c660       ?get@?$c_string_character_source@_W@__crt_strtox@@QEAA_WXZ 000000018003d660 f i libucrtd:output.obj
 0001:0003c6a0       ?get_current_state_index@__crt_state_management@@YA_KAEBV__crt_scoped_get_last_error_reset@@@Z 000000018003d6a0 f i libucrtd:output.obj
 0001:0003c6b0       ?get_errno@__crt_cached_ptd_host@@QEAAAEAU?$cached@H@1@XZ 000000018003d6b0 f i libucrtd:output.obj
 0001:0003c6c0       ?get_flags@__crt_stdio_stream@@QEBAJXZ 000000018003d6c0 f i libucrtd:output.obj
 0001:0003c6f0       ?get_locale@__crt_cached_ptd_host@@QEAAPEAU__crt_locale_pointers@@XZ 000000018003d6f0 f i libucrtd:output.obj
 0001:0003c720       ?get_parameter_type@?$positional_parameter_base@DV?$stream_output_adapter@D@__crt_stdio_output@@@__crt_stdio_output@@CA?AW4parameter_type@12@F@Z 000000018003d720 f i libucrtd:output.obj
 0001:0003c730       ?get_parameter_type@?$positional_parameter_base@DV?$stream_output_adapter@D@__crt_stdio_output@@@__crt_stdio_output@@CA?AW4parameter_type@12@G@Z 000000018003d730 f i libucrtd:output.obj
 0001:0003c740       ?get_parameter_type@?$positional_parameter_base@DV?$stream_output_adapter@D@__crt_stdio_output@@@__crt_stdio_output@@CA?AW4parameter_type@12@H@Z 000000018003d740 f i libucrtd:output.obj
 0001:0003c750       ?get_parameter_type@?$positional_parameter_base@DV?$stream_output_adapter@D@__crt_stdio_output@@@__crt_stdio_output@@CA?AW4parameter_type@12@I@Z 000000018003d750 f i libucrtd:output.obj
 0001:0003c760       ?get_parameter_type@?$positional_parameter_base@DV?$stream_output_adapter@D@__crt_stdio_output@@@__crt_stdio_output@@CA?AW4parameter_type@12@U_CRT_DOUBLE@@@Z 000000018003d760 f i libucrtd:output.obj
 0001:0003c770       ?get_parameter_type@?$positional_parameter_base@DV?$stream_output_adapter@D@__crt_stdio_output@@@__crt_stdio_output@@CA?AW4parameter_type@12@_J@Z 000000018003d770 f i libucrtd:output.obj
 0001:0003c780       ?get_parameter_type@?$positional_parameter_base@DV?$stream_output_adapter@D@__crt_stdio_output@@@__crt_stdio_output@@CA?AW4parameter_type@12@_K@Z 000000018003d780 f i libucrtd:output.obj
 0001:0003c790       ?get_parameter_type@?$positional_parameter_base@DV?$stream_output_adapter@D@__crt_stdio_output@@@__crt_stdio_output@@CA?AW4parameter_type@12@_W@Z 000000018003d790 f i libucrtd:output.obj
 0001:0003c7a0       ?get_parameter_type@?$positional_parameter_base@DV?$string_output_adapter@D@__crt_stdio_output@@@__crt_stdio_output@@CA?AW4parameter_type@12@F@Z 000000018003d7a0 f i libucrtd:output.obj
 0001:0003c7b0       ?get_parameter_type@?$positional_parameter_base@DV?$string_output_adapter@D@__crt_stdio_output@@@__crt_stdio_output@@CA?AW4parameter_type@12@G@Z 000000018003d7b0 f i libucrtd:output.obj
 0001:0003c7c0       ?get_parameter_type@?$positional_parameter_base@DV?$string_output_adapter@D@__crt_stdio_output@@@__crt_stdio_output@@CA?AW4parameter_type@12@H@Z 000000018003d7c0 f i libucrtd:output.obj
 0001:0003c7d0       ?get_parameter_type@?$positional_parameter_base@DV?$string_output_adapter@D@__crt_stdio_output@@@__crt_stdio_output@@CA?AW4parameter_type@12@I@Z 000000018003d7d0 f i libucrtd:output.obj
 0001:0003c7e0       ?get_parameter_type@?$positional_parameter_base@DV?$string_output_adapter@D@__crt_stdio_output@@@__crt_stdio_output@@CA?AW4parameter_type@12@U_CRT_DOUBLE@@@Z 000000018003d7e0 f i libucrtd:output.obj
 0001:0003c7f0       ?get_parameter_type@?$positional_parameter_base@DV?$string_output_adapter@D@__crt_stdio_output@@@__crt_stdio_output@@CA?AW4parameter_type@12@_J@Z 000000018003d7f0 f i libucrtd:output.obj
 0001:0003c800       ?get_parameter_type@?$positional_parameter_base@DV?$string_output_adapter@D@__crt_stdio_output@@@__crt_stdio_output@@CA?AW4parameter_type@12@_K@Z 000000018003d800 f i libucrtd:output.obj
 0001:0003c810       ?get_parameter_type@?$positional_parameter_base@DV?$string_output_adapter@D@__crt_stdio_output@@@__crt_stdio_output@@CA?AW4parameter_type@12@_W@Z 000000018003d810 f i libucrtd:output.obj
 0001:0003c820       ?get_parameter_type@?$positional_parameter_base@_WV?$stream_output_adapter@_W@__crt_stdio_output@@@__crt_stdio_output@@CA?AW4parameter_type@12@F@Z 000000018003d820 f i libucrtd:output.obj
 0001:0003c830       ?get_parameter_type@?$positional_parameter_base@_WV?$stream_output_adapter@_W@__crt_stdio_output@@@__crt_stdio_output@@CA?AW4parameter_type@12@G@Z 000000018003d830 f i libucrtd:output.obj
 0001:0003c840       ?get_parameter_type@?$positional_parameter_base@_WV?$stream_output_adapter@_W@__crt_stdio_output@@@__crt_stdio_output@@CA?AW4parameter_type@12@H@Z 000000018003d840 f i libucrtd:output.obj
 0001:0003c850       ?get_parameter_type@?$positional_parameter_base@_WV?$stream_output_adapter@_W@__crt_stdio_output@@@__crt_stdio_output@@CA?AW4parameter_type@12@I@Z 000000018003d850 f i libucrtd:output.obj
 0001:0003c860       ?get_parameter_type@?$positional_parameter_base@_WV?$stream_output_adapter@_W@__crt_stdio_output@@@__crt_stdio_output@@CA?AW4parameter_type@12@U_CRT_DOUBLE@@@Z 000000018003d860 f i libucrtd:output.obj
 0001:0003c870       ?get_parameter_type@?$positional_parameter_base@_WV?$stream_output_adapter@_W@__crt_stdio_output@@@__crt_stdio_output@@CA?AW4parameter_type@12@_J@Z 000000018003d870 f i libucrtd:output.obj
 0001:0003c880       ?get_parameter_type@?$positional_parameter_base@_WV?$stream_output_adapter@_W@__crt_stdio_output@@@__crt_stdio_output@@CA?AW4parameter_type@12@_K@Z 000000018003d880 f i libucrtd:output.obj
 0001:0003c890       ?get_parameter_type@?$positional_parameter_base@_WV?$stream_output_adapter@_W@__crt_stdio_output@@@__crt_stdio_output@@CA?AW4parameter_type@12@_W@Z 000000018003d890 f i libucrtd:output.obj
 0001:0003c8a0       ?get_parameter_type@?$positional_parameter_base@_WV?$string_output_adapter@_W@__crt_stdio_output@@@__crt_stdio_output@@CA?AW4parameter_type@12@F@Z 000000018003d8a0 f i libucrtd:output.obj
 0001:0003c8b0       ?get_parameter_type@?$positional_parameter_base@_WV?$string_output_adapter@_W@__crt_stdio_output@@@__crt_stdio_output@@CA?AW4parameter_type@12@G@Z 000000018003d8b0 f i libucrtd:output.obj
 0001:0003c8c0       ?get_parameter_type@?$positional_parameter_base@_WV?$string_output_adapter@_W@__crt_stdio_output@@@__crt_stdio_output@@CA?AW4parameter_type@12@H@Z 000000018003d8c0 f i libucrtd:output.obj
 0001:0003c8d0       ?get_parameter_type@?$positional_parameter_base@_WV?$string_output_adapter@_W@__crt_stdio_output@@@__crt_stdio_output@@CA?AW4parameter_type@12@I@Z 000000018003d8d0 f i libucrtd:output.obj
 0001:0003c8e0       ?get_parameter_type@?$positional_parameter_base@_WV?$string_output_adapter@_W@__crt_stdio_output@@@__crt_stdio_output@@CA?AW4parameter_type@12@U_CRT_DOUBLE@@@Z 000000018003d8e0 f i libucrtd:output.obj
 0001:0003c8f0       ?get_parameter_type@?$positional_parameter_base@_WV?$string_output_adapter@_W@__crt_stdio_output@@@__crt_stdio_output@@CA?AW4parameter_type@12@_J@Z 000000018003d8f0 f i libucrtd:output.obj
 0001:0003c900       ?get_parameter_type@?$positional_parameter_base@_WV?$string_output_adapter@_W@__crt_stdio_output@@@__crt_stdio_output@@CA?AW4parameter_type@12@_K@Z 000000018003d900 f i libucrtd:output.obj
 0001:0003c910       ?get_parameter_type@?$positional_parameter_base@_WV?$string_output_adapter@_W@__crt_stdio_output@@@__crt_stdio_output@@CA?AW4parameter_type@12@_W@Z 000000018003d910 f i libucrtd:output.obj
 0001:0003c920       ?get_raw_ptd@__crt_cached_ptd_host@@QEAAPEAU__acrt_ptd@@XZ 000000018003d920 f i libucrtd:output.obj
 0001:0003c940       ?has_flag@?$output_processor@DV?$stream_output_adapter@D@__crt_stdio_output@@V?$format_validation_base@DV?$stream_output_adapter@D@__crt_stdio_output@@@2@@__crt_stdio_output@@AEBA_NI@Z 000000018003d940 f i libucrtd:output.obj
 0001:0003c980       ?has_flag@?$output_processor@DV?$stream_output_adapter@D@__crt_stdio_output@@V?$positional_parameter_base@DV?$stream_output_adapter@D@__crt_stdio_output@@@2@@__crt_stdio_output@@AEBA_NI@Z 000000018003d980 f i libucrtd:output.obj
 0001:0003c9c0       ?has_flag@?$output_processor@DV?$stream_output_adapter@D@__crt_stdio_output@@V?$standard_base@DV?$stream_output_adapter@D@__crt_stdio_output@@@2@@__crt_stdio_output@@AEBA_NI@Z 000000018003d9c0 f i libucrtd:output.obj
 0001:0003ca00       ?has_flag@?$output_processor@DV?$string_output_adapter@D@__crt_stdio_output@@V?$format_validation_base@DV?$string_output_adapter@D@__crt_stdio_output@@@2@@__crt_stdio_output@@AEBA_NI@Z 000000018003da00 f i libucrtd:output.obj
 0001:0003ca40       ?has_flag@?$output_processor@DV?$string_output_adapter@D@__crt_stdio_output@@V?$positional_parameter_base@DV?$string_output_adapter@D@__crt_stdio_output@@@2@@__crt_stdio_output@@AEBA_NI@Z 000000018003da40 f i libucrtd:output.obj
 0001:0003ca80       ?has_flag@?$output_processor@DV?$string_output_adapter@D@__crt_stdio_output@@V?$standard_base@DV?$string_output_adapter@D@__crt_stdio_output@@@2@@__crt_stdio_output@@AEBA_NI@Z 000000018003da80 f i libucrtd:output.obj
 0001:0003cac0       ?has_flag@?$output_processor@_WV?$stream_output_adapter@_W@__crt_stdio_output@@V?$format_validation_base@_WV?$stream_output_adapter@_W@__crt_stdio_output@@@2@@__crt_stdio_output@@AEBA_NI@Z 000000018003dac0 f i libucrtd:output.obj
 0001:0003cb00       ?has_flag@?$output_processor@_WV?$stream_output_adapter@_W@__crt_stdio_output@@V?$positional_parameter_base@_WV?$stream_output_adapter@_W@__crt_stdio_output@@@2@@__crt_stdio_output@@AEBA_NI@Z 000000018003db00 f i libucrtd:output.obj
 0001:0003cb40       ?has_flag@?$output_processor@_WV?$stream_output_adapter@_W@__crt_stdio_output@@V?$standard_base@_WV?$stream_output_adapter@_W@__crt_stdio_output@@@2@@__crt_stdio_output@@AEBA_NI@Z 000000018003db40 f i libucrtd:output.obj
 0001:0003cb80       ?has_flag@?$output_processor@_WV?$string_output_adapter@_W@__crt_stdio_output@@V?$format_validation_base@_WV?$string_output_adapter@_W@__crt_stdio_output@@@2@@__crt_stdio_output@@AEBA_NI@Z 000000018003db80 f i libucrtd:output.obj
 0001:0003cbc0       ?has_flag@?$output_processor@_WV?$string_output_adapter@_W@__crt_stdio_output@@V?$positional_parameter_base@_WV?$string_output_adapter@_W@__crt_stdio_output@@@2@@__crt_stdio_output@@AEBA_NI@Z 000000018003dbc0 f i libucrtd:output.obj
 0001:0003cc00       ?has_flag@?$output_processor@_WV?$string_output_adapter@_W@__crt_stdio_output@@V?$standard_base@_WV?$string_output_adapter@_W@__crt_stdio_output@@@2@@__crt_stdio_output@@AEBA_NI@Z 000000018003dc00 f i libucrtd:output.obj
 0001:0003cc40       ?is_positional_parameter_reappearance_consistent@?$positional_parameter_base@DV?$stream_output_adapter@D@__crt_stdio_output@@@__crt_stdio_output@@AEAA_NAEBUparameter_data@12@W4parameter_type@12@DW4length_modifier@2@@Z 000000018003dc40 f i libucrtd:output.obj
 0001:0003cea0       ?is_positional_parameter_reappearance_consistent@?$positional_parameter_base@DV?$string_output_adapter@D@__crt_stdio_output@@@__crt_stdio_output@@AEAA_NAEBUparameter_data@12@W4parameter_type@12@DW4length_modifier@2@@Z 000000018003dea0 f i libucrtd:output.obj
 0001:0003d100       ?is_positional_parameter_reappearance_consistent@?$positional_parameter_base@_WV?$stream_output_adapter@_W@__crt_stdio_output@@@__crt_stdio_output@@AEAA_NAEBUparameter_data@12@W4parameter_type@12@_WW4length_modifier@2@@Z 000000018003e100 f i libucrtd:output.obj
 0001:0003d360       ?is_positional_parameter_reappearance_consistent@?$positional_parameter_base@_WV?$string_output_adapter@_W@__crt_stdio_output@@@__crt_stdio_output@@AEAA_NAEBUparameter_data@12@W4parameter_type@12@_WW4length_modifier@2@@Z 000000018003e360 f i libucrtd:output.obj
 0001:0003d5c0       ?is_string_backed@__crt_stdio_stream@@QEBA_NXZ 000000018003e5c0 f i libucrtd:output.obj
 0001:0003d600       ?maximum_signed_value@__crt_strtox@@YAJK@Z 000000018003e600 f i libucrtd:output.obj
 0001:0003d610       ?minimum_signed_value@__crt_strtox@@YAJK@Z 000000018003e610 f i libucrtd:output.obj
 0001:0003d620       ?narrow_null_string@?$output_processor@DV?$stream_output_adapter@D@__crt_stdio_output@@V?$format_validation_base@DV?$stream_output_adapter@D@__crt_stdio_output@@@2@@__crt_stdio_output@@CAPEADXZ 000000018003e620 f i libucrtd:output.obj
 0001:0003d630       ?narrow_null_string@?$output_processor@DV?$stream_output_adapter@D@__crt_stdio_output@@V?$positional_parameter_base@DV?$stream_output_adapter@D@__crt_stdio_output@@@2@@__crt_stdio_output@@CAPEADXZ 000000018003e630 f i libucrtd:output.obj
 0001:0003d640       ?narrow_null_string@?$output_processor@DV?$stream_output_adapter@D@__crt_stdio_output@@V?$standard_base@DV?$stream_output_adapter@D@__crt_stdio_output@@@2@@__crt_stdio_output@@CAPEADXZ 000000018003e640 f i libucrtd:output.obj
 0001:0003d650       ?narrow_null_string@?$output_processor@DV?$string_output_adapter@D@__crt_stdio_output@@V?$format_validation_base@DV?$string_output_adapter@D@__crt_stdio_output@@@2@@__crt_stdio_output@@CAPEADXZ 000000018003e650 f i libucrtd:output.obj
 0001:0003d660       ?narrow_null_string@?$output_processor@DV?$string_output_adapter@D@__crt_stdio_output@@V?$positional_parameter_base@DV?$string_output_adapter@D@__crt_stdio_output@@@2@@__crt_stdio_output@@CAPEADXZ 000000018003e660 f i libucrtd:output.obj
 0001:0003d670       ?narrow_null_string@?$output_processor@DV?$string_output_adapter@D@__crt_stdio_output@@V?$standard_base@DV?$string_output_adapter@D@__crt_stdio_output@@@2@@__crt_stdio_output@@CAPEADXZ 000000018003e670 f i libucrtd:output.obj
 0001:0003d680       ?narrow_null_string@?$output_processor@_WV?$stream_output_adapter@_W@__crt_stdio_output@@V?$format_validation_base@_WV?$stream_output_adapter@_W@__crt_stdio_output@@@2@@__crt_stdio_output@@CAPEADXZ 000000018003e680 f i libucrtd:output.obj
 0001:0003d690       ?narrow_null_string@?$output_processor@_WV?$stream_output_adapter@_W@__crt_stdio_output@@V?$positional_parameter_base@_WV?$stream_output_adapter@_W@__crt_stdio_output@@@2@@__crt_stdio_output@@CAPEADXZ 000000018003e690 f i libucrtd:output.obj
 0001:0003d6a0       ?narrow_null_string@?$output_processor@_WV?$stream_output_adapter@_W@__crt_stdio_output@@V?$standard_base@_WV?$stream_output_adapter@_W@__crt_stdio_output@@@2@@__crt_stdio_output@@CAPEADXZ 000000018003e6a0 f i libucrtd:output.obj
 0001:0003d6b0       ?narrow_null_string@?$output_processor@_WV?$string_output_adapter@_W@__crt_stdio_output@@V?$format_validation_base@_WV?$string_output_adapter@_W@__crt_stdio_output@@@2@@__crt_stdio_output@@CAPEADXZ 000000018003e6b0 f i libucrtd:output.obj
 0001:0003d6c0       ?narrow_null_string@?$output_processor@_WV?$string_output_adapter@_W@__crt_stdio_output@@V?$positional_parameter_base@_WV?$string_output_adapter@_W@__crt_stdio_output@@@2@@__crt_stdio_output@@CAPEADXZ 000000018003e6c0 f i libucrtd:output.obj
 0001:0003d6d0       ?narrow_null_string@?$output_processor@_WV?$string_output_adapter@_W@__crt_stdio_output@@V?$standard_base@_WV?$string_output_adapter@_W@__crt_stdio_output@@@2@@__crt_stdio_output@@CAPEADXZ 000000018003e6d0 f i libucrtd:output.obj
 0001:0003d6e0       ?parse_digit@__crt_strtox@@YAID@Z 000000018003e6e0 f i libucrtd:output.obj
 0001:0003d750       ?parse_digit@__crt_strtox@@YAI_W@Z 000000018003e750 f i libucrtd:output.obj
 0001:0003d7a0       ?parse_int_from_format_string@?$output_processor@DV?$stream_output_adapter@D@__crt_stdio_output@@V?$format_validation_base@DV?$stream_output_adapter@D@__crt_stdio_output@@@2@@__crt_stdio_output@@AEAA_NQEAH@Z 000000018003e7a0 f i libucrtd:output.obj
 0001:0003d8a0       ?parse_int_from_format_string@?$output_processor@DV?$stream_output_adapter@D@__crt_stdio_output@@V?$positional_parameter_base@DV?$stream_output_adapter@D@__crt_stdio_output@@@2@@__crt_stdio_output@@AEAA_NQEAH@Z 000000018003e8a0 f i libucrtd:output.obj
 0001:0003d9a0       ?parse_int_from_format_string@?$output_processor@DV?$stream_output_adapter@D@__crt_stdio_output@@V?$standard_base@DV?$stream_output_adapter@D@__crt_stdio_output@@@2@@__crt_stdio_output@@AEAA_NQEAH@Z 000000018003e9a0 f i libucrtd:output.obj
 0001:0003daa0       ?parse_int_from_format_string@?$output_processor@DV?$string_output_adapter@D@__crt_stdio_output@@V?$format_validation_base@DV?$string_output_adapter@D@__crt_stdio_output@@@2@@__crt_stdio_output@@AEAA_NQEAH@Z 000000018003eaa0 f i libucrtd:output.obj
 0001:0003dba0       ?parse_int_from_format_string@?$output_processor@DV?$string_output_adapter@D@__crt_stdio_output@@V?$positional_parameter_base@DV?$string_output_adapter@D@__crt_stdio_output@@@2@@__crt_stdio_output@@AEAA_NQEAH@Z 000000018003eba0 f i libucrtd:output.obj
 0001:0003dca0       ?parse_int_from_format_string@?$output_processor@DV?$string_output_adapter@D@__crt_stdio_output@@V?$standard_base@DV?$string_output_adapter@D@__crt_stdio_output@@@2@@__crt_stdio_output@@AEAA_NQEAH@Z 000000018003eca0 f i libucrtd:output.obj
 0001:0003dda0       ?parse_int_from_format_string@?$output_processor@_WV?$stream_output_adapter@_W@__crt_stdio_output@@V?$format_validation_base@_WV?$stream_output_adapter@_W@__crt_stdio_output@@@2@@__crt_stdio_output@@AEAA_NQEAH@Z 000000018003eda0 f i libucrtd:output.obj
 0001:0003dea0       ?parse_int_from_format_string@?$output_processor@_WV?$stream_output_adapter@_W@__crt_stdio_output@@V?$positional_parameter_base@_WV?$stream_output_adapter@_W@__crt_stdio_output@@@2@@__crt_stdio_output@@AEAA_NQEAH@Z 000000018003eea0 f i libucrtd:output.obj
 0001:0003dfa0       ?parse_int_from_format_string@?$output_processor@_WV?$stream_output_adapter@_W@__crt_stdio_output@@V?$standard_base@_WV?$stream_output_adapter@_W@__crt_stdio_output@@@2@@__crt_stdio_output@@AEAA_NQEAH@Z 000000018003efa0 f i libucrtd:output.obj
 0001:0003e0a0       ?parse_int_from_format_string@?$output_processor@_WV?$string_output_adapter@_W@__crt_stdio_output@@V?$format_validation_base@_WV?$string_output_adapter@_W@__crt_stdio_output@@@2@@__crt_stdio_output@@AEAA_NQEAH@Z 000000018003f0a0 f i libucrtd:output.obj
 0001:0003e1a0       ?parse_int_from_format_string@?$output_processor@_WV?$string_output_adapter@_W@__crt_stdio_output@@V?$positional_parameter_base@_WV?$string_output_adapter@_W@__crt_stdio_output@@@2@@__crt_stdio_output@@AEAA_NQEAH@Z 000000018003f1a0 f i libucrtd:output.obj
 0001:0003e2a0       ?parse_int_from_format_string@?$output_processor@_WV?$string_output_adapter@_W@__crt_stdio_output@@V?$standard_base@_WV?$string_output_adapter@_W@__crt_stdio_output@@@2@@__crt_stdio_output@@AEAA_NQEAH@Z 000000018003f2a0 f i libucrtd:output.obj
 0001:0003e3a0       ?process@?$output_processor@DV?$stream_output_adapter@D@__crt_stdio_output@@V?$format_validation_base@DV?$stream_output_adapter@D@__crt_stdio_output@@@2@@__crt_stdio_output@@QEAAHXZ 000000018003f3a0 f i libucrtd:output.obj
 0001:0003e760       ?process@?$output_processor@DV?$stream_output_adapter@D@__crt_stdio_output@@V?$positional_parameter_base@DV?$stream_output_adapter@D@__crt_stdio_output@@@2@@__crt_stdio_output@@QEAAHXZ 000000018003f760 f i libucrtd:output.obj
 0001:0003eb20       ?process@?$output_processor@DV?$stream_output_adapter@D@__crt_stdio_output@@V?$standard_base@DV?$stream_output_adapter@D@__crt_stdio_output@@@2@@__crt_stdio_output@@QEAAHXZ 000000018003fb20 f i libucrtd:output.obj
 0001:0003eee0       ?process@?$output_processor@DV?$string_output_adapter@D@__crt_stdio_output@@V?$format_validation_base@DV?$string_output_adapter@D@__crt_stdio_output@@@2@@__crt_stdio_output@@QEAAHXZ 000000018003fee0 f i libucrtd:output.obj
 0001:0003f2a0       ?process@?$output_processor@DV?$string_output_adapter@D@__crt_stdio_output@@V?$positional_parameter_base@DV?$string_output_adapter@D@__crt_stdio_output@@@2@@__crt_stdio_output@@QEAAHXZ 00000001800402a0 f i libucrtd:output.obj
 0001:0003f660       ?process@?$output_processor@DV?$string_output_adapter@D@__crt_stdio_output@@V?$standard_base@DV?$string_output_adapter@D@__crt_stdio_output@@@2@@__crt_stdio_output@@QEAAHXZ 0000000180040660 f i libucrtd:output.obj
 0001:0003fa20       ?process@?$output_processor@_WV?$stream_output_adapter@_W@__crt_stdio_output@@V?$format_validation_base@_WV?$stream_output_adapter@_W@__crt_stdio_output@@@2@@__crt_stdio_output@@QEAAHXZ 0000000180040a20 f i libucrtd:output.obj
 0001:0003fde0       ?process@?$output_processor@_WV?$stream_output_adapter@_W@__crt_stdio_output@@V?$positional_parameter_base@_WV?$stream_output_adapter@_W@__crt_stdio_output@@@2@@__crt_stdio_output@@QEAAHXZ 0000000180040de0 f i libucrtd:output.obj
 0001:000401a0       ?process@?$output_processor@_WV?$stream_output_adapter@_W@__crt_stdio_output@@V?$standard_base@_WV?$stream_output_adapter@_W@__crt_stdio_output@@@2@@__crt_stdio_output@@QEAAHXZ 00000001800411a0 f i libucrtd:output.obj
 0001:00040560       ?process@?$output_processor@_WV?$string_output_adapter@_W@__crt_stdio_output@@V?$format_validation_base@_WV?$string_output_adapter@_W@__crt_stdio_output@@@2@@__crt_stdio_output@@QEAAHXZ 0000000180041560 f i libucrtd:output.obj
 0001:00040920       ?process@?$output_processor@_WV?$string_output_adapter@_W@__crt_stdio_output@@V?$positional_parameter_base@_WV?$string_output_adapter@_W@__crt_stdio_output@@@2@@__crt_stdio_output@@QEAAHXZ 0000000180041920 f i libucrtd:output.obj
 0001:00040ce0       ?process@?$output_processor@_WV?$string_output_adapter@_W@__crt_stdio_output@@V?$standard_base@_WV?$string_output_adapter@_W@__crt_stdio_output@@@2@@__crt_stdio_output@@QEAAHXZ 0000000180041ce0 f i libucrtd:output.obj
 0001:000410a0       ?public_stream@__crt_stdio_stream@@QEBAPEAU_iobuf@@XZ 00000001800420a0 f i libucrtd:output.obj
 0001:000410b0       ?restore_state@?$c_string_character_source@D@__crt_strtox@@QEAA_NQEBD@Z 00000001800420b0 f i libucrtd:output.obj
 0001:000410d0       ?restore_state@?$c_string_character_source@_W@__crt_strtox@@QEAA_NQEB_W@Z 00000001800420d0 f i libucrtd:output.obj
 0001:000410f0       ?save_state@?$c_string_character_source@D@__crt_strtox@@QEBAPEBDXZ 00000001800420f0 f i libucrtd:output.obj
 0001:00041100       ?save_state@?$c_string_character_source@_W@__crt_strtox@@QEBAPEB_WXZ 0000000180042100 f i libucrtd:output.obj
 0001:00041110       ?set@?$cached@H@__crt_cached_ptd_host@@QEAAHH@Z 0000000180042110 f i libucrtd:output.obj
 0001:00041140       ?set_flag@?$output_processor@DV?$stream_output_adapter@D@__crt_stdio_output@@V?$format_validation_base@DV?$stream_output_adapter@D@__crt_stdio_output@@@2@@__crt_stdio_output@@AEAAXI@Z 0000000180042140 f i libucrtd:output.obj
 0001:00041160       ?set_flag@?$output_processor@DV?$stream_output_adapter@D@__crt_stdio_output@@V?$positional_parameter_base@DV?$stream_output_adapter@D@__crt_stdio_output@@@2@@__crt_stdio_output@@AEAAXI@Z 0000000180042160 f i libucrtd:output.obj
 0001:00041180       ?set_flag@?$output_processor@DV?$stream_output_adapter@D@__crt_stdio_output@@V?$standard_base@DV?$stream_output_adapter@D@__crt_stdio_output@@@2@@__crt_stdio_output@@AEAAXI@Z 0000000180042180 f i libucrtd:output.obj
 0001:000411a0       ?set_flag@?$output_processor@DV?$string_output_adapter@D@__crt_stdio_output@@V?$format_validation_base@DV?$string_output_adapter@D@__crt_stdio_output@@@2@@__crt_stdio_output@@AEAAXI@Z 00000001800421a0 f i libucrtd:output.obj
 0001:000411c0       ?set_flag@?$output_processor@DV?$string_output_adapter@D@__crt_stdio_output@@V?$positional_parameter_base@DV?$string_output_adapter@D@__crt_stdio_output@@@2@@__crt_stdio_output@@AEAAXI@Z 00000001800421c0 f i libucrtd:output.obj
 0001:000411e0       ?set_flag@?$output_processor@DV?$string_output_adapter@D@__crt_stdio_output@@V?$standard_base@DV?$string_output_adapter@D@__crt_stdio_output@@@2@@__crt_stdio_output@@AEAAXI@Z 00000001800421e0 f i libucrtd:output.obj
 0001:00041200       ?set_flag@?$output_processor@_WV?$stream_output_adapter@_W@__crt_stdio_output@@V?$format_validation_base@_WV?$stream_output_adapter@_W@__crt_stdio_output@@@2@@__crt_stdio_output@@AEAAXI@Z 0000000180042200 f i libucrtd:output.obj
 0001:00041220       ?set_flag@?$output_processor@_WV?$stream_output_adapter@_W@__crt_stdio_output@@V?$positional_parameter_base@_WV?$stream_output_adapter@_W@__crt_stdio_output@@@2@@__crt_stdio_output@@AEAAXI@Z 0000000180042220 f i libucrtd:output.obj
 0001:00041240       ?set_flag@?$output_processor@_WV?$stream_output_adapter@_W@__crt_stdio_output@@V?$standard_base@_WV?$stream_output_adapter@_W@__crt_stdio_output@@@2@@__crt_stdio_output@@AEAAXI@Z 0000000180042240 f i libucrtd:output.obj
 0001:00041260       ?set_flag@?$output_processor@_WV?$string_output_adapter@_W@__crt_stdio_output@@V?$format_validation_base@_WV?$string_output_adapter@_W@__crt_stdio_output@@@2@@__crt_stdio_output@@AEAAXI@Z 0000000180042260 f i libucrtd:output.obj
 0001:00041280       ?set_flag@?$output_processor@_WV?$string_output_adapter@_W@__crt_stdio_output@@V?$positional_parameter_base@_WV?$string_output_adapter@_W@__crt_stdio_output@@@2@@__crt_stdio_output@@AEAAXI@Z 0000000180042280 f i libucrtd:output.obj
 0001:000412a0       ?set_flag@?$output_processor@_WV?$string_output_adapter@_W@__crt_stdio_output@@V?$standard_base@_WV?$string_output_adapter@_W@__crt_stdio_output@@@2@@__crt_stdio_output@@AEAAXI@Z 00000001800422a0 f i libucrtd:output.obj
 0001:000412c0       ?should_format@?$positional_parameter_base@DV?$stream_output_adapter@D@__crt_stdio_output@@@__crt_stdio_output@@IEAA_NXZ 00000001800422c0 f i libucrtd:output.obj
 0001:00041300       ?should_format@?$positional_parameter_base@DV?$string_output_adapter@D@__crt_stdio_output@@@__crt_stdio_output@@IEAA_NXZ 0000000180042300 f i libucrtd:output.obj
 0001:00041340       ?should_format@?$positional_parameter_base@_WV?$stream_output_adapter@_W@__crt_stdio_output@@@__crt_stdio_output@@IEAA_NXZ 0000000180042340 f i libucrtd:output.obj
 0001:00041380       ?should_format@?$positional_parameter_base@_WV?$string_output_adapter@_W@__crt_stdio_output@@@__crt_stdio_output@@IEAA_NXZ 0000000180042380 f i libucrtd:output.obj
 0001:000413c0       ?should_format@?$standard_base@DV?$stream_output_adapter@D@__crt_stdio_output@@@__crt_stdio_output@@IEAA_NXZ 00000001800423c0 f i libucrtd:output.obj
 0001:000413d0       ?should_format@?$standard_base@DV?$string_output_adapter@D@__crt_stdio_output@@@__crt_stdio_output@@IEAA_NXZ 00000001800423d0 f i libucrtd:output.obj
 0001:000413e0       ?should_format@?$standard_base@_WV?$stream_output_adapter@_W@__crt_stdio_output@@@__crt_stdio_output@@IEAA_NXZ 00000001800423e0 f i libucrtd:output.obj
 0001:000413f0       ?should_format@?$standard_base@_WV?$string_output_adapter@_W@__crt_stdio_output@@@__crt_stdio_output@@IEAA_NXZ 00000001800423f0 f i libucrtd:output.obj
 0001:00041400       ?should_skip_normal_state_processing@?$positional_parameter_base@DV?$stream_output_adapter@D@__crt_stdio_output@@@__crt_stdio_output@@IEAA_NXZ 0000000180042400 f i libucrtd:output.obj
 0001:00041450       ?should_skip_normal_state_processing@?$positional_parameter_base@DV?$string_output_adapter@D@__crt_stdio_output@@@__crt_stdio_output@@IEAA_NXZ 0000000180042450 f i libucrtd:output.obj
 0001:000414a0       ?should_skip_normal_state_processing@?$positional_parameter_base@_WV?$stream_output_adapter@_W@__crt_stdio_output@@@__crt_stdio_output@@IEAA_NXZ 00000001800424a0 f i libucrtd:output.obj
 0001:000414f0       ?should_skip_normal_state_processing@?$positional_parameter_base@_WV?$string_output_adapter@_W@__crt_stdio_output@@@__crt_stdio_output@@IEAA_NXZ 00000001800424f0 f i libucrtd:output.obj
 0001:00041540       ?should_skip_normal_state_processing@?$standard_base@DV?$stream_output_adapter@D@__crt_stdio_output@@@__crt_stdio_output@@IEAA_NXZ 0000000180042540 f i libucrtd:output.obj
 0001:00041550       ?should_skip_normal_state_processing@?$standard_base@DV?$string_output_adapter@D@__crt_stdio_output@@@__crt_stdio_output@@IEAA_NXZ 0000000180042550 f i libucrtd:output.obj
 0001:00041560       ?should_skip_normal_state_processing@?$standard_base@_WV?$stream_output_adapter@_W@__crt_stdio_output@@@__crt_stdio_output@@IEAA_NXZ 0000000180042560 f i libucrtd:output.obj
 0001:00041570       ?should_skip_normal_state_processing@?$standard_base@_WV?$string_output_adapter@_W@__crt_stdio_output@@@__crt_stdio_output@@IEAA_NXZ 0000000180042570 f i libucrtd:output.obj
 0001:00041580       ?should_skip_type_state_output@?$positional_parameter_base@DV?$stream_output_adapter@D@__crt_stdio_output@@@__crt_stdio_output@@IEBA_NXZ 0000000180042580 f i libucrtd:output.obj
 0001:000415c0       ?should_skip_type_state_output@?$positional_parameter_base@DV?$string_output_adapter@D@__crt_stdio_output@@@__crt_stdio_output@@IEBA_NXZ 00000001800425c0 f i libucrtd:output.obj
 0001:00041600       ?should_skip_type_state_output@?$positional_parameter_base@_WV?$stream_output_adapter@_W@__crt_stdio_output@@@__crt_stdio_output@@IEBA_NXZ 0000000180042600 f i libucrtd:output.obj
 0001:00041640       ?should_skip_type_state_output@?$positional_parameter_base@_WV?$string_output_adapter@_W@__crt_stdio_output@@@__crt_stdio_output@@IEBA_NXZ 0000000180042640 f i libucrtd:output.obj
 0001:00041680       ?should_skip_type_state_output@?$standard_base@DV?$stream_output_adapter@D@__crt_stdio_output@@@__crt_stdio_output@@IEBA_NXZ 0000000180042680 f i libucrtd:output.obj
 0001:00041690       ?should_skip_type_state_output@?$standard_base@DV?$string_output_adapter@D@__crt_stdio_output@@@__crt_stdio_output@@IEBA_NXZ 0000000180042690 f i libucrtd:output.obj
 0001:000416a0       ?should_skip_type_state_output@?$standard_base@_WV?$stream_output_adapter@_W@__crt_stdio_output@@@__crt_stdio_output@@IEBA_NXZ 00000001800426a0 f i libucrtd:output.obj
 0001:000416b0       ?should_skip_type_state_output@?$standard_base@_WV?$string_output_adapter@_W@__crt_stdio_output@@@__crt_stdio_output@@IEBA_NXZ 00000001800426b0 f i libucrtd:output.obj
 0001:000416c0       ?state_case_dot@?$output_processor@DV?$stream_output_adapter@D@__crt_stdio_output@@V?$format_validation_base@DV?$stream_output_adapter@D@__crt_stdio_output@@@2@@__crt_stdio_output@@AEAA_NXZ 00000001800426c0 f i libucrtd:output.obj
 0001:000416e0       ?state_case_dot@?$output_processor@DV?$stream_output_adapter@D@__crt_stdio_output@@V?$positional_parameter_base@DV?$stream_output_adapter@D@__crt_stdio_output@@@2@@__crt_stdio_output@@AEAA_NXZ 00000001800426e0 f i libucrtd:output.obj
 0001:00041700       ?state_case_dot@?$output_processor@DV?$stream_output_adapter@D@__crt_stdio_output@@V?$standard_base@DV?$stream_output_adapter@D@__crt_stdio_output@@@2@@__crt_stdio_output@@AEAA_NXZ 0000000180042700 f i libucrtd:output.obj
 0001:00041720       ?state_case_dot@?$output_processor@DV?$string_output_adapter@D@__crt_stdio_output@@V?$format_validation_base@DV?$string_output_adapter@D@__crt_stdio_output@@@2@@__crt_stdio_output@@AEAA_NXZ 0000000180042720 f i libucrtd:output.obj
 0001:00041740       ?state_case_dot@?$output_processor@DV?$string_output_adapter@D@__crt_stdio_output@@V?$positional_parameter_base@DV?$string_output_adapter@D@__crt_stdio_output@@@2@@__crt_stdio_output@@AEAA_NXZ 0000000180042740 f i libucrtd:output.obj
 0001:00041760       ?state_case_dot@?$output_processor@DV?$string_output_adapter@D@__crt_stdio_output@@V?$standard_base@DV?$string_output_adapter@D@__crt_stdio_output@@@2@@__crt_stdio_output@@AEAA_NXZ 0000000180042760 f i libucrtd:output.obj
 0001:00041780       ?state_case_dot@?$output_processor@_WV?$stream_output_adapter@_W@__crt_stdio_output@@V?$format_validation_base@_WV?$stream_output_adapter@_W@__crt_stdio_output@@@2@@__crt_stdio_output@@AEAA_NXZ 0000000180042780 f i libucrtd:output.obj
 0001:000417a0       ?state_case_dot@?$output_processor@_WV?$stream_output_adapter@_W@__crt_stdio_output@@V?$positional_parameter_base@_WV?$stream_output_adapter@_W@__crt_stdio_output@@@2@@__crt_stdio_output@@AEAA_NXZ 00000001800427a0 f i libucrtd:output.obj
 0001:000417c0       ?state_case_dot@?$output_processor@_WV?$stream_output_adapter@_W@__crt_stdio_output@@V?$standard_base@_WV?$stream_output_adapter@_W@__crt_stdio_output@@@2@@__crt_stdio_output@@AEAA_NXZ 00000001800427c0 f i libucrtd:output.obj
 0001:000417e0       ?state_case_dot@?$output_processor@_WV?$string_output_adapter@_W@__crt_stdio_output@@V?$format_validation_base@_WV?$string_output_adapter@_W@__crt_stdio_output@@@2@@__crt_stdio_output@@AEAA_NXZ 00000001800427e0 f i libucrtd:output.obj
 0001:00041800       ?state_case_dot@?$output_processor@_WV?$string_output_adapter@_W@__crt_stdio_output@@V?$positional_parameter_base@_WV?$string_output_adapter@_W@__crt_stdio_output@@@2@@__crt_stdio_output@@AEAA_NXZ 0000000180042800 f i libucrtd:output.obj
 0001:00041820       ?state_case_dot@?$output_processor@_WV?$string_output_adapter@_W@__crt_stdio_output@@V?$standard_base@_WV?$string_output_adapter@_W@__crt_stdio_output@@@2@@__crt_stdio_output@@AEAA_NXZ 0000000180042820 f i libucrtd:output.obj
 0001:00041840       ?state_case_flag@?$output_processor@DV?$stream_output_adapter@D@__crt_stdio_output@@V?$format_validation_base@DV?$stream_output_adapter@D@__crt_stdio_output@@@2@@__crt_stdio_output@@AEAA_NXZ 0000000180042840 f i libucrtd:output.obj
 0001:000418e0       ?state_case_flag@?$output_processor@DV?$stream_output_adapter@D@__crt_stdio_output@@V?$positional_parameter_base@DV?$stream_output_adapter@D@__crt_stdio_output@@@2@@__crt_stdio_output@@AEAA_NXZ 00000001800428e0 f i libucrtd:output.obj
 0001:00041980       ?state_case_flag@?$output_processor@DV?$stream_output_adapter@D@__crt_stdio_output@@V?$standard_base@DV?$stream_output_adapter@D@__crt_stdio_output@@@2@@__crt_stdio_output@@AEAA_NXZ 0000000180042980 f i libucrtd:output.obj
 0001:00041a20       ?state_case_flag@?$output_processor@DV?$string_output_adapter@D@__crt_stdio_output@@V?$format_validation_base@DV?$string_output_adapter@D@__crt_stdio_output@@@2@@__crt_stdio_output@@AEAA_NXZ 0000000180042a20 f i libucrtd:output.obj
 0001:00041ac0       ?state_case_flag@?$output_processor@DV?$string_output_adapter@D@__crt_stdio_output@@V?$positional_parameter_base@DV?$string_output_adapter@D@__crt_stdio_output@@@2@@__crt_stdio_output@@AEAA_NXZ 0000000180042ac0 f i libucrtd:output.obj
 0001:00041b60       ?state_case_flag@?$output_processor@DV?$string_output_adapter@D@__crt_stdio_output@@V?$standard_base@DV?$string_output_adapter@D@__crt_stdio_output@@@2@@__crt_stdio_output@@AEAA_NXZ 0000000180042b60 f i libucrtd:output.obj
 0001:00041c00       ?state_case_flag@?$output_processor@_WV?$stream_output_adapter@_W@__crt_stdio_output@@V?$format_validation_base@_WV?$stream_output_adapter@_W@__crt_stdio_output@@@2@@__crt_stdio_output@@AEAA_NXZ 0000000180042c00 f i libucrtd:output.obj
 0001:00041ca0       ?state_case_flag@?$output_processor@_WV?$stream_output_adapter@_W@__crt_stdio_output@@V?$positional_parameter_base@_WV?$stream_output_adapter@_W@__crt_stdio_output@@@2@@__crt_stdio_output@@AEAA_NXZ 0000000180042ca0 f i libucrtd:output.obj
 0001:00041d40       ?state_case_flag@?$output_processor@_WV?$stream_output_adapter@_W@__crt_stdio_output@@V?$standard_base@_WV?$stream_output_adapter@_W@__crt_stdio_output@@@2@@__crt_stdio_output@@AEAA_NXZ 0000000180042d40 f i libucrtd:output.obj
 0001:00041de0       ?state_case_flag@?$output_processor@_WV?$string_output_adapter@_W@__crt_stdio_output@@V?$format_validation_base@_WV?$string_output_adapter@_W@__crt_stdio_output@@@2@@__crt_stdio_output@@AEAA_NXZ 0000000180042de0 f i libucrtd:output.obj
 0001:00041e80       ?state_case_flag@?$output_processor@_WV?$string_output_adapter@_W@__crt_stdio_output@@V?$positional_parameter_base@_WV?$string_output_adapter@_W@__crt_stdio_output@@@2@@__crt_stdio_output@@AEAA_NXZ 0000000180042e80 f i libucrtd:output.obj
 0001:00041f20       ?state_case_flag@?$output_processor@_WV?$string_output_adapter@_W@__crt_stdio_output@@V?$standard_base@_WV?$string_output_adapter@_W@__crt_stdio_output@@@2@@__crt_stdio_output@@AEAA_NXZ 0000000180042f20 f i libucrtd:output.obj
 0001:00041fc0       ?state_case_normal@?$output_processor@DV?$stream_output_adapter@D@__crt_stdio_output@@V?$format_validation_base@DV?$stream_output_adapter@D@__crt_stdio_output@@@2@@__crt_stdio_output@@AEAA_NXZ 0000000180042fc0 f i libucrtd:output.obj
 0001:000420c0       ?state_case_normal@?$output_processor@DV?$stream_output_adapter@D@__crt_stdio_output@@V?$positional_parameter_base@DV?$stream_output_adapter@D@__crt_stdio_output@@@2@@__crt_stdio_output@@AEAA_NXZ 00000001800430c0 f i libucrtd:output.obj
 0001:000421c0       ?state_case_normal@?$output_processor@DV?$stream_output_adapter@D@__crt_stdio_output@@V?$standard_base@DV?$stream_output_adapter@D@__crt_stdio_output@@@2@@__crt_stdio_output@@AEAA_NXZ 00000001800431c0 f i libucrtd:output.obj
 0001:000422c0       ?state_case_normal@?$output_processor@DV?$string_output_adapter@D@__crt_stdio_output@@V?$format_validation_base@DV?$string_output_adapter@D@__crt_stdio_output@@@2@@__crt_stdio_output@@AEAA_NXZ 00000001800432c0 f i libucrtd:output.obj
 0001:000423c0       ?state_case_normal@?$output_processor@DV?$string_output_adapter@D@__crt_stdio_output@@V?$positional_parameter_base@DV?$string_output_adapter@D@__crt_stdio_output@@@2@@__crt_stdio_output@@AEAA_NXZ 00000001800433c0 f i libucrtd:output.obj
 0001:000424c0       ?state_case_normal@?$output_processor@DV?$string_output_adapter@D@__crt_stdio_output@@V?$standard_base@DV?$string_output_adapter@D@__crt_stdio_output@@@2@@__crt_stdio_output@@AEAA_NXZ 00000001800434c0 f i libucrtd:output.obj
 0001:000425c0       ?state_case_normal@?$output_processor@_WV?$stream_output_adapter@_W@__crt_stdio_output@@V?$format_validation_base@_WV?$stream_output_adapter@_W@__crt_stdio_output@@@2@@__crt_stdio_output@@AEAA_NXZ 00000001800435c0 f i libucrtd:output.obj
 0001:000426c0       ?state_case_normal@?$output_processor@_WV?$stream_output_adapter@_W@__crt_stdio_output@@V?$positional_parameter_base@_WV?$stream_output_adapter@_W@__crt_stdio_output@@@2@@__crt_stdio_output@@AEAA_NXZ 00000001800436c0 f i libucrtd:output.obj
 0001:000427c0       ?state_case_normal@?$output_processor@_WV?$stream_output_adapter@_W@__crt_stdio_output@@V?$standard_base@_WV?$stream_output_adapter@_W@__crt_stdio_output@@@2@@__crt_stdio_output@@AEAA_NXZ 00000001800437c0 f i libucrtd:output.obj
 0001:000428c0       ?state_case_normal@?$output_processor@_WV?$string_output_adapter@_W@__crt_stdio_output@@V?$format_validation_base@_WV?$string_output_adapter@_W@__crt_stdio_output@@@2@@__crt_stdio_output@@AEAA_NXZ 00000001800438c0 f i libucrtd:output.obj
 0001:000429c0       ?state_case_normal@?$output_processor@_WV?$string_output_adapter@_W@__crt_stdio_output@@V?$positional_parameter_base@_WV?$string_output_adapter@_W@__crt_stdio_output@@@2@@__crt_stdio_output@@AEAA_NXZ 00000001800439c0 f i libucrtd:output.obj
 0001:00042ac0       ?state_case_normal@?$output_processor@_WV?$string_output_adapter@_W@__crt_stdio_output@@V?$standard_base@_WV?$string_output_adapter@_W@__crt_stdio_output@@@2@@__crt_stdio_output@@AEAA_NXZ 0000000180043ac0 f i libucrtd:output.obj
 0001:00042bc0       ?state_case_normal_common@?$output_processor@DV?$stream_output_adapter@D@__crt_stdio_output@@V?$format_validation_base@DV?$stream_output_adapter@D@__crt_stdio_output@@@2@@__crt_stdio_output@@AEAA_NXZ 0000000180043bc0 f i libucrtd:output.obj
 0001:00042c20       ?state_case_normal_common@?$output_processor@DV?$stream_output_adapter@D@__crt_stdio_output@@V?$positional_parameter_base@DV?$stream_output_adapter@D@__crt_stdio_output@@@2@@__crt_stdio_output@@AEAA_NXZ 0000000180043c20 f i libucrtd:output.obj
 0001:00042c80       ?state_case_normal_common@?$output_processor@DV?$stream_output_adapter@D@__crt_stdio_output@@V?$standard_base@DV?$stream_output_adapter@D@__crt_stdio_output@@@2@@__crt_stdio_output@@AEAA_NXZ 0000000180043c80 f i libucrtd:output.obj
 0001:00042ce0       ?state_case_normal_common@?$output_processor@DV?$string_output_adapter@D@__crt_stdio_output@@V?$format_validation_base@DV?$string_output_adapter@D@__crt_stdio_output@@@2@@__crt_stdio_output@@AEAA_NXZ 0000000180043ce0 f i libucrtd:output.obj
 0001:00042d40       ?state_case_normal_common@?$output_processor@DV?$string_output_adapter@D@__crt_stdio_output@@V?$positional_parameter_base@DV?$string_output_adapter@D@__crt_stdio_output@@@2@@__crt_stdio_output@@AEAA_NXZ 0000000180043d40 f i libucrtd:output.obj
 0001:00042da0       ?state_case_normal_common@?$output_processor@DV?$string_output_adapter@D@__crt_stdio_output@@V?$standard_base@DV?$string_output_adapter@D@__crt_stdio_output@@@2@@__crt_stdio_output@@AEAA_NXZ 0000000180043da0 f i libucrtd:output.obj
 0001:00042e00       ?state_case_normal_common@?$output_processor@_WV?$stream_output_adapter@_W@__crt_stdio_output@@V?$format_validation_base@_WV?$stream_output_adapter@_W@__crt_stdio_output@@@2@@__crt_stdio_output@@AEAA_NXZ 0000000180043e00 f i libucrtd:output.obj
 0001:00042e60       ?state_case_normal_common@?$output_processor@_WV?$stream_output_adapter@_W@__crt_stdio_output@@V?$positional_parameter_base@_WV?$stream_output_adapter@_W@__crt_stdio_output@@@2@@__crt_stdio_output@@AEAA_NXZ 0000000180043e60 f i libucrtd:output.obj
 0001:00042ec0       ?state_case_normal_common@?$output_processor@_WV?$stream_output_adapter@_W@__crt_stdio_output@@V?$standard_base@_WV?$stream_output_adapter@_W@__crt_stdio_output@@@2@@__crt_stdio_output@@AEAA_NXZ 0000000180043ec0 f i libucrtd:output.obj
 0001:00042f20       ?state_case_normal_common@?$output_processor@_WV?$string_output_adapter@_W@__crt_stdio_output@@V?$format_validation_base@_WV?$string_output_adapter@_W@__crt_stdio_output@@@2@@__crt_stdio_output@@AEAA_NXZ 0000000180043f20 f i libucrtd:output.obj
 0001:00042f80       ?state_case_normal_common@?$output_processor@_WV?$string_output_adapter@_W@__crt_stdio_output@@V?$positional_parameter_base@_WV?$string_output_adapter@_W@__crt_stdio_output@@@2@@__crt_stdio_output@@AEAA_NXZ 0000000180043f80 f i libucrtd:output.obj
 0001:00042fe0       ?state_case_normal_common@?$output_processor@_WV?$string_output_adapter@_W@__crt_stdio_output@@V?$standard_base@_WV?$string_output_adapter@_W@__crt_stdio_output@@@2@@__crt_stdio_output@@AEAA_NXZ 0000000180043fe0 f i libucrtd:output.obj
 0001:00043040       ?state_case_normal_tchar@?$output_processor@DV?$stream_output_adapter@D@__crt_stdio_output@@V?$format_validation_base@DV?$stream_output_adapter@D@__crt_stdio_output@@@2@@__crt_stdio_output@@AEAA_ND@Z 0000000180044040 f i libucrtd:output.obj
 0001:000431d0       ?state_case_normal_tchar@?$output_processor@DV?$stream_output_adapter@D@__crt_stdio_output@@V?$positional_parameter_base@DV?$stream_output_adapter@D@__crt_stdio_output@@@2@@__crt_stdio_output@@AEAA_ND@Z 00000001800441d0 f i libucrtd:output.obj
 0001:00043360       ?state_case_normal_tchar@?$output_processor@DV?$stream_output_adapter@D@__crt_stdio_output@@V?$standard_base@DV?$stream_output_adapter@D@__crt_stdio_output@@@2@@__crt_stdio_output@@AEAA_ND@Z 0000000180044360 f i libucrtd:output.obj
 0001:000434f0       ?state_case_normal_tchar@?$output_processor@DV?$string_output_adapter@D@__crt_stdio_output@@V?$format_validation_base@DV?$string_output_adapter@D@__crt_stdio_output@@@2@@__crt_stdio_output@@AEAA_ND@Z 00000001800444f0 f i libucrtd:output.obj
 0001:00043680       ?state_case_normal_tchar@?$output_processor@DV?$string_output_adapter@D@__crt_stdio_output@@V?$positional_parameter_base@DV?$string_output_adapter@D@__crt_stdio_output@@@2@@__crt_stdio_output@@AEAA_ND@Z 0000000180044680 f i libucrtd:output.obj
 0001:00043810       ?state_case_normal_tchar@?$output_processor@DV?$string_output_adapter@D@__crt_stdio_output@@V?$standard_base@DV?$string_output_adapter@D@__crt_stdio_output@@@2@@__crt_stdio_output@@AEAA_ND@Z 0000000180044810 f i libucrtd:output.obj
 0001:000439a0       ?state_case_normal_tchar@?$output_processor@_WV?$stream_output_adapter@_W@__crt_stdio_output@@V?$format_validation_base@_WV?$stream_output_adapter@_W@__crt_stdio_output@@@2@@__crt_stdio_output@@AEAA_N_W@Z 00000001800449a0 f i libucrtd:output.obj
 0001:000439c0       ?state_case_normal_tchar@?$output_processor@_WV?$stream_output_adapter@_W@__crt_stdio_output@@V?$positional_parameter_base@_WV?$stream_output_adapter@_W@__crt_stdio_output@@@2@@__crt_stdio_output@@AEAA_N_W@Z 00000001800449c0 f i libucrtd:output.obj
 0001:000439e0       ?state_case_normal_tchar@?$output_processor@_WV?$stream_output_adapter@_W@__crt_stdio_output@@V?$standard_base@_WV?$stream_output_adapter@_W@__crt_stdio_output@@@2@@__crt_stdio_output@@AEAA_N_W@Z 00000001800449e0 f i libucrtd:output.obj
 0001:00043a00       ?state_case_normal_tchar@?$output_processor@_WV?$string_output_adapter@_W@__crt_stdio_output@@V?$format_validation_base@_WV?$string_output_adapter@_W@__crt_stdio_output@@@2@@__crt_stdio_output@@AEAA_N_W@Z 0000000180044a00 f i libucrtd:output.obj
 0001:00043a20       ?state_case_normal_tchar@?$output_processor@_WV?$string_output_adapter@_W@__crt_stdio_output@@V?$positional_parameter_base@_WV?$string_output_adapter@_W@__crt_stdio_output@@@2@@__crt_stdio_output@@AEAA_N_W@Z 0000000180044a20 f i libucrtd:output.obj
 0001:00043a40       ?state_case_normal_tchar@?$output_processor@_WV?$string_output_adapter@_W@__crt_stdio_output@@V?$standard_base@_WV?$string_output_adapter@_W@__crt_stdio_output@@@2@@__crt_stdio_output@@AEAA_N_W@Z 0000000180044a40 f i libucrtd:output.obj
 0001:00043a60       ?state_case_percent@?$output_processor@DV?$stream_output_adapter@D@__crt_stdio_output@@V?$format_validation_base@DV?$stream_output_adapter@D@__crt_stdio_output@@@2@@__crt_stdio_output@@AEAA_NXZ 0000000180044a60 f i libucrtd:output.obj
 0001:00043ab0       ?state_case_percent@?$output_processor@DV?$stream_output_adapter@D@__crt_stdio_output@@V?$positional_parameter_base@DV?$stream_output_adapter@D@__crt_stdio_output@@@2@@__crt_stdio_output@@AEAA_NXZ 0000000180044ab0 f i libucrtd:output.obj
 0001:00043b00       ?state_case_percent@?$output_processor@DV?$stream_output_adapter@D@__crt_stdio_output@@V?$standard_base@DV?$stream_output_adapter@D@__crt_stdio_output@@@2@@__crt_stdio_output@@AEAA_NXZ 0000000180044b00 f i libucrtd:output.obj
 0001:00043b50       ?state_case_percent@?$output_processor@DV?$string_output_adapter@D@__crt_stdio_output@@V?$format_validation_base@DV?$string_output_adapter@D@__crt_stdio_output@@@2@@__crt_stdio_output@@AEAA_NXZ 0000000180044b50 f i libucrtd:output.obj
 0001:00043ba0       ?state_case_percent@?$output_processor@DV?$string_output_adapter@D@__crt_stdio_output@@V?$positional_parameter_base@DV?$string_output_adapter@D@__crt_stdio_output@@@2@@__crt_stdio_output@@AEAA_NXZ 0000000180044ba0 f i libucrtd:output.obj
 0001:00043bf0       ?state_case_percent@?$output_processor@DV?$string_output_adapter@D@__crt_stdio_output@@V?$standard_base@DV?$string_output_adapter@D@__crt_stdio_output@@@2@@__crt_stdio_output@@AEAA_NXZ 0000000180044bf0 f i libucrtd:output.obj
 0001:00043c40       ?state_case_percent@?$output_processor@_WV?$stream_output_adapter@_W@__crt_stdio_output@@V?$format_validation_base@_WV?$stream_output_adapter@_W@__crt_stdio_output@@@2@@__crt_stdio_output@@AEAA_NXZ 0000000180044c40 f i libucrtd:output.obj
 0001:00043c90       ?state_case_percent@?$output_processor@_WV?$stream_output_adapter@_W@__crt_stdio_output@@V?$positional_parameter_base@_WV?$stream_output_adapter@_W@__crt_stdio_output@@@2@@__crt_stdio_output@@AEAA_NXZ 0000000180044c90 f i libucrtd:output.obj
 0001:00043ce0       ?state_case_percent@?$output_processor@_WV?$stream_output_adapter@_W@__crt_stdio_output@@V?$standard_base@_WV?$stream_output_adapter@_W@__crt_stdio_output@@@2@@__crt_stdio_output@@AEAA_NXZ 0000000180044ce0 f i libucrtd:output.obj
 0001:00043d30       ?state_case_percent@?$output_processor@_WV?$string_output_adapter@_W@__crt_stdio_output@@V?$format_validation_base@_WV?$string_output_adapter@_W@__crt_stdio_output@@@2@@__crt_stdio_output@@AEAA_NXZ 0000000180044d30 f i libucrtd:output.obj
 0001:00043d80       ?state_case_percent@?$output_processor@_WV?$string_output_adapter@_W@__crt_stdio_output@@V?$positional_parameter_base@_WV?$string_output_adapter@_W@__crt_stdio_output@@@2@@__crt_stdio_output@@AEAA_NXZ 0000000180044d80 f i libucrtd:output.obj
 0001:00043dd0       ?state_case_percent@?$output_processor@_WV?$string_output_adapter@_W@__crt_stdio_output@@V?$standard_base@_WV?$string_output_adapter@_W@__crt_stdio_output@@@2@@__crt_stdio_output@@AEAA_NXZ 0000000180044dd0 f i libucrtd:output.obj
 0001:00043e20       ?state_case_precision@?$output_processor@DV?$stream_output_adapter@D@__crt_stdio_output@@V?$format_validation_base@DV?$stream_output_adapter@D@__crt_stdio_output@@@2@@__crt_stdio_output@@AEAA_NXZ 0000000180044e20 f i libucrtd:output.obj
 0001:00043ea0       ?state_case_precision@?$output_processor@DV?$stream_output_adapter@D@__crt_stdio_output@@V?$positional_parameter_base@DV?$stream_output_adapter@D@__crt_stdio_output@@@2@@__crt_stdio_output@@AEAA_NXZ 0000000180044ea0 f i libucrtd:output.obj
 0001:00043f20       ?state_case_precision@?$output_processor@DV?$stream_output_adapter@D@__crt_stdio_output@@V?$standard_base@DV?$stream_output_adapter@D@__crt_stdio_output@@@2@@__crt_stdio_output@@AEAA_NXZ 0000000180044f20 f i libucrtd:output.obj
 0001:00043fa0       ?state_case_precision@?$output_processor@DV?$string_output_adapter@D@__crt_stdio_output@@V?$format_validation_base@DV?$string_output_adapter@D@__crt_stdio_output@@@2@@__crt_stdio_output@@AEAA_NXZ 0000000180044fa0 f i libucrtd:output.obj
 0001:00044020       ?state_case_precision@?$output_processor@DV?$string_output_adapter@D@__crt_stdio_output@@V?$positional_parameter_base@DV?$string_output_adapter@D@__crt_stdio_output@@@2@@__crt_stdio_output@@AEAA_NXZ 0000000180045020 f i libucrtd:output.obj
 0001:000440a0       ?state_case_precision@?$output_processor@DV?$string_output_adapter@D@__crt_stdio_output@@V?$standard_base@DV?$string_output_adapter@D@__crt_stdio_output@@@2@@__crt_stdio_output@@AEAA_NXZ 00000001800450a0 f i libucrtd:output.obj
 0001:00044120       ?state_case_precision@?$output_processor@_WV?$stream_output_adapter@_W@__crt_stdio_output@@V?$format_validation_base@_WV?$stream_output_adapter@_W@__crt_stdio_output@@@2@@__crt_stdio_output@@AEAA_NXZ 0000000180045120 f i libucrtd:output.obj
 0001:000441a0       ?state_case_precision@?$output_processor@_WV?$stream_output_adapter@_W@__crt_stdio_output@@V?$positional_parameter_base@_WV?$stream_output_adapter@_W@__crt_stdio_output@@@2@@__crt_stdio_output@@AEAA_NXZ 00000001800451a0 f i libucrtd:output.obj
 0001:00044220       ?state_case_precision@?$output_processor@_WV?$stream_output_adapter@_W@__crt_stdio_output@@V?$standard_base@_WV?$stream_output_adapter@_W@__crt_stdio_output@@@2@@__crt_stdio_output@@AEAA_NXZ 0000000180045220 f i libucrtd:output.obj
 0001:000442a0       ?state_case_precision@?$output_processor@_WV?$string_output_adapter@_W@__crt_stdio_output@@V?$format_validation_base@_WV?$string_output_adapter@_W@__crt_stdio_output@@@2@@__crt_stdio_output@@AEAA_NXZ 00000001800452a0 f i libucrtd:output.obj
 0001:00044320       ?state_case_precision@?$output_processor@_WV?$string_output_adapter@_W@__crt_stdio_output@@V?$positional_parameter_base@_WV?$string_output_adapter@_W@__crt_stdio_output@@@2@@__crt_stdio_output@@AEAA_NXZ 0000000180045320 f i libucrtd:output.obj
 0001:000443a0       ?state_case_precision@?$output_processor@_WV?$string_output_adapter@_W@__crt_stdio_output@@V?$standard_base@_WV?$string_output_adapter@_W@__crt_stdio_output@@@2@@__crt_stdio_output@@AEAA_NXZ 00000001800453a0 f i libucrtd:output.obj
 0001:00044420       ?state_case_size@?$output_processor@DV?$stream_output_adapter@D@__crt_stdio_output@@V?$format_validation_base@DV?$stream_output_adapter@D@__crt_stdio_output@@@2@@__crt_stdio_output@@AEAA_NXZ 0000000180045420 f i libucrtd:output.obj
 0001:000448e0       ?state_case_size@?$output_processor@DV?$stream_output_adapter@D@__crt_stdio_output@@V?$positional_parameter_base@DV?$stream_output_adapter@D@__crt_stdio_output@@@2@@__crt_stdio_output@@AEAA_NXZ 00000001800458e0 f i libucrtd:output.obj
 0001:00044da0       ?state_case_size@?$output_processor@DV?$stream_output_adapter@D@__crt_stdio_output@@V?$standard_base@DV?$stream_output_adapter@D@__crt_stdio_output@@@2@@__crt_stdio_output@@AEAA_NXZ 0000000180045da0 f i libucrtd:output.obj
 0001:00045260       ?state_case_size@?$output_processor@DV?$string_output_adapter@D@__crt_stdio_output@@V?$format_validation_base@DV?$string_output_adapter@D@__crt_stdio_output@@@2@@__crt_stdio_output@@AEAA_NXZ 0000000180046260 f i libucrtd:output.obj
 0001:00045720       ?state_case_size@?$output_processor@DV?$string_output_adapter@D@__crt_stdio_output@@V?$positional_parameter_base@DV?$string_output_adapter@D@__crt_stdio_output@@@2@@__crt_stdio_output@@AEAA_NXZ 0000000180046720 f i libucrtd:output.obj
 0001:00045be0       ?state_case_size@?$output_processor@DV?$string_output_adapter@D@__crt_stdio_output@@V?$standard_base@DV?$string_output_adapter@D@__crt_stdio_output@@@2@@__crt_stdio_output@@AEAA_NXZ 0000000180046be0 f i libucrtd:output.obj
 0001:000460a0       ?state_case_size@?$output_processor@_WV?$stream_output_adapter@_W@__crt_stdio_output@@V?$format_validation_base@_WV?$stream_output_adapter@_W@__crt_stdio_output@@@2@@__crt_stdio_output@@AEAA_NXZ 00000001800470a0 f i libucrtd:output.obj
 0001:00046560       ?state_case_size@?$output_processor@_WV?$stream_output_adapter@_W@__crt_stdio_output@@V?$positional_parameter_base@_WV?$stream_output_adapter@_W@__crt_stdio_output@@@2@@__crt_stdio_output@@AEAA_NXZ 0000000180047560 f i libucrtd:output.obj
 0001:00046a20       ?state_case_size@?$output_processor@_WV?$stream_output_adapter@_W@__crt_stdio_output@@V?$standard_base@_WV?$stream_output_adapter@_W@__crt_stdio_output@@@2@@__crt_stdio_output@@AEAA_NXZ 0000000180047a20 f i libucrtd:output.obj
 0001:00046ee0       ?state_case_size@?$output_processor@_WV?$string_output_adapter@_W@__crt_stdio_output@@V?$format_validation_base@_WV?$string_output_adapter@_W@__crt_stdio_output@@@2@@__crt_stdio_output@@AEAA_NXZ 0000000180047ee0 f i libucrtd:output.obj
 0001:000473a0       ?state_case_size@?$output_processor@_WV?$string_output_adapter@_W@__crt_stdio_output@@V?$positional_parameter_base@_WV?$string_output_adapter@_W@__crt_stdio_output@@@2@@__crt_stdio_output@@AEAA_NXZ 00000001800483a0 f i libucrtd:output.obj
 0001:00047860       ?state_case_size@?$output_processor@_WV?$string_output_adapter@_W@__crt_stdio_output@@V?$standard_base@_WV?$string_output_adapter@_W@__crt_stdio_output@@@2@@__crt_stdio_output@@AEAA_NXZ 0000000180048860 f i libucrtd:output.obj
 0001:00047d20       ?state_case_type@?$output_processor@DV?$stream_output_adapter@D@__crt_stdio_output@@V?$format_validation_base@DV?$stream_output_adapter@D@__crt_stdio_output@@@2@@__crt_stdio_output@@AEAA_NXZ 0000000180048d20 f i libucrtd:output.obj
 0001:000481e0       ?state_case_type@?$output_processor@DV?$stream_output_adapter@D@__crt_stdio_output@@V?$positional_parameter_base@DV?$stream_output_adapter@D@__crt_stdio_output@@@2@@__crt_stdio_output@@AEAA_NXZ 00000001800491e0 f i libucrtd:output.obj
 0001:000486a0       ?state_case_type@?$output_processor@DV?$stream_output_adapter@D@__crt_stdio_output@@V?$standard_base@DV?$stream_output_adapter@D@__crt_stdio_output@@@2@@__crt_stdio_output@@AEAA_NXZ 00000001800496a0 f i libucrtd:output.obj
 0001:00048b60       ?state_case_type@?$output_processor@DV?$string_output_adapter@D@__crt_stdio_output@@V?$format_validation_base@DV?$string_output_adapter@D@__crt_stdio_output@@@2@@__crt_stdio_output@@AEAA_NXZ 0000000180049b60 f i libucrtd:output.obj
 0001:00049020       ?state_case_type@?$output_processor@DV?$string_output_adapter@D@__crt_stdio_output@@V?$positional_parameter_base@DV?$string_output_adapter@D@__crt_stdio_output@@@2@@__crt_stdio_output@@AEAA_NXZ 000000018004a020 f i libucrtd:output.obj
 0001:000494e0       ?state_case_type@?$output_processor@DV?$string_output_adapter@D@__crt_stdio_output@@V?$standard_base@DV?$string_output_adapter@D@__crt_stdio_output@@@2@@__crt_stdio_output@@AEAA_NXZ 000000018004a4e0 f i libucrtd:output.obj
 0001:000499a0       ?state_case_type@?$output_processor@_WV?$stream_output_adapter@_W@__crt_stdio_output@@V?$format_validation_base@_WV?$stream_output_adapter@_W@__crt_stdio_output@@@2@@__crt_stdio_output@@AEAA_NXZ 000000018004a9a0 f i libucrtd:output.obj
 0001:00049f30       ?state_case_type@?$output_processor@_WV?$stream_output_adapter@_W@__crt_stdio_output@@V?$positional_parameter_base@_WV?$stream_output_adapter@_W@__crt_stdio_output@@@2@@__crt_stdio_output@@AEAA_NXZ 000000018004af30 f i libucrtd:output.obj
 0001:0004a4c0       ?state_case_type@?$output_processor@_WV?$stream_output_adapter@_W@__crt_stdio_output@@V?$standard_base@_WV?$stream_output_adapter@_W@__crt_stdio_output@@@2@@__crt_stdio_output@@AEAA_NXZ 000000018004b4c0 f i libucrtd:output.obj
 0001:0004aa50       ?state_case_type@?$output_processor@_WV?$string_output_adapter@_W@__crt_stdio_output@@V?$format_validation_base@_WV?$string_output_adapter@_W@__crt_stdio_output@@@2@@__crt_stdio_output@@AEAA_NXZ 000000018004ba50 f i libucrtd:output.obj
 0001:0004afe0       ?state_case_type@?$output_processor@_WV?$string_output_adapter@_W@__crt_stdio_output@@V?$positional_parameter_base@_WV?$string_output_adapter@_W@__crt_stdio_output@@@2@@__crt_stdio_output@@AEAA_NXZ 000000018004bfe0 f i libucrtd:output.obj
 0001:0004b570       ?state_case_type@?$output_processor@_WV?$string_output_adapter@_W@__crt_stdio_output@@V?$standard_base@_WV?$string_output_adapter@_W@__crt_stdio_output@@@2@@__crt_stdio_output@@AEAA_NXZ 000000018004c570 f i libucrtd:output.obj
 0001:0004bb00       ?state_case_width@?$output_processor@DV?$stream_output_adapter@D@__crt_stdio_output@@V?$format_validation_base@DV?$stream_output_adapter@D@__crt_stdio_output@@@2@@__crt_stdio_output@@AEAA_NXZ 000000018004cb00 f i libucrtd:output.obj
 0001:0004bb90       ?state_case_width@?$output_processor@DV?$stream_output_adapter@D@__crt_stdio_output@@V?$positional_parameter_base@DV?$stream_output_adapter@D@__crt_stdio_output@@@2@@__crt_stdio_output@@AEAA_NXZ 000000018004cb90 f i libucrtd:output.obj
 0001:0004bc20       ?state_case_width@?$output_processor@DV?$stream_output_adapter@D@__crt_stdio_output@@V?$standard_base@DV?$stream_output_adapter@D@__crt_stdio_output@@@2@@__crt_stdio_output@@AEAA_NXZ 000000018004cc20 f i libucrtd:output.obj
 0001:0004bcb0       ?state_case_width@?$output_processor@DV?$string_output_adapter@D@__crt_stdio_output@@V?$format_validation_base@DV?$string_output_adapter@D@__crt_stdio_output@@@2@@__crt_stdio_output@@AEAA_NXZ 000000018004ccb0 f i libucrtd:output.obj
 0001:0004bd40       ?state_case_width@?$output_processor@DV?$string_output_adapter@D@__crt_stdio_output@@V?$positional_parameter_base@DV?$string_output_adapter@D@__crt_stdio_output@@@2@@__crt_stdio_output@@AEAA_NXZ 000000018004cd40 f i libucrtd:output.obj
 0001:0004bdd0       ?state_case_width@?$output_processor@DV?$string_output_adapter@D@__crt_stdio_output@@V?$standard_base@DV?$string_output_adapter@D@__crt_stdio_output@@@2@@__crt_stdio_output@@AEAA_NXZ 000000018004cdd0 f i libucrtd:output.obj
 0001:0004be60       ?state_case_width@?$output_processor@_WV?$stream_output_adapter@_W@__crt_stdio_output@@V?$format_validation_base@_WV?$stream_output_adapter@_W@__crt_stdio_output@@@2@@__crt_stdio_output@@AEAA_NXZ 000000018004ce60 f i libucrtd:output.obj
 0001:0004bef0       ?state_case_width@?$output_processor@_WV?$stream_output_adapter@_W@__crt_stdio_output@@V?$positional_parameter_base@_WV?$stream_output_adapter@_W@__crt_stdio_output@@@2@@__crt_stdio_output@@AEAA_NXZ 000000018004cef0 f i libucrtd:output.obj
 0001:0004bf80       ?state_case_width@?$output_processor@_WV?$stream_output_adapter@_W@__crt_stdio_output@@V?$standard_base@_WV?$stream_output_adapter@_W@__crt_stdio_output@@@2@@__crt_stdio_output@@AEAA_NXZ 000000018004cf80 f i libucrtd:output.obj
 0001:0004c010       ?state_case_width@?$output_processor@_WV?$string_output_adapter@_W@__crt_stdio_output@@V?$format_validation_base@_WV?$string_output_adapter@_W@__crt_stdio_output@@@2@@__crt_stdio_output@@AEAA_NXZ 000000018004d010 f i libucrtd:output.obj
 0001:0004c0a0       ?state_case_width@?$output_processor@_WV?$string_output_adapter@_W@__crt_stdio_output@@V?$positional_parameter_base@_WV?$string_output_adapter@_W@__crt_stdio_output@@@2@@__crt_stdio_output@@AEAA_NXZ 000000018004d0a0 f i libucrtd:output.obj
 0001:0004c130       ?state_case_width@?$output_processor@_WV?$string_output_adapter@_W@__crt_stdio_output@@V?$standard_base@_WV?$string_output_adapter@_W@__crt_stdio_output@@@2@@__crt_stdio_output@@AEAA_NXZ 000000018004d130 f i libucrtd:output.obj
 0001:0004c1c0       ?state_count@?$format_validation_base@DV?$stream_output_adapter@D@__crt_stdio_output@@@__crt_stdio_output@@KAIXZ 000000018004d1c0 f i libucrtd:output.obj
 0001:0004c1d0       ?state_count@?$format_validation_base@DV?$string_output_adapter@D@__crt_stdio_output@@@__crt_stdio_output@@KAIXZ 000000018004d1d0 f i libucrtd:output.obj
 0001:0004c1e0       ?state_count@?$format_validation_base@_WV?$stream_output_adapter@_W@__crt_stdio_output@@@__crt_stdio_output@@KAIXZ 000000018004d1e0 f i libucrtd:output.obj
 0001:0004c1f0       ?state_count@?$format_validation_base@_WV?$string_output_adapter@_W@__crt_stdio_output@@@__crt_stdio_output@@KAIXZ 000000018004d1f0 f i libucrtd:output.obj
 0001:0004c200       ?state_count@?$standard_base@DV?$stream_output_adapter@D@__crt_stdio_output@@@__crt_stdio_output@@KAIXZ 000000018004d200 f i libucrtd:output.obj
 0001:0004c210       ?state_count@?$standard_base@DV?$string_output_adapter@D@__crt_stdio_output@@@__crt_stdio_output@@KAIXZ 000000018004d210 f i libucrtd:output.obj
 0001:0004c220       ?state_count@?$standard_base@_WV?$stream_output_adapter@_W@__crt_stdio_output@@@__crt_stdio_output@@KAIXZ 000000018004d220 f i libucrtd:output.obj
 0001:0004c230       ?state_count@?$standard_base@_WV?$string_output_adapter@_W@__crt_stdio_output@@@__crt_stdio_output@@KAIXZ 000000018004d230 f i libucrtd:output.obj
 0001:0004c240       ?state_transition_table@?$format_validation_base@DV?$stream_output_adapter@D@__crt_stdio_output@@@__crt_stdio_output@@KAAEBV?$spectre_mitigated_lookup_table@Ustate_transition_pair@__crt_stdio_output@@$0IA@@2@XZ 000000018004d240 f i libucrtd:output.obj
 0001:0004c250       ?state_transition_table@?$format_validation_base@DV?$string_output_adapter@D@__crt_stdio_output@@@__crt_stdio_output@@KAAEBV?$spectre_mitigated_lookup_table@Ustate_transition_pair@__crt_stdio_output@@$0IA@@2@XZ 000000018004d250 f i libucrtd:output.obj
 0001:0004c260       ?state_transition_table@?$format_validation_base@_WV?$stream_output_adapter@_W@__crt_stdio_output@@@__crt_stdio_output@@KAAEBV?$spectre_mitigated_lookup_table@Ustate_transition_pair@__crt_stdio_output@@$0IA@@2@XZ 000000018004d260 f i libucrtd:output.obj
 0001:0004c270       ?state_transition_table@?$format_validation_base@_WV?$string_output_adapter@_W@__crt_stdio_output@@@__crt_stdio_output@@KAAEBV?$spectre_mitigated_lookup_table@Ustate_transition_pair@__crt_stdio_output@@$0IA@@2@XZ 000000018004d270 f i libucrtd:output.obj
 0001:0004c280       ?state_transition_table@?$standard_base@DV?$stream_output_adapter@D@__crt_stdio_output@@@__crt_stdio_output@@KAAEBV?$spectre_mitigated_lookup_table@Ustate_transition_pair@__crt_stdio_output@@$0IA@@2@XZ 000000018004d280 f i libucrtd:output.obj
 0001:0004c290       ?state_transition_table@?$standard_base@DV?$string_output_adapter@D@__crt_stdio_output@@@__crt_stdio_output@@KAAEBV?$spectre_mitigated_lookup_table@Ustate_transition_pair@__crt_stdio_output@@$0IA@@2@XZ 000000018004d290 f i libucrtd:output.obj
 0001:0004c2a0       ?state_transition_table@?$standard_base@_WV?$stream_output_adapter@_W@__crt_stdio_output@@@__crt_stdio_output@@KAAEBV?$spectre_mitigated_lookup_table@Ustate_transition_pair@__crt_stdio_output@@$0IA@@2@XZ 000000018004d2a0 f i libucrtd:output.obj
 0001:0004c2b0       ?state_transition_table@?$standard_base@_WV?$string_output_adapter@_W@__crt_stdio_output@@@__crt_stdio_output@@KAAEBV?$spectre_mitigated_lookup_table@Ustate_transition_pair@__crt_stdio_output@@$0IA@@2@XZ 000000018004d2b0 f i libucrtd:output.obj
 0001:0004c2c0       ?tchar_string@?$common_data@D@__crt_stdio_output@@IEAAAEAPEADD@Z 000000018004d2c0 f i libucrtd:output.obj
 0001:0004c2e0       ?tchar_string@?$common_data@D@__crt_stdio_output@@IEAAAEAPEADXZ 000000018004d2e0 f i libucrtd:output.obj
 0001:0004c300       ?tchar_string@?$common_data@_W@__crt_stdio_output@@IEAAAEAPEA_WXZ 000000018004d300 f i libucrtd:output.obj
 0001:0004c320       ?tchar_string@?$common_data@_W@__crt_stdio_output@@IEAAAEAPEA_W_W@Z 000000018004d320 f i libucrtd:output.obj
 0001:0004c340       ?to_integer_size@__crt_stdio_output@@YA_KW4length_modifier@1@@Z 000000018004d340 f i libucrtd:output.obj
 0001:0004c3f0       ?type_case_X@?$output_processor@DV?$stream_output_adapter@D@__crt_stdio_output@@V?$format_validation_base@DV?$stream_output_adapter@D@__crt_stdio_output@@@2@@__crt_stdio_output@@AEAA_NXZ 000000018004d3f0 f i libucrtd:output.obj
 0001:0004c410       ?type_case_X@?$output_processor@DV?$stream_output_adapter@D@__crt_stdio_output@@V?$positional_parameter_base@DV?$stream_output_adapter@D@__crt_stdio_output@@@2@@__crt_stdio_output@@AEAA_NXZ 000000018004d410 f i libucrtd:output.obj
 0001:0004c430       ?type_case_X@?$output_processor@DV?$stream_output_adapter@D@__crt_stdio_output@@V?$standard_base@DV?$stream_output_adapter@D@__crt_stdio_output@@@2@@__crt_stdio_output@@AEAA_NXZ 000000018004d430 f i libucrtd:output.obj
 0001:0004c450       ?type_case_X@?$output_processor@DV?$string_output_adapter@D@__crt_stdio_output@@V?$format_validation_base@DV?$string_output_adapter@D@__crt_stdio_output@@@2@@__crt_stdio_output@@AEAA_NXZ 000000018004d450 f i libucrtd:output.obj
 0001:0004c470       ?type_case_X@?$output_processor@DV?$string_output_adapter@D@__crt_stdio_output@@V?$positional_parameter_base@DV?$string_output_adapter@D@__crt_stdio_output@@@2@@__crt_stdio_output@@AEAA_NXZ 000000018004d470 f i libucrtd:output.obj
 0001:0004c490       ?type_case_X@?$output_processor@DV?$string_output_adapter@D@__crt_stdio_output@@V?$standard_base@DV?$string_output_adapter@D@__crt_stdio_output@@@2@@__crt_stdio_output@@AEAA_NXZ 000000018004d490 f i libucrtd:output.obj
 0001:0004c4b0       ?type_case_X@?$output_processor@_WV?$stream_output_adapter@_W@__crt_stdio_output@@V?$format_validation_base@_WV?$stream_output_adapter@_W@__crt_stdio_output@@@2@@__crt_stdio_output@@AEAA_NXZ 000000018004d4b0 f i libucrtd:output.obj
 0001:0004c4d0       ?type_case_X@?$output_processor@_WV?$stream_output_adapter@_W@__crt_stdio_output@@V?$positional_parameter_base@_WV?$stream_output_adapter@_W@__crt_stdio_output@@@2@@__crt_stdio_output@@AEAA_NXZ 000000018004d4d0 f i libucrtd:output.obj
 0001:0004c4f0       ?type_case_X@?$output_processor@_WV?$stream_output_adapter@_W@__crt_stdio_output@@V?$standard_base@_WV?$stream_output_adapter@_W@__crt_stdio_output@@@2@@__crt_stdio_output@@AEAA_NXZ 000000018004d4f0 f i libucrtd:output.obj
 0001:0004c510       ?type_case_X@?$output_processor@_WV?$string_output_adapter@_W@__crt_stdio_output@@V?$format_validation_base@_WV?$string_output_adapter@_W@__crt_stdio_output@@@2@@__crt_stdio_output@@AEAA_NXZ 000000018004d510 f i libucrtd:output.obj
 0001:0004c530       ?type_case_X@?$output_processor@_WV?$string_output_adapter@_W@__crt_stdio_output@@V?$positional_parameter_base@_WV?$string_output_adapter@_W@__crt_stdio_output@@@2@@__crt_stdio_output@@AEAA_NXZ 000000018004d530 f i libucrtd:output.obj
 0001:0004c550       ?type_case_X@?$output_processor@_WV?$string_output_adapter@_W@__crt_stdio_output@@V?$standard_base@_WV?$string_output_adapter@_W@__crt_stdio_output@@@2@@__crt_stdio_output@@AEAA_NXZ 000000018004d550 f i libucrtd:output.obj
 0001:0004c570       ?type_case_Z@?$output_processor@DV?$stream_output_adapter@D@__crt_stdio_output@@V?$format_validation_base@DV?$stream_output_adapter@D@__crt_stdio_output@@@2@@__crt_stdio_output@@AEAA_NXZ 000000018004d570 f i libucrtd:output.obj
 0001:0004c690       ?type_case_Z@?$output_processor@DV?$stream_output_adapter@D@__crt_stdio_output@@V?$positional_parameter_base@DV?$stream_output_adapter@D@__crt_stdio_output@@@2@@__crt_stdio_output@@AEAA_NXZ 000000018004d690 f i libucrtd:output.obj
 0001:0004c7b0       ?type_case_Z@?$output_processor@DV?$stream_output_adapter@D@__crt_stdio_output@@V?$standard_base@DV?$stream_output_adapter@D@__crt_stdio_output@@@2@@__crt_stdio_output@@AEAA_NXZ 000000018004d7b0 f i libucrtd:output.obj
 0001:0004c8d0       ?type_case_Z@?$output_processor@DV?$string_output_adapter@D@__crt_stdio_output@@V?$format_validation_base@DV?$string_output_adapter@D@__crt_stdio_output@@@2@@__crt_stdio_output@@AEAA_NXZ 000000018004d8d0 f i libucrtd:output.obj
 0001:0004c9f0       ?type_case_Z@?$output_processor@DV?$string_output_adapter@D@__crt_stdio_output@@V?$positional_parameter_base@DV?$string_output_adapter@D@__crt_stdio_output@@@2@@__crt_stdio_output@@AEAA_NXZ 000000018004d9f0 f i libucrtd:output.obj
 0001:0004cb10       ?type_case_Z@?$output_processor@DV?$string_output_adapter@D@__crt_stdio_output@@V?$standard_base@DV?$string_output_adapter@D@__crt_stdio_output@@@2@@__crt_stdio_output@@AEAA_NXZ 000000018004db10 f i libucrtd:output.obj
 0001:0004cc30       ?type_case_Z@?$output_processor@_WV?$stream_output_adapter@_W@__crt_stdio_output@@V?$format_validation_base@_WV?$stream_output_adapter@_W@__crt_stdio_output@@@2@@__crt_stdio_output@@AEAA_NXZ 000000018004dc30 f i libucrtd:output.obj
 0001:0004cd50       ?type_case_Z@?$output_processor@_WV?$stream_output_adapter@_W@__crt_stdio_output@@V?$positional_parameter_base@_WV?$stream_output_adapter@_W@__crt_stdio_output@@@2@@__crt_stdio_output@@AEAA_NXZ 000000018004dd50 f i libucrtd:output.obj
 0001:0004ce70       ?type_case_Z@?$output_processor@_WV?$stream_output_adapter@_W@__crt_stdio_output@@V?$standard_base@_WV?$stream_output_adapter@_W@__crt_stdio_output@@@2@@__crt_stdio_output@@AEAA_NXZ 000000018004de70 f i libucrtd:output.obj
 0001:0004cf90       ?type_case_Z@?$output_processor@_WV?$string_output_adapter@_W@__crt_stdio_output@@V?$format_validation_base@_WV?$string_output_adapter@_W@__crt_stdio_output@@@2@@__crt_stdio_output@@AEAA_NXZ 000000018004df90 f i libucrtd:output.obj
 0001:0004d0b0       ?type_case_Z@?$output_processor@_WV?$string_output_adapter@_W@__crt_stdio_output@@V?$positional_parameter_base@_WV?$string_output_adapter@_W@__crt_stdio_output@@@2@@__crt_stdio_output@@AEAA_NXZ 000000018004e0b0 f i libucrtd:output.obj
 0001:0004d1d0       ?type_case_Z@?$output_processor@_WV?$string_output_adapter@_W@__crt_stdio_output@@V?$standard_base@_WV?$string_output_adapter@_W@__crt_stdio_output@@@2@@__crt_stdio_output@@AEAA_NXZ 000000018004e1d0 f i libucrtd:output.obj
 0001:0004d2f0       ?type_case_a@?$output_processor@DV?$stream_output_adapter@D@__crt_stdio_output@@V?$format_validation_base@DV?$stream_output_adapter@D@__crt_stdio_output@@@2@@__crt_stdio_output@@AEAA_NXZ 000000018004e2f0 f i libucrtd:output.obj
 0001:0004d750       ?type_case_a@?$output_processor@DV?$stream_output_adapter@D@__crt_stdio_output@@V?$positional_parameter_base@DV?$stream_output_adapter@D@__crt_stdio_output@@@2@@__crt_stdio_output@@AEAA_NXZ 000000018004e750 f i libucrtd:output.obj
 0001:0004dbb0       ?type_case_a@?$output_processor@DV?$stream_output_adapter@D@__crt_stdio_output@@V?$standard_base@DV?$stream_output_adapter@D@__crt_stdio_output@@@2@@__crt_stdio_output@@AEAA_NXZ 000000018004ebb0 f i libucrtd:output.obj
 0001:0004e010       ?type_case_a@?$output_processor@DV?$string_output_adapter@D@__crt_stdio_output@@V?$format_validation_base@DV?$string_output_adapter@D@__crt_stdio_output@@@2@@__crt_stdio_output@@AEAA_NXZ 000000018004f010 f i libucrtd:output.obj
 0001:0004e470       ?type_case_a@?$output_processor@DV?$string_output_adapter@D@__crt_stdio_output@@V?$positional_parameter_base@DV?$string_output_adapter@D@__crt_stdio_output@@@2@@__crt_stdio_output@@AEAA_NXZ 000000018004f470 f i libucrtd:output.obj
 0001:0004e8d0       ?type_case_a@?$output_processor@DV?$string_output_adapter@D@__crt_stdio_output@@V?$standard_base@DV?$string_output_adapter@D@__crt_stdio_output@@@2@@__crt_stdio_output@@AEAA_NXZ 000000018004f8d0 f i libucrtd:output.obj
 0001:0004ed30       ?type_case_a@?$output_processor@_WV?$stream_output_adapter@_W@__crt_stdio_output@@V?$format_validation_base@_WV?$stream_output_adapter@_W@__crt_stdio_output@@@2@@__crt_stdio_output@@AEAA_NXZ 000000018004fd30 f i libucrtd:output.obj
 0001:0004f1a0       ?type_case_a@?$output_processor@_WV?$stream_output_adapter@_W@__crt_stdio_output@@V?$positional_parameter_base@_WV?$stream_output_adapter@_W@__crt_stdio_output@@@2@@__crt_stdio_output@@AEAA_NXZ 00000001800501a0 f i libucrtd:output.obj
 0001:0004f610       ?type_case_a@?$output_processor@_WV?$stream_output_adapter@_W@__crt_stdio_output@@V?$standard_base@_WV?$stream_output_adapter@_W@__crt_stdio_output@@@2@@__crt_stdio_output@@AEAA_NXZ 0000000180050610 f i libucrtd:output.obj
 0001:0004fa80       ?type_case_a@?$output_processor@_WV?$string_output_adapter@_W@__crt_stdio_output@@V?$format_validation_base@_WV?$string_output_adapter@_W@__crt_stdio_output@@@2@@__crt_stdio_output@@AEAA_NXZ 0000000180050a80 f i libucrtd:output.obj
 0001:0004fef0       ?type_case_a@?$output_processor@_WV?$string_output_adapter@_W@__crt_stdio_output@@V?$positional_parameter_base@_WV?$string_output_adapter@_W@__crt_stdio_output@@@2@@__crt_stdio_output@@AEAA_NXZ 0000000180050ef0 f i libucrtd:output.obj
 0001:00050360       ?type_case_a@?$output_processor@_WV?$string_output_adapter@_W@__crt_stdio_output@@V?$standard_base@_WV?$string_output_adapter@_W@__crt_stdio_output@@@2@@__crt_stdio_output@@AEAA_NXZ 0000000180051360 f i libucrtd:output.obj
 0001:000507d0       ?type_case_c@?$output_processor@DV?$stream_output_adapter@D@__crt_stdio_output@@V?$format_validation_base@DV?$stream_output_adapter@D@__crt_stdio_output@@@2@@__crt_stdio_output@@AEAA_NXZ 00000001800517d0 f i libucrtd:output.obj
 0001:000507f0       ?type_case_c@?$output_processor@DV?$stream_output_adapter@D@__crt_stdio_output@@V?$positional_parameter_base@DV?$stream_output_adapter@D@__crt_stdio_output@@@2@@__crt_stdio_output@@AEAA_NXZ 00000001800517f0 f i libucrtd:output.obj
 0001:00050810       ?type_case_c@?$output_processor@DV?$stream_output_adapter@D@__crt_stdio_output@@V?$standard_base@DV?$stream_output_adapter@D@__crt_stdio_output@@@2@@__crt_stdio_output@@AEAA_NXZ 0000000180051810 f i libucrtd:output.obj
 0001:00050830       ?type_case_c@?$output_processor@DV?$string_output_adapter@D@__crt_stdio_output@@V?$format_validation_base@DV?$string_output_adapter@D@__crt_stdio_output@@@2@@__crt_stdio_output@@AEAA_NXZ 0000000180051830 f i libucrtd:output.obj
 0001:00050850       ?type_case_c@?$output_processor@DV?$string_output_adapter@D@__crt_stdio_output@@V?$positional_parameter_base@DV?$string_output_adapter@D@__crt_stdio_output@@@2@@__crt_stdio_output@@AEAA_NXZ 0000000180051850 f i libucrtd:output.obj
 0001:00050870       ?type_case_c@?$output_processor@DV?$string_output_adapter@D@__crt_stdio_output@@V?$standard_base@DV?$string_output_adapter@D@__crt_stdio_output@@@2@@__crt_stdio_output@@AEAA_NXZ 0000000180051870 f i libucrtd:output.obj
 0001:00050890       ?type_case_c@?$output_processor@_WV?$stream_output_adapter@_W@__crt_stdio_output@@V?$format_validation_base@_WV?$stream_output_adapter@_W@__crt_stdio_output@@@2@@__crt_stdio_output@@AEAA_NXZ 0000000180051890 f i libucrtd:output.obj
 0001:000508b0       ?type_case_c@?$output_processor@_WV?$stream_output_adapter@_W@__crt_stdio_output@@V?$positional_parameter_base@_WV?$stream_output_adapter@_W@__crt_stdio_output@@@2@@__crt_stdio_output@@AEAA_NXZ 00000001800518b0 f i libucrtd:output.obj
 0001:000508d0       ?type_case_c@?$output_processor@_WV?$stream_output_adapter@_W@__crt_stdio_output@@V?$standard_base@_WV?$stream_output_adapter@_W@__crt_stdio_output@@@2@@__crt_stdio_output@@AEAA_NXZ 00000001800518d0 f i libucrtd:output.obj
 0001:000508f0       ?type_case_c@?$output_processor@_WV?$string_output_adapter@_W@__crt_stdio_output@@V?$format_validation_base@_WV?$string_output_adapter@_W@__crt_stdio_output@@@2@@__crt_stdio_output@@AEAA_NXZ 00000001800518f0 f i libucrtd:output.obj
 0001:00050910       ?type_case_c@?$output_processor@_WV?$string_output_adapter@_W@__crt_stdio_output@@V?$positional_parameter_base@_WV?$string_output_adapter@_W@__crt_stdio_output@@@2@@__crt_stdio_output@@AEAA_NXZ 0000000180051910 f i libucrtd:output.obj
 0001:00050930       ?type_case_c@?$output_processor@_WV?$string_output_adapter@_W@__crt_stdio_output@@V?$standard_base@_WV?$string_output_adapter@_W@__crt_stdio_output@@@2@@__crt_stdio_output@@AEAA_NXZ 0000000180051930 f i libucrtd:output.obj
 0001:00050950       ?type_case_c_tchar@?$output_processor@DV?$stream_output_adapter@D@__crt_stdio_output@@V?$format_validation_base@DV?$stream_output_adapter@D@__crt_stdio_output@@@2@@__crt_stdio_output@@AEAA_ND@Z 0000000180051950 f i libucrtd:output.obj
 0001:00050ac0       ?type_case_c_tchar@?$output_processor@DV?$stream_output_adapter@D@__crt_stdio_output@@V?$positional_parameter_base@DV?$stream_output_adapter@D@__crt_stdio_output@@@2@@__crt_stdio_output@@AEAA_ND@Z 0000000180051ac0 f i libucrtd:output.obj
 0001:00050c30       ?type_case_c_tchar@?$output_processor@DV?$stream_output_adapter@D@__crt_stdio_output@@V?$standard_base@DV?$stream_output_adapter@D@__crt_stdio_output@@@2@@__crt_stdio_output@@AEAA_ND@Z 0000000180051c30 f i libucrtd:output.obj
 0001:00050da0       ?type_case_c_tchar@?$output_processor@DV?$string_output_adapter@D@__crt_stdio_output@@V?$format_validation_base@DV?$string_output_adapter@D@__crt_stdio_output@@@2@@__crt_stdio_output@@AEAA_ND@Z 0000000180051da0 f i libucrtd:output.obj
 0001:00050f10       ?type_case_c_tchar@?$output_processor@DV?$string_output_adapter@D@__crt_stdio_output@@V?$positional_parameter_base@DV?$string_output_adapter@D@__crt_stdio_output@@@2@@__crt_stdio_output@@AEAA_ND@Z 0000000180051f10 f i libucrtd:output.obj
 0001:00051080       ?type_case_c_tchar@?$output_processor@DV?$string_output_adapter@D@__crt_stdio_output@@V?$standard_base@DV?$string_output_adapter@D@__crt_stdio_output@@@2@@__crt_stdio_output@@AEAA_ND@Z 0000000180052080 f i libucrtd:output.obj
 0001:000511f0       ?type_case_c_tchar@?$output_processor@_WV?$stream_output_adapter@_W@__crt_stdio_output@@V?$format_validation_base@_WV?$stream_output_adapter@_W@__crt_stdio_output@@@2@@__crt_stdio_output@@AEAA_N_W@Z 00000001800521f0 f i libucrtd:output.obj
 0001:00051350       ?type_case_c_tchar@?$output_processor@_WV?$stream_output_adapter@_W@__crt_stdio_output@@V?$positional_parameter_base@_WV?$stream_output_adapter@_W@__crt_stdio_output@@@2@@__crt_stdio_output@@AEAA_N_W@Z 0000000180052350 f i libucrtd:output.obj
 0001:000514b0       ?type_case_c_tchar@?$output_processor@_WV?$stream_output_adapter@_W@__crt_stdio_output@@V?$standard_base@_WV?$stream_output_adapter@_W@__crt_stdio_output@@@2@@__crt_stdio_output@@AEAA_N_W@Z 00000001800524b0 f i libucrtd:output.obj
 0001:00051610       ?type_case_c_tchar@?$output_processor@_WV?$string_output_adapter@_W@__crt_stdio_output@@V?$format_validation_base@_WV?$string_output_adapter@_W@__crt_stdio_output@@@2@@__crt_stdio_output@@AEAA_N_W@Z 0000000180052610 f i libucrtd:output.obj
 0001:00051770       ?type_case_c_tchar@?$output_processor@_WV?$string_output_adapter@_W@__crt_stdio_output@@V?$positional_parameter_base@_WV?$string_output_adapter@_W@__crt_stdio_output@@@2@@__crt_stdio_output@@AEAA_N_W@Z 0000000180052770 f i libucrtd:output.obj
 0001:000518d0       ?type_case_c_tchar@?$output_processor@_WV?$string_output_adapter@_W@__crt_stdio_output@@V?$standard_base@_WV?$string_output_adapter@_W@__crt_stdio_output@@@2@@__crt_stdio_output@@AEAA_N_W@Z 00000001800528d0 f i libucrtd:output.obj
 0001:00051a30       ?type_case_d@?$output_processor@DV?$stream_output_adapter@D@__crt_stdio_output@@V?$format_validation_base@DV?$stream_output_adapter@D@__crt_stdio_output@@@2@@__crt_stdio_output@@AEAA_NXZ 0000000180052a30 f i libucrtd:output.obj
 0001:00051a60       ?type_case_d@?$output_processor@DV?$stream_output_adapter@D@__crt_stdio_output@@V?$positional_parameter_base@DV?$stream_output_adapter@D@__crt_stdio_output@@@2@@__crt_stdio_output@@AEAA_NXZ 0000000180052a60 f i libucrtd:output.obj
 0001:00051a90       ?type_case_d@?$output_processor@DV?$stream_output_adapter@D@__crt_stdio_output@@V?$standard_base@DV?$stream_output_adapter@D@__crt_stdio_output@@@2@@__crt_stdio_output@@AEAA_NXZ 0000000180052a90 f i libucrtd:output.obj
 0001:00051ac0       ?type_case_d@?$output_processor@DV?$string_output_adapter@D@__crt_stdio_output@@V?$format_validation_base@DV?$string_output_adapter@D@__crt_stdio_output@@@2@@__crt_stdio_output@@AEAA_NXZ 0000000180052ac0 f i libucrtd:output.obj
 0001:00051af0       ?type_case_d@?$output_processor@DV?$string_output_adapter@D@__crt_stdio_output@@V?$positional_parameter_base@DV?$string_output_adapter@D@__crt_stdio_output@@@2@@__crt_stdio_output@@AEAA_NXZ 0000000180052af0 f i libucrtd:output.obj
 0001:00051b20       ?type_case_d@?$output_processor@DV?$string_output_adapter@D@__crt_stdio_output@@V?$standard_base@DV?$string_output_adapter@D@__crt_stdio_output@@@2@@__crt_stdio_output@@AEAA_NXZ 0000000180052b20 f i libucrtd:output.obj
 0001:00051b50       ?type_case_d@?$output_processor@_WV?$stream_output_adapter@_W@__crt_stdio_output@@V?$format_validation_base@_WV?$stream_output_adapter@_W@__crt_stdio_output@@@2@@__crt_stdio_output@@AEAA_NXZ 0000000180052b50 f i libucrtd:output.obj
 0001:00051b80       ?type_case_d@?$output_processor@_WV?$stream_output_adapter@_W@__crt_stdio_output@@V?$positional_parameter_base@_WV?$stream_output_adapter@_W@__crt_stdio_output@@@2@@__crt_stdio_output@@AEAA_NXZ 0000000180052b80 f i libucrtd:output.obj
 0001:00051bb0       ?type_case_d@?$output_processor@_WV?$stream_output_adapter@_W@__crt_stdio_output@@V?$standard_base@_WV?$stream_output_adapter@_W@__crt_stdio_output@@@2@@__crt_stdio_output@@AEAA_NXZ 0000000180052bb0 f i libucrtd:output.obj
 0001:00051be0       ?type_case_d@?$output_processor@_WV?$string_output_adapter@_W@__crt_stdio_output@@V?$format_validation_base@_WV?$string_output_adapter@_W@__crt_stdio_output@@@2@@__crt_stdio_output@@AEAA_NXZ 0000000180052be0 f i libucrtd:output.obj
 0001:00051c10       ?type_case_d@?$output_processor@_WV?$string_output_adapter@_W@__crt_stdio_output@@V?$positional_parameter_base@_WV?$string_output_adapter@_W@__crt_stdio_output@@@2@@__crt_stdio_output@@AEAA_NXZ 0000000180052c10 f i libucrtd:output.obj
 0001:00051c40       ?type_case_d@?$output_processor@_WV?$string_output_adapter@_W@__crt_stdio_output@@V?$standard_base@_WV?$string_output_adapter@_W@__crt_stdio_output@@@2@@__crt_stdio_output@@AEAA_NXZ 0000000180052c40 f i libucrtd:output.obj
 0001:00051c70       ?type_case_n@?$output_processor@DV?$stream_output_adapter@D@__crt_stdio_output@@V?$format_validation_base@DV?$stream_output_adapter@D@__crt_stdio_output@@@2@@__crt_stdio_output@@AEAA_NXZ 0000000180052c70 f i libucrtd:output.obj
 0001:00051f00       ?type_case_n@?$output_processor@DV?$stream_output_adapter@D@__crt_stdio_output@@V?$positional_parameter_base@DV?$stream_output_adapter@D@__crt_stdio_output@@@2@@__crt_stdio_output@@AEAA_NXZ 0000000180052f00 f i libucrtd:output.obj
 0001:00052190       ?type_case_n@?$output_processor@DV?$stream_output_adapter@D@__crt_stdio_output@@V?$standard_base@DV?$stream_output_adapter@D@__crt_stdio_output@@@2@@__crt_stdio_output@@AEAA_NXZ 0000000180053190 f i libucrtd:output.obj
 0001:00052420       ?type_case_n@?$output_processor@DV?$string_output_adapter@D@__crt_stdio_output@@V?$format_validation_base@DV?$string_output_adapter@D@__crt_stdio_output@@@2@@__crt_stdio_output@@AEAA_NXZ 0000000180053420 f i libucrtd:output.obj
 0001:000526b0       ?type_case_n@?$output_processor@DV?$string_output_adapter@D@__crt_stdio_output@@V?$positional_parameter_base@DV?$string_output_adapter@D@__crt_stdio_output@@@2@@__crt_stdio_output@@AEAA_NXZ 00000001800536b0 f i libucrtd:output.obj
 0001:00052940       ?type_case_n@?$output_processor@DV?$string_output_adapter@D@__crt_stdio_output@@V?$standard_base@DV?$string_output_adapter@D@__crt_stdio_output@@@2@@__crt_stdio_output@@AEAA_NXZ 0000000180053940 f i libucrtd:output.obj
 0001:00052bd0       ?type_case_n@?$output_processor@_WV?$stream_output_adapter@_W@__crt_stdio_output@@V?$format_validation_base@_WV?$stream_output_adapter@_W@__crt_stdio_output@@@2@@__crt_stdio_output@@AEAA_NXZ 0000000180053bd0 f i libucrtd:output.obj
 0001:00052e60       ?type_case_n@?$output_processor@_WV?$stream_output_adapter@_W@__crt_stdio_output@@V?$positional_parameter_base@_WV?$stream_output_adapter@_W@__crt_stdio_output@@@2@@__crt_stdio_output@@AEAA_NXZ 0000000180053e60 f i libucrtd:output.obj
 0001:000530f0       ?type_case_n@?$output_processor@_WV?$stream_output_adapter@_W@__crt_stdio_output@@V?$standard_base@_WV?$stream_output_adapter@_W@__crt_stdio_output@@@2@@__crt_stdio_output@@AEAA_NXZ 00000001800540f0 f i libucrtd:output.obj
 0001:00053380       ?type_case_n@?$output_processor@_WV?$string_output_adapter@_W@__crt_stdio_output@@V?$format_validation_base@_WV?$string_output_adapter@_W@__crt_stdio_output@@@2@@__crt_stdio_output@@AEAA_NXZ 0000000180054380 f i libucrtd:output.obj
 0001:00053610       ?type_case_n@?$output_processor@_WV?$string_output_adapter@_W@__crt_stdio_output@@V?$positional_parameter_base@_WV?$string_output_adapter@_W@__crt_stdio_output@@@2@@__crt_stdio_output@@AEAA_NXZ 0000000180054610 f i libucrtd:output.obj
 0001:000538a0       ?type_case_n@?$output_processor@_WV?$string_output_adapter@_W@__crt_stdio_output@@V?$standard_base@_WV?$string_output_adapter@_W@__crt_stdio_output@@@2@@__crt_stdio_output@@AEAA_NXZ 00000001800548a0 f i libucrtd:output.obj
 0001:00053b30       ?type_case_o@?$output_processor@DV?$stream_output_adapter@D@__crt_stdio_output@@V?$format_validation_base@DV?$stream_output_adapter@D@__crt_stdio_output@@@2@@__crt_stdio_output@@AEAA_NXZ 0000000180054b30 f i libucrtd:output.obj
 0001:00053b70       ?type_case_o@?$output_processor@DV?$stream_output_adapter@D@__crt_stdio_output@@V?$positional_parameter_base@DV?$stream_output_adapter@D@__crt_stdio_output@@@2@@__crt_stdio_output@@AEAA_NXZ 0000000180054b70 f i libucrtd:output.obj
 0001:00053bb0       ?type_case_o@?$output_processor@DV?$stream_output_adapter@D@__crt_stdio_output@@V?$standard_base@DV?$stream_output_adapter@D@__crt_stdio_output@@@2@@__crt_stdio_output@@AEAA_NXZ 0000000180054bb0 f i libucrtd:output.obj
 0001:00053bf0       ?type_case_o@?$output_processor@DV?$string_output_adapter@D@__crt_stdio_output@@V?$format_validation_base@DV?$string_output_adapter@D@__crt_stdio_output@@@2@@__crt_stdio_output@@AEAA_NXZ 0000000180054bf0 f i libucrtd:output.obj
 0001:00053c30       ?type_case_o@?$output_processor@DV?$string_output_adapter@D@__crt_stdio_output@@V?$positional_parameter_base@DV?$string_output_adapter@D@__crt_stdio_output@@@2@@__crt_stdio_output@@AEAA_NXZ 0000000180054c30 f i libucrtd:output.obj
 0001:00053c70       ?type_case_o@?$output_processor@DV?$string_output_adapter@D@__crt_stdio_output@@V?$standard_base@DV?$string_output_adapter@D@__crt_stdio_output@@@2@@__crt_stdio_output@@AEAA_NXZ 0000000180054c70 f i libucrtd:output.obj
 0001:00053cb0       ?type_case_o@?$output_processor@_WV?$stream_output_adapter@_W@__crt_stdio_output@@V?$format_validation_base@_WV?$stream_output_adapter@_W@__crt_stdio_output@@@2@@__crt_stdio_output@@AEAA_NXZ 0000000180054cb0 f i libucrtd:output.obj
 0001:00053cf0       ?type_case_o@?$output_processor@_WV?$stream_output_adapter@_W@__crt_stdio_output@@V?$positional_parameter_base@_WV?$stream_output_adapter@_W@__crt_stdio_output@@@2@@__crt_stdio_output@@AEAA_NXZ 0000000180054cf0 f i libucrtd:output.obj
 0001:00053d30       ?type_case_o@?$output_processor@_WV?$stream_output_adapter@_W@__crt_stdio_output@@V?$standard_base@_WV?$stream_output_adapter@_W@__crt_stdio_output@@@2@@__crt_stdio_output@@AEAA_NXZ 0000000180054d30 f i libucrtd:output.obj
 0001:00053d70       ?type_case_o@?$output_processor@_WV?$string_output_adapter@_W@__crt_stdio_output@@V?$format_validation_base@_WV?$string_output_adapter@_W@__crt_stdio_output@@@2@@__crt_stdio_output@@AEAA_NXZ 0000000180054d70 f i libucrtd:output.obj
 0001:00053db0       ?type_case_o@?$output_processor@_WV?$string_output_adapter@_W@__crt_stdio_output@@V?$positional_parameter_base@_WV?$string_output_adapter@_W@__crt_stdio_output@@@2@@__crt_stdio_output@@AEAA_NXZ 0000000180054db0 f i libucrtd:output.obj
 0001:00053df0       ?type_case_o@?$output_processor@_WV?$string_output_adapter@_W@__crt_stdio_output@@V?$standard_base@_WV?$string_output_adapter@_W@__crt_stdio_output@@@2@@__crt_stdio_output@@AEAA_NXZ 0000000180054df0 f i libucrtd:output.obj
 0001:00053e30       ?type_case_p@?$output_processor@DV?$stream_output_adapter@D@__crt_stdio_output@@V?$format_validation_base@DV?$stream_output_adapter@D@__crt_stdio_output@@@2@@__crt_stdio_output@@AEAA_NXZ 0000000180054e30 f i libucrtd:output.obj
 0001:00053e70       ?type_case_p@?$output_processor@DV?$stream_output_adapter@D@__crt_stdio_output@@V?$positional_parameter_base@DV?$stream_output_adapter@D@__crt_stdio_output@@@2@@__crt_stdio_output@@AEAA_NXZ 0000000180054e70 f i libucrtd:output.obj
 0001:00053eb0       ?type_case_p@?$output_processor@DV?$stream_output_adapter@D@__crt_stdio_output@@V?$standard_base@DV?$stream_output_adapter@D@__crt_stdio_output@@@2@@__crt_stdio_output@@AEAA_NXZ 0000000180054eb0 f i libucrtd:output.obj
 0001:00053ef0       ?type_case_p@?$output_processor@DV?$string_output_adapter@D@__crt_stdio_output@@V?$format_validation_base@DV?$string_output_adapter@D@__crt_stdio_output@@@2@@__crt_stdio_output@@AEAA_NXZ 0000000180054ef0 f i libucrtd:output.obj
 0001:00053f30       ?type_case_p@?$output_processor@DV?$string_output_adapter@D@__crt_stdio_output@@V?$positional_parameter_base@DV?$string_output_adapter@D@__crt_stdio_output@@@2@@__crt_stdio_output@@AEAA_NXZ 0000000180054f30 f i libucrtd:output.obj
 0001:00053f70       ?type_case_p@?$output_processor@DV?$string_output_adapter@D@__crt_stdio_output@@V?$standard_base@DV?$string_output_adapter@D@__crt_stdio_output@@@2@@__crt_stdio_output@@AEAA_NXZ 0000000180054f70 f i libucrtd:output.obj
 0001:00053fb0       ?type_case_p@?$output_processor@_WV?$stream_output_adapter@_W@__crt_stdio_output@@V?$format_validation_base@_WV?$stream_output_adapter@_W@__crt_stdio_output@@@2@@__crt_stdio_output@@AEAA_NXZ 0000000180054fb0 f i libucrtd:output.obj
 0001:00053ff0       ?type_case_p@?$output_processor@_WV?$stream_output_adapter@_W@__crt_stdio_output@@V?$positional_parameter_base@_WV?$stream_output_adapter@_W@__crt_stdio_output@@@2@@__crt_stdio_output@@AEAA_NXZ 0000000180054ff0 f i libucrtd:output.obj
 0001:00054030       ?type_case_p@?$output_processor@_WV?$stream_output_adapter@_W@__crt_stdio_output@@V?$standard_base@_WV?$stream_output_adapter@_W@__crt_stdio_output@@@2@@__crt_stdio_output@@AEAA_NXZ 0000000180055030 f i libucrtd:output.obj
 0001:00054070       ?type_case_p@?$output_processor@_WV?$string_output_adapter@_W@__crt_stdio_output@@V?$format_validation_base@_WV?$string_output_adapter@_W@__crt_stdio_output@@@2@@__crt_stdio_output@@AEAA_NXZ 0000000180055070 f i libucrtd:output.obj
 0001:000540b0       ?type_case_p@?$output_processor@_WV?$string_output_adapter@_W@__crt_stdio_output@@V?$positional_parameter_base@_WV?$string_output_adapter@_W@__crt_stdio_output@@@2@@__crt_stdio_output@@AEAA_NXZ 00000001800550b0 f i libucrtd:output.obj
 0001:000540f0       ?type_case_p@?$output_processor@_WV?$string_output_adapter@_W@__crt_stdio_output@@V?$standard_base@_WV?$string_output_adapter@_W@__crt_stdio_output@@@2@@__crt_stdio_output@@AEAA_NXZ 00000001800550f0 f i libucrtd:output.obj
 0001:00054130       ?type_case_s@?$output_processor@DV?$stream_output_adapter@D@__crt_stdio_output@@V?$format_validation_base@DV?$stream_output_adapter@D@__crt_stdio_output@@@2@@__crt_stdio_output@@AEAA_NXZ 0000000180055130 f i libucrtd:output.obj
 0001:00054250       ?type_case_s@?$output_processor@DV?$stream_output_adapter@D@__crt_stdio_output@@V?$positional_parameter_base@DV?$stream_output_adapter@D@__crt_stdio_output@@@2@@__crt_stdio_output@@AEAA_NXZ 0000000180055250 f i libucrtd:output.obj
 0001:00054370       ?type_case_s@?$output_processor@DV?$stream_output_adapter@D@__crt_stdio_output@@V?$standard_base@DV?$stream_output_adapter@D@__crt_stdio_output@@@2@@__crt_stdio_output@@AEAA_NXZ 0000000180055370 f i libucrtd:output.obj
 0001:00054490       ?type_case_s@?$output_processor@DV?$string_output_adapter@D@__crt_stdio_output@@V?$format_validation_base@DV?$string_output_adapter@D@__crt_stdio_output@@@2@@__crt_stdio_output@@AEAA_NXZ 0000000180055490 f i libucrtd:output.obj
 0001:000545b0       ?type_case_s@?$output_processor@DV?$string_output_adapter@D@__crt_stdio_output@@V?$positional_parameter_base@DV?$string_output_adapter@D@__crt_stdio_output@@@2@@__crt_stdio_output@@AEAA_NXZ 00000001800555b0 f i libucrtd:output.obj
 0001:000546d0       ?type_case_s@?$output_processor@DV?$string_output_adapter@D@__crt_stdio_output@@V?$standard_base@DV?$string_output_adapter@D@__crt_stdio_output@@@2@@__crt_stdio_output@@AEAA_NXZ 00000001800556d0 f i libucrtd:output.obj
 0001:000547f0       ?type_case_s@?$output_processor@_WV?$stream_output_adapter@_W@__crt_stdio_output@@V?$format_validation_base@_WV?$stream_output_adapter@_W@__crt_stdio_output@@@2@@__crt_stdio_output@@AEAA_NXZ 00000001800557f0 f i libucrtd:output.obj
 0001:00054910       ?type_case_s@?$output_processor@_WV?$stream_output_adapter@_W@__crt_stdio_output@@V?$positional_parameter_base@_WV?$stream_output_adapter@_W@__crt_stdio_output@@@2@@__crt_stdio_output@@AEAA_NXZ 0000000180055910 f i libucrtd:output.obj
 0001:00054a30       ?type_case_s@?$output_processor@_WV?$stream_output_adapter@_W@__crt_stdio_output@@V?$standard_base@_WV?$stream_output_adapter@_W@__crt_stdio_output@@@2@@__crt_stdio_output@@AEAA_NXZ 0000000180055a30 f i libucrtd:output.obj
 0001:00054b50       ?type_case_s@?$output_processor@_WV?$string_output_adapter@_W@__crt_stdio_output@@V?$format_validation_base@_WV?$string_output_adapter@_W@__crt_stdio_output@@@2@@__crt_stdio_output@@AEAA_NXZ 0000000180055b50 f i libucrtd:output.obj
 0001:00054c70       ?type_case_s@?$output_processor@_WV?$string_output_adapter@_W@__crt_stdio_output@@V?$positional_parameter_base@_WV?$string_output_adapter@_W@__crt_stdio_output@@@2@@__crt_stdio_output@@AEAA_NXZ 0000000180055c70 f i libucrtd:output.obj
 0001:00054d90       ?type_case_s@?$output_processor@_WV?$string_output_adapter@_W@__crt_stdio_output@@V?$standard_base@_WV?$string_output_adapter@_W@__crt_stdio_output@@@2@@__crt_stdio_output@@AEAA_NXZ 0000000180055d90 f i libucrtd:output.obj
 0001:00054eb0       ?type_case_s_compute_narrow_string_length@?$output_processor@DV?$stream_output_adapter@D@__crt_stdio_output@@V?$format_validation_base@DV?$stream_output_adapter@D@__crt_stdio_output@@@2@@__crt_stdio_output@@AEAAHHD@Z 0000000180055eb0 f i libucrtd:output.obj
 0001:00054ee0       ?type_case_s_compute_narrow_string_length@?$output_processor@DV?$stream_output_adapter@D@__crt_stdio_output@@V?$positional_parameter_base@DV?$stream_output_adapter@D@__crt_stdio_output@@@2@@__crt_stdio_output@@AEAAHHD@Z 0000000180055ee0 f i libucrtd:output.obj
 0001:00054f10       ?type_case_s_compute_narrow_string_length@?$output_processor@DV?$stream_output_adapter@D@__crt_stdio_output@@V?$standard_base@DV?$stream_output_adapter@D@__crt_stdio_output@@@2@@__crt_stdio_output@@AEAAHHD@Z 0000000180055f10 f i libucrtd:output.obj
 0001:00054f40       ?type_case_s_compute_narrow_string_length@?$output_processor@DV?$string_output_adapter@D@__crt_stdio_output@@V?$format_validation_base@DV?$string_output_adapter@D@__crt_stdio_output@@@2@@__crt_stdio_output@@AEAAHHD@Z 0000000180055f40 f i libucrtd:output.obj
 0001:00054f70       ?type_case_s_compute_narrow_string_length@?$output_processor@DV?$string_output_adapter@D@__crt_stdio_output@@V?$positional_parameter_base@DV?$string_output_adapter@D@__crt_stdio_output@@@2@@__crt_stdio_output@@AEAAHHD@Z 0000000180055f70 f i libucrtd:output.obj
 0001:00054fa0       ?type_case_s_compute_narrow_string_length@?$output_processor@DV?$string_output_adapter@D@__crt_stdio_output@@V?$standard_base@DV?$string_output_adapter@D@__crt_stdio_output@@@2@@__crt_stdio_output@@AEAAHHD@Z 0000000180055fa0 f i libucrtd:output.obj
 0001:00054fd0       ?type_case_s_compute_narrow_string_length@?$output_processor@_WV?$stream_output_adapter@_W@__crt_stdio_output@@V?$format_validation_base@_WV?$stream_output_adapter@_W@__crt_stdio_output@@@2@@__crt_stdio_output@@AEAAHH_W@Z 0000000180055fd0 f i libucrtd:output.obj
 0001:00055070       ?type_case_s_compute_narrow_string_length@?$output_processor@_WV?$stream_output_adapter@_W@__crt_stdio_output@@V?$positional_parameter_base@_WV?$stream_output_adapter@_W@__crt_stdio_output@@@2@@__crt_stdio_output@@AEAAHH_W@Z 0000000180056070 f i libucrtd:output.obj
 0001:00055110       ?type_case_s_compute_narrow_string_length@?$output_processor@_WV?$stream_output_adapter@_W@__crt_stdio_output@@V?$standard_base@_WV?$stream_output_adapter@_W@__crt_stdio_output@@@2@@__crt_stdio_output@@AEAAHH_W@Z 0000000180056110 f i libucrtd:output.obj
 0001:000551b0       ?type_case_s_compute_narrow_string_length@?$output_processor@_WV?$string_output_adapter@_W@__crt_stdio_output@@V?$format_validation_base@_WV?$string_output_adapter@_W@__crt_stdio_output@@@2@@__crt_stdio_output@@AEAAHH_W@Z 00000001800561b0 f i libucrtd:output.obj
 0001:00055250       ?type_case_s_compute_narrow_string_length@?$output_processor@_WV?$string_output_adapter@_W@__crt_stdio_output@@V?$positional_parameter_base@_WV?$string_output_adapter@_W@__crt_stdio_output@@@2@@__crt_stdio_output@@AEAAHH_W@Z 0000000180056250 f i libucrtd:output.obj
 0001:000552f0       ?type_case_s_compute_narrow_string_length@?$output_processor@_WV?$string_output_adapter@_W@__crt_stdio_output@@V?$standard_base@_WV?$string_output_adapter@_W@__crt_stdio_output@@@2@@__crt_stdio_output@@AEAAHH_W@Z 00000001800562f0 f i libucrtd:output.obj
 0001:00055390       ?type_case_u@?$output_processor@DV?$stream_output_adapter@D@__crt_stdio_output@@V?$format_validation_base@DV?$stream_output_adapter@D@__crt_stdio_output@@@2@@__crt_stdio_output@@AEAA_NXZ 0000000180056390 f i libucrtd:output.obj
 0001:000553b0       ?type_case_u@?$output_processor@DV?$stream_output_adapter@D@__crt_stdio_output@@V?$positional_parameter_base@DV?$stream_output_adapter@D@__crt_stdio_output@@@2@@__crt_stdio_output@@AEAA_NXZ 00000001800563b0 f i libucrtd:output.obj
 0001:000553d0       ?type_case_u@?$output_processor@DV?$stream_output_adapter@D@__crt_stdio_output@@V?$standard_base@DV?$stream_output_adapter@D@__crt_stdio_output@@@2@@__crt_stdio_output@@AEAA_NXZ 00000001800563d0 f i libucrtd:output.obj
 0001:000553f0       ?type_case_u@?$output_processor@DV?$string_output_adapter@D@__crt_stdio_output@@V?$format_validation_base@DV?$string_output_adapter@D@__crt_stdio_output@@@2@@__crt_stdio_output@@AEAA_NXZ 00000001800563f0 f i libucrtd:output.obj
 0001:00055410       ?type_case_u@?$output_processor@DV?$string_output_adapter@D@__crt_stdio_output@@V?$positional_parameter_base@DV?$string_output_adapter@D@__crt_stdio_output@@@2@@__crt_stdio_output@@AEAA_NXZ 0000000180056410 f i libucrtd:output.obj
 0001:00055430       ?type_case_u@?$output_processor@DV?$string_output_adapter@D@__crt_stdio_output@@V?$standard_base@DV?$string_output_adapter@D@__crt_stdio_output@@@2@@__crt_stdio_output@@AEAA_NXZ 0000000180056430 f i libucrtd:output.obj
 0001:00055450       ?type_case_u@?$output_processor@_WV?$stream_output_adapter@_W@__crt_stdio_output@@V?$format_validation_base@_WV?$stream_output_adapter@_W@__crt_stdio_output@@@2@@__crt_stdio_output@@AEAA_NXZ 0000000180056450 f i libucrtd:output.obj
 0001:00055470       ?type_case_u@?$output_processor@_WV?$stream_output_adapter@_W@__crt_stdio_output@@V?$positional_parameter_base@_WV?$stream_output_adapter@_W@__crt_stdio_output@@@2@@__crt_stdio_output@@AEAA_NXZ 0000000180056470 f i libucrtd:output.obj
 0001:00055490       ?type_case_u@?$output_processor@_WV?$stream_output_adapter@_W@__crt_stdio_output@@V?$standard_base@_WV?$stream_output_adapter@_W@__crt_stdio_output@@@2@@__crt_stdio_output@@AEAA_NXZ 0000000180056490 f i libucrtd:output.obj
 0001:000554b0       ?type_case_u@?$output_processor@_WV?$string_output_adapter@_W@__crt_stdio_output@@V?$format_validation_base@_WV?$string_output_adapter@_W@__crt_stdio_output@@@2@@__crt_stdio_output@@AEAA_NXZ 00000001800564b0 f i libucrtd:output.obj
 0001:000554d0       ?type_case_u@?$output_processor@_WV?$string_output_adapter@_W@__crt_stdio_output@@V?$positional_parameter_base@_WV?$string_output_adapter@_W@__crt_stdio_output@@@2@@__crt_stdio_output@@AEAA_NXZ 00000001800564d0 f i libucrtd:output.obj
 0001:000554f0       ?type_case_u@?$output_processor@_WV?$string_output_adapter@_W@__crt_stdio_output@@V?$standard_base@_WV?$string_output_adapter@_W@__crt_stdio_output@@@2@@__crt_stdio_output@@AEAA_NXZ 00000001800564f0 f i libucrtd:output.obj
 0001:00055510       ?type_case_x@?$output_processor@DV?$stream_output_adapter@D@__crt_stdio_output@@V?$format_validation_base@DV?$stream_output_adapter@D@__crt_stdio_output@@@2@@__crt_stdio_output@@AEAA_NXZ 0000000180056510 f i libucrtd:output.obj
 0001:00055530       ?type_case_x@?$output_processor@DV?$stream_output_adapter@D@__crt_stdio_output@@V?$positional_parameter_base@DV?$stream_output_adapter@D@__crt_stdio_output@@@2@@__crt_stdio_output@@AEAA_NXZ 0000000180056530 f i libucrtd:output.obj
 0001:00055550       ?type_case_x@?$output_processor@DV?$stream_output_adapter@D@__crt_stdio_output@@V?$standard_base@DV?$stream_output_adapter@D@__crt_stdio_output@@@2@@__crt_stdio_output@@AEAA_NXZ 0000000180056550 f i libucrtd:output.obj
 0001:00055570       ?type_case_x@?$output_processor@DV?$string_output_adapter@D@__crt_stdio_output@@V?$format_validation_base@DV?$string_output_adapter@D@__crt_stdio_output@@@2@@__crt_stdio_output@@AEAA_NXZ 0000000180056570 f i libucrtd:output.obj
 0001:00055590       ?type_case_x@?$output_processor@DV?$string_output_adapter@D@__crt_stdio_output@@V?$positional_parameter_base@DV?$string_output_adapter@D@__crt_stdio_output@@@2@@__crt_stdio_output@@AEAA_NXZ 0000000180056590 f i libucrtd:output.obj
 0001:000555b0       ?type_case_x@?$output_processor@DV?$string_output_adapter@D@__crt_stdio_output@@V?$standard_base@DV?$string_output_adapter@D@__crt_stdio_output@@@2@@__crt_stdio_output@@AEAA_NXZ 00000001800565b0 f i libucrtd:output.obj
 0001:000555d0       ?type_case_x@?$output_processor@_WV?$stream_output_adapter@_W@__crt_stdio_output@@V?$format_validation_base@_WV?$stream_output_adapter@_W@__crt_stdio_output@@@2@@__crt_stdio_output@@AEAA_NXZ 00000001800565d0 f i libucrtd:output.obj
 0001:000555f0       ?type_case_x@?$output_processor@_WV?$stream_output_adapter@_W@__crt_stdio_output@@V?$positional_parameter_base@_WV?$stream_output_adapter@_W@__crt_stdio_output@@@2@@__crt_stdio_output@@AEAA_NXZ 00000001800565f0 f i libucrtd:output.obj
 0001:00055610       ?type_case_x@?$output_processor@_WV?$stream_output_adapter@_W@__crt_stdio_output@@V?$standard_base@_WV?$stream_output_adapter@_W@__crt_stdio_output@@@2@@__crt_stdio_output@@AEAA_NXZ 0000000180056610 f i libucrtd:output.obj
 0001:00055630       ?type_case_x@?$output_processor@_WV?$string_output_adapter@_W@__crt_stdio_output@@V?$format_validation_base@_WV?$string_output_adapter@_W@__crt_stdio_output@@@2@@__crt_stdio_output@@AEAA_NXZ 0000000180056630 f i libucrtd:output.obj
 0001:00055650       ?type_case_x@?$output_processor@_WV?$string_output_adapter@_W@__crt_stdio_output@@V?$positional_parameter_base@_WV?$string_output_adapter@_W@__crt_stdio_output@@@2@@__crt_stdio_output@@AEAA_NXZ 0000000180056650 f i libucrtd:output.obj
 0001:00055670       ?type_case_x@?$output_processor@_WV?$string_output_adapter@_W@__crt_stdio_output@@V?$standard_base@_WV?$string_output_adapter@_W@__crt_stdio_output@@@2@@__crt_stdio_output@@AEAA_NXZ 0000000180056670 f i libucrtd:output.obj
 0001:00055690       ?unget@?$c_string_character_source@D@__crt_strtox@@QEAAXD@Z 0000000180056690 f i libucrtd:output.obj
 0001:00055770       ?unget@?$c_string_character_source@_W@__crt_strtox@@QEAAX_W@Z 0000000180056770 f i libucrtd:output.obj
 0001:00055850       ?unsafe_value@?$cached@H@__crt_cached_ptd_host@@QEAAHXZ 0000000180056850 f i libucrtd:output.obj
 0001:00055860       ?unsafe_value@?$cached@K@__crt_cached_ptd_host@@QEAAKXZ 0000000180056860 f i libucrtd:output.obj
 0001:00055870       ?unset_flag@?$output_processor@DV?$stream_output_adapter@D@__crt_stdio_output@@V?$format_validation_base@DV?$stream_output_adapter@D@__crt_stdio_output@@@2@@__crt_stdio_output@@AEAAXI@Z 0000000180056870 f i libucrtd:output.obj
 0001:000558a0       ?unset_flag@?$output_processor@DV?$stream_output_adapter@D@__crt_stdio_output@@V?$positional_parameter_base@DV?$stream_output_adapter@D@__crt_stdio_output@@@2@@__crt_stdio_output@@AEAAXI@Z 00000001800568a0 f i libucrtd:output.obj
 0001:000558d0       ?unset_flag@?$output_processor@DV?$stream_output_adapter@D@__crt_stdio_output@@V?$standard_base@DV?$stream_output_adapter@D@__crt_stdio_output@@@2@@__crt_stdio_output@@AEAAXI@Z 00000001800568d0 f i libucrtd:output.obj
 0001:00055900       ?unset_flag@?$output_processor@DV?$string_output_adapter@D@__crt_stdio_output@@V?$format_validation_base@DV?$string_output_adapter@D@__crt_stdio_output@@@2@@__crt_stdio_output@@AEAAXI@Z 0000000180056900 f i libucrtd:output.obj
 0001:00055930       ?unset_flag@?$output_processor@DV?$string_output_adapter@D@__crt_stdio_output@@V?$positional_parameter_base@DV?$string_output_adapter@D@__crt_stdio_output@@@2@@__crt_stdio_output@@AEAAXI@Z 0000000180056930 f i libucrtd:output.obj
 0001:00055960       ?unset_flag@?$output_processor@DV?$string_output_adapter@D@__crt_stdio_output@@V?$standard_base@DV?$string_output_adapter@D@__crt_stdio_output@@@2@@__crt_stdio_output@@AEAAXI@Z 0000000180056960 f i libucrtd:output.obj
 0001:00055990       ?unset_flag@?$output_processor@_WV?$stream_output_adapter@_W@__crt_stdio_output@@V?$format_validation_base@_WV?$stream_output_adapter@_W@__crt_stdio_output@@@2@@__crt_stdio_output@@AEAAXI@Z 0000000180056990 f i libucrtd:output.obj
 0001:000559c0       ?unset_flag@?$output_processor@_WV?$stream_output_adapter@_W@__crt_stdio_output@@V?$positional_parameter_base@_WV?$stream_output_adapter@_W@__crt_stdio_output@@@2@@__crt_stdio_output@@AEAAXI@Z 00000001800569c0 f i libucrtd:output.obj
 0001:000559f0       ?unset_flag@?$output_processor@_WV?$stream_output_adapter@_W@__crt_stdio_output@@V?$standard_base@_WV?$stream_output_adapter@_W@__crt_stdio_output@@@2@@__crt_stdio_output@@AEAAXI@Z 00000001800569f0 f i libucrtd:output.obj
 0001:00055a20       ?unset_flag@?$output_processor@_WV?$string_output_adapter@_W@__crt_stdio_output@@V?$format_validation_base@_WV?$string_output_adapter@_W@__crt_stdio_output@@@2@@__crt_stdio_output@@AEAAXI@Z 0000000180056a20 f i libucrtd:output.obj
 0001:00055a50       ?unset_flag@?$output_processor@_WV?$string_output_adapter@_W@__crt_stdio_output@@V?$positional_parameter_base@_WV?$string_output_adapter@_W@__crt_stdio_output@@@2@@__crt_stdio_output@@AEAAXI@Z 0000000180056a50 f i libucrtd:output.obj
 0001:00055a80       ?unset_flag@?$output_processor@_WV?$string_output_adapter@_W@__crt_stdio_output@@V?$standard_base@_WV?$string_output_adapter@_W@__crt_stdio_output@@@2@@__crt_stdio_output@@AEAAXI@Z 0000000180056a80 f i libucrtd:output.obj
 0001:00055ab0       ?update_field_width@?$positional_parameter_base@DV?$stream_output_adapter@D@__crt_stdio_output@@@__crt_stdio_output@@IEAA_NXZ 0000000180056ab0 f i libucrtd:output.obj
 0001:00055cb0       ?update_field_width@?$positional_parameter_base@DV?$string_output_adapter@D@__crt_stdio_output@@@__crt_stdio_output@@IEAA_NXZ 0000000180056cb0 f i libucrtd:output.obj
 0001:00055eb0       ?update_field_width@?$positional_parameter_base@_WV?$stream_output_adapter@_W@__crt_stdio_output@@@__crt_stdio_output@@IEAA_NXZ 0000000180056eb0 f i libucrtd:output.obj
 0001:000560b0       ?update_field_width@?$positional_parameter_base@_WV?$string_output_adapter@_W@__crt_stdio_output@@@__crt_stdio_output@@IEAA_NXZ 00000001800570b0 f i libucrtd:output.obj
 0001:000562b0       ?update_field_width@?$standard_base@DV?$stream_output_adapter@D@__crt_stdio_output@@@__crt_stdio_output@@IEAA_NXZ 00000001800572b0 f i libucrtd:output.obj
 0001:000562e0       ?update_field_width@?$standard_base@DV?$string_output_adapter@D@__crt_stdio_output@@@__crt_stdio_output@@IEAA_NXZ 00000001800572e0 f i libucrtd:output.obj
 0001:00056310       ?update_field_width@?$standard_base@_WV?$stream_output_adapter@_W@__crt_stdio_output@@@__crt_stdio_output@@IEAA_NXZ 0000000180057310 f i libucrtd:output.obj
 0001:00056340       ?update_field_width@?$standard_base@_WV?$string_output_adapter@_W@__crt_stdio_output@@@__crt_stdio_output@@IEAA_NXZ 0000000180057340 f i libucrtd:output.obj
 0001:00056370       ?update_locale@__crt_cached_ptd_host@@AEAAXXZ 0000000180057370 f i libucrtd:output.obj
 0001:000563a0       ?update_locale_slow@__crt_cached_ptd_host@@AEAAXXZ 00000001800573a0 f i libucrtd:output.obj
 0001:00056450       ?update_precision@?$positional_parameter_base@DV?$stream_output_adapter@D@__crt_stdio_output@@@__crt_stdio_output@@IEAA_NXZ 0000000180057450 f i libucrtd:output.obj
 0001:00056650       ?update_precision@?$positional_parameter_base@DV?$string_output_adapter@D@__crt_stdio_output@@@__crt_stdio_output@@IEAA_NXZ 0000000180057650 f i libucrtd:output.obj
 0001:00056850       ?update_precision@?$positional_parameter_base@_WV?$stream_output_adapter@_W@__crt_stdio_output@@@__crt_stdio_output@@IEAA_NXZ 0000000180057850 f i libucrtd:output.obj
 0001:00056a50       ?update_precision@?$positional_parameter_base@_WV?$string_output_adapter@_W@__crt_stdio_output@@@__crt_stdio_output@@IEAA_NXZ 0000000180057a50 f i libucrtd:output.obj
 0001:00056c50       ?update_precision@?$standard_base@DV?$stream_output_adapter@D@__crt_stdio_output@@@__crt_stdio_output@@IEAA_NXZ 0000000180057c50 f i libucrtd:output.obj
 0001:00056c80       ?update_precision@?$standard_base@DV?$string_output_adapter@D@__crt_stdio_output@@@__crt_stdio_output@@IEAA_NXZ 0000000180057c80 f i libucrtd:output.obj
 0001:00056cb0       ?update_precision@?$standard_base@_WV?$stream_output_adapter@_W@__crt_stdio_output@@@__crt_stdio_output@@IEAA_NXZ 0000000180057cb0 f i libucrtd:output.obj
 0001:00056ce0       ?update_precision@?$standard_base@_WV?$string_output_adapter@_W@__crt_stdio_output@@@__crt_stdio_output@@IEAA_NXZ 0000000180057ce0 f i libucrtd:output.obj
 0001:00056d10       ?valid@?$cached@H@__crt_cached_ptd_host@@QEBA_NXZ 0000000180057d10 f i libucrtd:output.obj
 0001:00056d20       ?valid@?$cached@K@__crt_cached_ptd_host@@QEBA_NXZ 0000000180057d20 f i libucrtd:output.obj
 0001:00056d30       ?valid@__crt_stdio_stream@@QEBA_NXZ 0000000180057d30 f i libucrtd:output.obj
 0001:00056d60       ?validate@?$c_string_character_source@D@__crt_strtox@@QEBA_NXZ 0000000180057d60 f i libucrtd:output.obj
 0001:00056e20       ?validate@?$c_string_character_source@_W@__crt_strtox@@QEBA_NXZ 0000000180057e20 f i libucrtd:output.obj
 0001:00056ee0       ?validate@?$stream_output_adapter@D@__crt_stdio_output@@QEBA_NAEAV__crt_cached_ptd_host@@@Z 0000000180057ee0 f i libucrtd:output.obj
 0001:00056fe0       ?validate@?$stream_output_adapter@_W@__crt_stdio_output@@QEBA_NAEAV__crt_cached_ptd_host@@@Z 0000000180057fe0 f i libucrtd:output.obj
 0001:000570e0       ?validate@?$string_output_adapter@D@__crt_stdio_output@@QEBA_NAEAV__crt_cached_ptd_host@@@Z 00000001800580e0 f i libucrtd:output.obj
 0001:000571c0       ?validate@?$string_output_adapter@_W@__crt_stdio_output@@QEBA_NAEAV__crt_cached_ptd_host@@@Z 00000001800581c0 f i libucrtd:output.obj
 0001:000572a0       ?validate_and_store_parameter_data@?$positional_parameter_base@DV?$stream_output_adapter@D@__crt_stdio_output@@@__crt_stdio_output@@AEAA_NAEAUparameter_data@12@W4parameter_type@12@DW4length_modifier@2@@Z 00000001800582a0 f i libucrtd:output.obj
 0001:000573e0       ?validate_and_store_parameter_data@?$positional_parameter_base@DV?$string_output_adapter@D@__crt_stdio_output@@@__crt_stdio_output@@AEAA_NAEAUparameter_data@12@W4parameter_type@12@DW4length_modifier@2@@Z 00000001800583e0 f i libucrtd:output.obj
 0001:00057520       ?validate_and_store_parameter_data@?$positional_parameter_base@_WV?$stream_output_adapter@_W@__crt_stdio_output@@@__crt_stdio_output@@AEAA_NAEAUparameter_data@12@W4parameter_type@12@_WW4length_modifier@2@@Z 0000000180058520 f i libucrtd:output.obj
 0001:00057660       ?validate_and_store_parameter_data@?$positional_parameter_base@_WV?$string_output_adapter@_W@__crt_stdio_output@@@__crt_stdio_output@@AEAA_NAEAUparameter_data@12@W4parameter_type@12@_WW4length_modifier@2@@Z 0000000180058660 f i libucrtd:output.obj
 0001:000577a0       ?validate_and_update_state_at_beginning_of_format_character@?$positional_parameter_base@DV?$stream_output_adapter@D@__crt_stdio_output@@@__crt_stdio_output@@IEAA_NXZ 00000001800587a0 f i libucrtd:output.obj
 0001:00057a40       ?validate_and_update_state_at_beginning_of_format_character@?$positional_parameter_base@DV?$string_output_adapter@D@__crt_stdio_output@@@__crt_stdio_output@@IEAA_NXZ 0000000180058a40 f i libucrtd:output.obj
 0001:00057ce0       ?validate_and_update_state_at_beginning_of_format_character@?$positional_parameter_base@_WV?$stream_output_adapter@_W@__crt_stdio_output@@@__crt_stdio_output@@IEAA_NXZ 0000000180058ce0 f i libucrtd:output.obj
 0001:00057f80       ?validate_and_update_state_at_beginning_of_format_character@?$positional_parameter_base@_WV?$string_output_adapter@_W@__crt_stdio_output@@@__crt_stdio_output@@IEAA_NXZ 0000000180058f80 f i libucrtd:output.obj
 0001:00058220       ?validate_and_update_state_at_beginning_of_format_character@?$standard_base@DV?$stream_output_adapter@D@__crt_stdio_output@@@__crt_stdio_output@@IEAA_NXZ 0000000180059220 f i libucrtd:output.obj
 0001:00058230       ?validate_and_update_state_at_beginning_of_format_character@?$standard_base@DV?$string_output_adapter@D@__crt_stdio_output@@@__crt_stdio_output@@IEAA_NXZ 0000000180059230 f i libucrtd:output.obj
 0001:00058240       ?validate_and_update_state_at_beginning_of_format_character@?$standard_base@_WV?$stream_output_adapter@_W@__crt_stdio_output@@@__crt_stdio_output@@IEAA_NXZ 0000000180059240 f i libucrtd:output.obj
 0001:00058250       ?validate_and_update_state_at_beginning_of_format_character@?$standard_base@_WV?$string_output_adapter@_W@__crt_stdio_output@@@__crt_stdio_output@@IEAA_NXZ 0000000180059250 f i libucrtd:output.obj
 0001:00058260       ?validate_and_update_state_at_end_of_format_string@?$format_validation_base@DV?$stream_output_adapter@D@__crt_stdio_output@@@__crt_stdio_output@@IEAA_NXZ 0000000180059260 f i libucrtd:output.obj
 0001:00058350       ?validate_and_update_state_at_end_of_format_string@?$format_validation_base@DV?$string_output_adapter@D@__crt_stdio_output@@@__crt_stdio_output@@IEAA_NXZ 0000000180059350 f i libucrtd:output.obj
 0001:00058440       ?validate_and_update_state_at_end_of_format_string@?$format_validation_base@_WV?$stream_output_adapter@_W@__crt_stdio_output@@@__crt_stdio_output@@IEAA_NXZ 0000000180059440 f i libucrtd:output.obj
 0001:00058530       ?validate_and_update_state_at_end_of_format_string@?$format_validation_base@_WV?$string_output_adapter@_W@__crt_stdio_output@@@__crt_stdio_output@@IEAA_NXZ 0000000180059530 f i libucrtd:output.obj
 0001:00058620       ?validate_and_update_state_at_end_of_format_string@?$positional_parameter_base@DV?$stream_output_adapter@D@__crt_stdio_output@@@__crt_stdio_output@@IEAA_NXZ 0000000180059620 f i libucrtd:output.obj
 0001:00058850       ?validate_and_update_state_at_end_of_format_string@?$positional_parameter_base@DV?$string_output_adapter@D@__crt_stdio_output@@@__crt_stdio_output@@IEAA_NXZ 0000000180059850 f i libucrtd:output.obj
 0001:00058a80       ?validate_and_update_state_at_end_of_format_string@?$positional_parameter_base@_WV?$stream_output_adapter@_W@__crt_stdio_output@@@__crt_stdio_output@@IEAA_NXZ 0000000180059a80 f i libucrtd:output.obj
 0001:00058cb0       ?validate_and_update_state_at_end_of_format_string@?$positional_parameter_base@_WV?$string_output_adapter@_W@__crt_stdio_output@@@__crt_stdio_output@@IEAA_NXZ 0000000180059cb0 f i libucrtd:output.obj
 0001:00058ee0       ?validate_and_update_state_at_end_of_format_string@?$standard_base@DV?$stream_output_adapter@D@__crt_stdio_output@@@__crt_stdio_output@@IEBA_NXZ 0000000180059ee0 f i libucrtd:output.obj
 0001:00058ef0       ?validate_and_update_state_at_end_of_format_string@?$standard_base@DV?$string_output_adapter@D@__crt_stdio_output@@@__crt_stdio_output@@IEBA_NXZ 0000000180059ef0 f i libucrtd:output.obj
 0001:00058f00       ?validate_and_update_state_at_end_of_format_string@?$standard_base@_WV?$stream_output_adapter@_W@__crt_stdio_output@@@__crt_stdio_output@@IEBA_NXZ 0000000180059f00 f i libucrtd:output.obj
 0001:00058f10       ?validate_and_update_state_at_end_of_format_string@?$standard_base@_WV?$string_output_adapter@_W@__crt_stdio_output@@@__crt_stdio_output@@IEBA_NXZ 0000000180059f10 f i libucrtd:output.obj
 0001:00058f20       ?validate_state_for_type_case_a@?$positional_parameter_base@DV?$stream_output_adapter@D@__crt_stdio_output@@@__crt_stdio_output@@IEAA_NXZ 0000000180059f20 f i libucrtd:output.obj
 0001:00059080       ?validate_state_for_type_case_a@?$positional_parameter_base@DV?$string_output_adapter@D@__crt_stdio_output@@@__crt_stdio_output@@IEAA_NXZ 000000018005a080 f i libucrtd:output.obj
 0001:000591e0       ?validate_state_for_type_case_a@?$positional_parameter_base@_WV?$stream_output_adapter@_W@__crt_stdio_output@@@__crt_stdio_output@@IEAA_NXZ 000000018005a1e0 f i libucrtd:output.obj
 0001:00059340       ?validate_state_for_type_case_a@?$positional_parameter_base@_WV?$string_output_adapter@_W@__crt_stdio_output@@@__crt_stdio_output@@IEAA_NXZ 000000018005a340 f i libucrtd:output.obj
 0001:000594a0       ?validate_state_for_type_case_a@?$standard_base@DV?$stream_output_adapter@D@__crt_stdio_output@@@__crt_stdio_output@@IEBA_NXZ 000000018005a4a0 f i libucrtd:output.obj
 0001:000594b0       ?validate_state_for_type_case_a@?$standard_base@DV?$string_output_adapter@D@__crt_stdio_output@@@__crt_stdio_output@@IEBA_NXZ 000000018005a4b0 f i libucrtd:output.obj
 0001:000594c0       ?validate_state_for_type_case_a@?$standard_base@_WV?$stream_output_adapter@_W@__crt_stdio_output@@@__crt_stdio_output@@IEBA_NXZ 000000018005a4c0 f i libucrtd:output.obj
 0001:000594d0       ?validate_state_for_type_case_a@?$standard_base@_WV?$string_output_adapter@_W@__crt_stdio_output@@@__crt_stdio_output@@IEBA_NXZ 000000018005a4d0 f i libucrtd:output.obj
 0001:000594e0       ?validate_stream_is_ansi_if_required@?$__acrt_stdio_char_traits@D@@SA_NQEAU_iobuf@@@Z 000000018005a4e0 f i libucrtd:output.obj
 0001:00059670       ?validate_stream_is_ansi_if_required@?$__acrt_stdio_char_traits@_W@@SA_NQEAU_iobuf@@@Z 000000018005a670 f i libucrtd:output.obj
 0001:00059680       ?wide_character_to_digit@__crt_strtox@@YAH_W@Z 000000018005a680 f i libucrtd:output.obj
 0001:000599f0       ?wide_null_string@?$output_processor@DV?$stream_output_adapter@D@__crt_stdio_output@@V?$format_validation_base@DV?$stream_output_adapter@D@__crt_stdio_output@@@2@@__crt_stdio_output@@CAPEA_WXZ 000000018005a9f0 f i libucrtd:output.obj
 0001:00059a00       ?wide_null_string@?$output_processor@DV?$stream_output_adapter@D@__crt_stdio_output@@V?$positional_parameter_base@DV?$stream_output_adapter@D@__crt_stdio_output@@@2@@__crt_stdio_output@@CAPEA_WXZ 000000018005aa00 f i libucrtd:output.obj
 0001:00059a10       ?wide_null_string@?$output_processor@DV?$stream_output_adapter@D@__crt_stdio_output@@V?$standard_base@DV?$stream_output_adapter@D@__crt_stdio_output@@@2@@__crt_stdio_output@@CAPEA_WXZ 000000018005aa10 f i libucrtd:output.obj
 0001:00059a20       ?wide_null_string@?$output_processor@DV?$string_output_adapter@D@__crt_stdio_output@@V?$format_validation_base@DV?$string_output_adapter@D@__crt_stdio_output@@@2@@__crt_stdio_output@@CAPEA_WXZ 000000018005aa20 f i libucrtd:output.obj
 0001:00059a30       ?wide_null_string@?$output_processor@DV?$string_output_adapter@D@__crt_stdio_output@@V?$positional_parameter_base@DV?$string_output_adapter@D@__crt_stdio_output@@@2@@__crt_stdio_output@@CAPEA_WXZ 000000018005aa30 f i libucrtd:output.obj
 0001:00059a40       ?wide_null_string@?$output_processor@DV?$string_output_adapter@D@__crt_stdio_output@@V?$standard_base@DV?$string_output_adapter@D@__crt_stdio_output@@@2@@__crt_stdio_output@@CAPEA_WXZ 000000018005aa40 f i libucrtd:output.obj
 0001:00059a50       ?wide_null_string@?$output_processor@_WV?$stream_output_adapter@_W@__crt_stdio_output@@V?$format_validation_base@_WV?$stream_output_adapter@_W@__crt_stdio_output@@@2@@__crt_stdio_output@@CAPEA_WXZ 000000018005aa50 f i libucrtd:output.obj
 0001:00059a60       ?wide_null_string@?$output_processor@_WV?$stream_output_adapter@_W@__crt_stdio_output@@V?$positional_parameter_base@_WV?$stream_output_adapter@_W@__crt_stdio_output@@@2@@__crt_stdio_output@@CAPEA_WXZ 000000018005aa60 f i libucrtd:output.obj
 0001:00059a70       ?wide_null_string@?$output_processor@_WV?$stream_output_adapter@_W@__crt_stdio_output@@V?$standard_base@_WV?$stream_output_adapter@_W@__crt_stdio_output@@@2@@__crt_stdio_output@@CAPEA_WXZ 000000018005aa70 f i libucrtd:output.obj
 0001:00059a80       ?wide_null_string@?$output_processor@_WV?$string_output_adapter@_W@__crt_stdio_output@@V?$format_validation_base@_WV?$string_output_adapter@_W@__crt_stdio_output@@@2@@__crt_stdio_output@@CAPEA_WXZ 000000018005aa80 f i libucrtd:output.obj
 0001:00059a90       ?wide_null_string@?$output_processor@_WV?$string_output_adapter@_W@__crt_stdio_output@@V?$positional_parameter_base@_WV?$string_output_adapter@_W@__crt_stdio_output@@@2@@__crt_stdio_output@@CAPEA_WXZ 000000018005aa90 f i libucrtd:output.obj
 0001:00059aa0       ?wide_null_string@?$output_processor@_WV?$string_output_adapter@_W@__crt_stdio_output@@V?$standard_base@_WV?$string_output_adapter@_W@__crt_stdio_output@@@2@@__crt_stdio_output@@CAPEA_WXZ 000000018005aaa0 f i libucrtd:output.obj
 0001:00059ab0       ?write_character@?$output_adapter_common@DV?$stream_output_adapter@D@__crt_stdio_output@@@__crt_stdio_output@@QEBAXDQEAHAEAV__crt_cached_ptd_host@@@Z 000000018005aab0 f i libucrtd:output.obj
 0001:00059b10       ?write_character@?$output_adapter_common@_WV?$stream_output_adapter@_W@__crt_stdio_output@@@__crt_stdio_output@@QEBAX_WQEAHAEAV__crt_cached_ptd_host@@@Z 000000018005ab10 f i libucrtd:output.obj
 0001:00059b70       ?write_character@?$string_output_adapter@D@__crt_stdio_output@@QEBA_NDQEAHAEAV__crt_cached_ptd_host@@@Z 000000018005ab70 f i libucrtd:output.obj
 0001:00059c40       ?write_character@?$string_output_adapter@_W@__crt_stdio_output@@QEBA_N_WQEAHAEAV__crt_cached_ptd_host@@@Z 000000018005ac40 f i libucrtd:output.obj
 0001:00059d10       ?write_character_without_count_update@?$stream_output_adapter@D@__crt_stdio_output@@QEBA_NDAEAV__crt_cached_ptd_host@@@Z 000000018005ad10 f i libucrtd:output.obj
 0001:00059da0       ?write_character_without_count_update@?$stream_output_adapter@_W@__crt_stdio_output@@QEBA_N_WAEAV__crt_cached_ptd_host@@@Z 000000018005ada0 f i libucrtd:output.obj
 0001:00059e30       ?write_stored_string_tchar@?$output_processor@DV?$stream_output_adapter@D@__crt_stdio_output@@V?$format_validation_base@DV?$stream_output_adapter@D@__crt_stdio_output@@@2@@__crt_stdio_output@@AEAA_ND@Z 000000018005ae30 f i libucrtd:output.obj
 0001:00059fe0       ?write_stored_string_tchar@?$output_processor@DV?$stream_output_adapter@D@__crt_stdio_output@@V?$positional_parameter_base@DV?$stream_output_adapter@D@__crt_stdio_output@@@2@@__crt_stdio_output@@AEAA_ND@Z 000000018005afe0 f i libucrtd:output.obj
 0001:0005a190       ?write_stored_string_tchar@?$output_processor@DV?$stream_output_adapter@D@__crt_stdio_output@@V?$standard_base@DV?$stream_output_adapter@D@__crt_stdio_output@@@2@@__crt_stdio_output@@AEAA_ND@Z 000000018005b190 f i libucrtd:output.obj
 0001:0005a340       ?write_stored_string_tchar@?$output_processor@DV?$string_output_adapter@D@__crt_stdio_output@@V?$format_validation_base@DV?$string_output_adapter@D@__crt_stdio_output@@@2@@__crt_stdio_output@@AEAA_ND@Z 000000018005b340 f i libucrtd:output.obj
 0001:0005a4f0       ?write_stored_string_tchar@?$output_processor@DV?$string_output_adapter@D@__crt_stdio_output@@V?$positional_parameter_base@DV?$string_output_adapter@D@__crt_stdio_output@@@2@@__crt_stdio_output@@AEAA_ND@Z 000000018005b4f0 f i libucrtd:output.obj
 0001:0005a6a0       ?write_stored_string_tchar@?$output_processor@DV?$string_output_adapter@D@__crt_stdio_output@@V?$standard_base@DV?$string_output_adapter@D@__crt_stdio_output@@@2@@__crt_stdio_output@@AEAA_ND@Z 000000018005b6a0 f i libucrtd:output.obj
 0001:0005a850       ?write_stored_string_tchar@?$output_processor@_WV?$stream_output_adapter@_W@__crt_stdio_output@@V?$format_validation_base@_WV?$stream_output_adapter@_W@__crt_stdio_output@@@2@@__crt_stdio_output@@AEAA_N_W@Z 000000018005b850 f i libucrtd:output.obj
 0001:0005a9b0       ?write_stored_string_tchar@?$output_processor@_WV?$stream_output_adapter@_W@__crt_stdio_output@@V?$positional_parameter_base@_WV?$stream_output_adapter@_W@__crt_stdio_output@@@2@@__crt_stdio_output@@AEAA_N_W@Z 000000018005b9b0 f i libucrtd:output.obj
 0001:0005ab10       ?write_stored_string_tchar@?$output_processor@_WV?$stream_output_adapter@_W@__crt_stdio_output@@V?$standard_base@_WV?$stream_output_adapter@_W@__crt_stdio_output@@@2@@__crt_stdio_output@@AEAA_N_W@Z 000000018005bb10 f i libucrtd:output.obj
 0001:0005ac70       ?write_stored_string_tchar@?$output_processor@_WV?$string_output_adapter@_W@__crt_stdio_output@@V?$format_validation_base@_WV?$string_output_adapter@_W@__crt_stdio_output@@@2@@__crt_stdio_output@@AEAA_N_W@Z 000000018005bc70 f i libucrtd:output.obj
 0001:0005add0       ?write_stored_string_tchar@?$output_processor@_WV?$string_output_adapter@_W@__crt_stdio_output@@V?$positional_parameter_base@_WV?$string_output_adapter@_W@__crt_stdio_output@@@2@@__crt_stdio_output@@AEAA_N_W@Z 000000018005bdd0 f i libucrtd:output.obj
 0001:0005af30       ?write_stored_string_tchar@?$output_processor@_WV?$string_output_adapter@_W@__crt_stdio_output@@V?$standard_base@_WV?$string_output_adapter@_W@__crt_stdio_output@@@2@@__crt_stdio_output@@AEAA_N_W@Z 000000018005bf30 f i libucrtd:output.obj
 0001:0005b090       ?write_string@?$stream_output_adapter@D@__crt_stdio_output@@QEBAXQEBDHQEAHAEAV__crt_cached_ptd_host@@@Z 000000018005c090 f i libucrtd:output.obj
 0001:0005b110       ?write_string@?$stream_output_adapter@_W@__crt_stdio_output@@QEBAXQEB_WHQEAHAEAV__crt_cached_ptd_host@@@Z 000000018005c110 f i libucrtd:output.obj
 0001:0005b190       ?write_string@?$string_output_adapter@D@__crt_stdio_output@@QEBAXQEBDHQEAHAEAV__crt_cached_ptd_host@@@Z 000000018005c190 f i libucrtd:output.obj
 0001:0005b300       ?write_string@?$string_output_adapter@_W@__crt_stdio_output@@QEBAXQEB_WHQEAHAEAV__crt_cached_ptd_host@@@Z 000000018005c300 f i libucrtd:output.obj
 0001:0005b470       ?write_string_impl@?$output_adapter_common@DV?$stream_output_adapter@D@__crt_stdio_output@@@__crt_stdio_output@@IEBAXQEBDHQEAHAEAV__crt_cached_ptd_host@@@Z 000000018005c470 f i libucrtd:output.obj
 0001:0005b590       ?write_string_impl@?$output_adapter_common@_WV?$stream_output_adapter@_W@__crt_stdio_output@@@__crt_stdio_output@@IEBAXQEB_WHQEAHAEAV__crt_cached_ptd_host@@@Z 000000018005c590 f i libucrtd:output.obj
 0001:0005b6b0       __acrt_disable_global_locale_sync 000000018005c6b0 f i libucrtd:output.obj
 0001:0005b6e0       __acrt_enable_global_locale_sync 000000018005c6e0 f i libucrtd:output.obj
 0001:0005b710       __acrt_isleadbyte_l_noupdate 000000018005c710 f i libucrtd:output.obj
 0001:0005b740       __acrt_locale_changed      000000018005c740 f i libucrtd:output.obj
 0001:0005b770       __acrt_locale_get_ctype_array_value 000000018005c770 f i libucrtd:output.obj
 0001:0005b7b0       __ascii_iswalpha           000000018005c7b0 f i libucrtd:output.obj
 0001:0005b7f0       __ascii_toupper            000000018005c7f0 f i libucrtd:output.obj
 0001:0005b810       __ascii_towupper           000000018005c810 f i libucrtd:output.obj
 0001:0005b830       __stdio_common_vfprintf    000000018005c830 f   libucrtd:output.obj
 0001:0005b8b0       __stdio_common_vfprintf_p  000000018005c8b0 f   libucrtd:output.obj
 0001:0005b930       __stdio_common_vfprintf_s  000000018005c930 f   libucrtd:output.obj
 0001:0005b9b0       __stdio_common_vfwprintf   000000018005c9b0 f   libucrtd:output.obj
 0001:0005ba30       __stdio_common_vfwprintf_p 000000018005ca30 f   libucrtd:output.obj
 0001:0005bab0       __stdio_common_vfwprintf_s 000000018005cab0 f   libucrtd:output.obj
 0001:0005bb30       __stdio_common_vsnprintf_s 000000018005cb30 f   libucrtd:output.obj
 0001:0005bbc0       __stdio_common_vsnwprintf_s 000000018005cbc0 f   libucrtd:output.obj
 0001:0005bc50       __stdio_common_vsprintf    000000018005cc50 f   libucrtd:output.obj
 0001:0005bce0       __stdio_common_vsprintf_p  000000018005cce0 f   libucrtd:output.obj
 0001:0005bd70       __stdio_common_vsprintf_s  000000018005cd70 f   libucrtd:output.obj
 0001:0005be00       __stdio_common_vswprintf   000000018005ce00 f   libucrtd:output.obj
 0001:0005be90       __stdio_common_vswprintf_p 000000018005ce90 f   libucrtd:output.obj
 0001:0005bf20       __stdio_common_vswprintf_s 000000018005cf20 f   libucrtd:output.obj
 0001:0005bfb0       _ctype_fast_check_internal 000000018005cfb0 f i libucrtd:output.obj
 0001:0005bfe0       _isdigit_fast_internal     000000018005cfe0 f i libucrtd:output.obj
 0001:0005c010       _tolower_fast_internal     000000018005d010 f i libucrtd:output.obj
 0001:0005c040       _initterm                  000000018005d040 f   libucrtd:initterm.obj
 0001:0005c0b0       _initterm_e                000000018005d0b0 f   libucrtd:initterm.obj
 0001:0005c1a0       _seh_filter_dll            000000018005d1a0 f   libucrtd:exception_filter.obj
 0001:0005c1d0       _seh_filter_exe            000000018005d1d0 f   libucrtd:exception_filter.obj
 0001:0005c4a0       ??$?B$$A6AXPEAXK0@Z@__crt_fast_encoded_nullptr_t@@QEBAP6AXPEAXK0@ZXZ 000000018005d4a0 f i libucrtd:exit.obj
 0001:0005c560       ??$__crt_fast_decode_pointer@P6AXPEAXK0@Z@@YAP6AXPEAXK0@ZQ6AX0K0@Z@Z 000000018005d560 f i libucrtd:exit.obj
 0001:0005c5a0       ??$__crt_fast_encode_pointer@P6AXPEAXK0@Z@@YAP6AXPEAXK0@ZQ6AX0K0@Z@Z 000000018005d5a0 f i libucrtd:exit.obj
 0001:0005c5e0       ??$__crt_get_proc_address@P6AXI@Z@@YAP6AXI@ZQEAUHINSTANCE__@@QEBD@Z 000000018005d5e0 f i libucrtd:exit.obj
 0001:0005c6a0       ??0?$__crt_unique_handle_t@U__crt_hmodule_traits@@@@QEAA@QEAUHINSTANCE__@@@Z 000000018005d6a0 f i libucrtd:exit.obj
 0001:0005c6c0       ??1?$__crt_unique_handle_t@U__crt_hmodule_traits@@@@QEAA@XZ 000000018005d6c0 f i libucrtd:exit.obj
 0001:0005c840       ?__acrt_select_exit_lock@@YA?AW4__acrt_lock_id@@XZ 000000018005d840 f i libucrtd:exit.obj
 0001:0005c850       ?__crt_fast_encode_pointer@@YA?AU__crt_fast_encoded_nullptr_t@@$$T@Z 000000018005d850 f i libucrtd:exit.obj
 0001:0005c870       ?__crt_rotate_pointer_value@@YA_K_KH@Z 000000018005d870 f i libucrtd:exit.obj
 0001:0005c8b0       ?close@?$__crt_unique_handle_t@U__crt_hmodule_traits@@@@QEAAXXZ 000000018005d8b0 f i libucrtd:exit.obj
 0001:0005c8f0       ?close@__crt_hmodule_traits@@SA_NPEAUHINSTANCE__@@@Z 000000018005d8f0 f i libucrtd:exit.obj
 0001:0005ca10       ?get@?$__crt_unique_handle_t@U__crt_hmodule_traits@@@@QEBAPEAUHINSTANCE__@@XZ 000000018005da10 f i libucrtd:exit.obj
 0001:0005ca20       ?get_address_of@?$__crt_unique_handle_t@U__crt_hmodule_traits@@@@QEAAPEAPEAUHINSTANCE__@@XZ 000000018005da20 f i libucrtd:exit.obj
 0001:0005ca30       ?get_invalid_value@__crt_hmodule_traits@@SAPEAUHINSTANCE__@@XZ 000000018005da30 f i libucrtd:exit.obj
 0001:0005cc10       _Exit                      000000018005dc10 f   libucrtd:exit.obj
 0001:0005cc30       __acrt_initialize_thread_local_exit_callback 000000018005dc30 f   libucrtd:exit.obj
 0001:0005cc50       _c_exit                    000000018005dc50 f   libucrtd:exit.obj
 0001:0005cc70       _cexit                     000000018005dc70 f   libucrtd:exit.obj
 0001:0005cc90       _exit                      000000018005dc90 f   libucrtd:exit.obj
 0001:0005ccb0       _is_c_termination_complete 000000018005dcb0 f   libucrtd:exit.obj
 0001:0005ccd0       _register_thread_local_exe_atexit_callback 000000018005dcd0 f   libucrtd:exit.obj
 0001:0005cd20       exit                       000000018005dd20 f   libucrtd:exit.obj
 0001:0005cd40       quick_exit                 000000018005dd40 f   libucrtd:exit.obj
 0001:0005cd60       ??$?RE@__crt_internal_free_policy@@QEBAXQEBE@Z 000000018005dd60 f i libucrtd:argv_parsing.obj
 0001:0005cd90       ??$?RPEAD@__crt_internal_free_policy@@QEBAXQEBQEAD@Z 000000018005dd90 f i libucrtd:argv_parsing.obj
 0001:0005cdc0       ??$?RPEA_W@__crt_internal_free_policy@@QEBAXQEBQEA_W@Z 000000018005ddc0 f i libucrtd:argv_parsing.obj
 0001:0005d510       ??$get_module_file_name@$$TAEAY0BAF@DH@?$__crt_char_traits@D@@SAK$$QEA$$TAEAY0BAF@D$$QEAH@Z 000000018005e510 f i libucrtd:argv_parsing.obj
 0001:0005d550       ??$get_module_file_name@$$TAEAY0BAF@_WH@?$__crt_char_traits@_W@@SAK$$QEA$$TAEAY0BAF@_W$$QEAH@Z 000000018005e550 f i libucrtd:argv_parsing.obj
 0001:0005df50       ??$set_program_name@PEAD@?$__crt_char_traits@D@@SAX$$QEAPEAD@Z 000000018005ef50 f i libucrtd:argv_parsing.obj
 0001:0005df70       ??$set_program_name@PEA_W@?$__crt_char_traits@_W@@SAX$$QEAPEA_W@Z 000000018005ef70 f i libucrtd:argv_parsing.obj
 0001:0005dfd0       ??0?$__crt_unique_heap_ptr@EU__crt_internal_free_policy@@@@QEAA@QEAE@Z 000000018005efd0 f i libucrtd:argv_parsing.obj
 0001:0005dff0       ??0?$__crt_unique_heap_ptr@PEADU__crt_internal_free_policy@@@@QEAA@QEAPEAD@Z 000000018005eff0 f i libucrtd:argv_parsing.obj
 0001:0005e010       ??0?$__crt_unique_heap_ptr@PEA_WU__crt_internal_free_policy@@@@QEAA@QEAPEA_W@Z 000000018005f010 f i libucrtd:argv_parsing.obj
 0001:0005e030       ??1?$__crt_unique_heap_ptr@EU__crt_internal_free_policy@@@@QEAA@XZ 000000018005f030 f i libucrtd:argv_parsing.obj
 0001:0005e050       ??1?$__crt_unique_heap_ptr@PEADU__crt_internal_free_policy@@@@QEAA@XZ 000000018005f050 f i libucrtd:argv_parsing.obj
 0001:0005e070       ??1?$__crt_unique_heap_ptr@PEA_WU__crt_internal_free_policy@@@@QEAA@XZ 000000018005f070 f i libucrtd:argv_parsing.obj
 0001:0005e090       ??B?$__crt_unique_heap_ptr@EU__crt_internal_free_policy@@@@QEBA_NXZ 000000018005f090 f i libucrtd:argv_parsing.obj
 0001:0005e170       ?detach@?$__crt_unique_heap_ptr@EU__crt_internal_free_policy@@@@QEAAPEAEXZ 000000018005f170 f i libucrtd:argv_parsing.obj
 0001:0005e1a0       ?detach@?$__crt_unique_heap_ptr@PEADU__crt_internal_free_policy@@@@QEAAPEAPEADXZ 000000018005f1a0 f i libucrtd:argv_parsing.obj
 0001:0005e1d0       ?detach@?$__crt_unique_heap_ptr@PEA_WU__crt_internal_free_policy@@@@QEAAPEAPEA_WXZ 000000018005f1d0 f i libucrtd:argv_parsing.obj
 0001:0005e290       ?get@?$__crt_unique_heap_ptr@EU__crt_internal_free_policy@@@@QEBAPEAEXZ 000000018005f290 f i libucrtd:argv_parsing.obj
 0001:0005e2a0       ?get@?$__crt_unique_heap_ptr@PEADU__crt_internal_free_policy@@@@QEBAPEAPEADXZ 000000018005f2a0 f i libucrtd:argv_parsing.obj
 0001:0005e2b0       ?get@?$__crt_unique_heap_ptr@PEA_WU__crt_internal_free_policy@@@@QEBAPEAPEA_WXZ 000000018005f2b0 f i libucrtd:argv_parsing.obj
 0001:0005e2c0       ?get_address_of@?$__crt_unique_heap_ptr@PEADU__crt_internal_free_policy@@@@QEAAPEAPEAPEADXZ 000000018005f2c0 f i libucrtd:argv_parsing.obj
 0001:0005e2d0       ?get_address_of@?$__crt_unique_heap_ptr@PEA_WU__crt_internal_free_policy@@@@QEAAPEAPEAPEA_WXZ 000000018005f2d0 f i libucrtd:argv_parsing.obj
 0001:0005e320       ?is_valid@?$__crt_unique_heap_ptr@EU__crt_internal_free_policy@@@@QEBA_NXZ 000000018005f320 f i libucrtd:argv_parsing.obj
 0001:0005e350       ?release@?$__crt_unique_heap_ptr@EU__crt_internal_free_policy@@@@QEAAXXZ 000000018005f350 f i libucrtd:argv_parsing.obj
 0001:0005e380       ?release@?$__crt_unique_heap_ptr@PEADU__crt_internal_free_policy@@@@QEAAXXZ 000000018005f380 f i libucrtd:argv_parsing.obj
 0001:0005e3b0       ?release@?$__crt_unique_heap_ptr@PEA_WU__crt_internal_free_policy@@@@QEAAXXZ 000000018005f3b0 f i libucrtd:argv_parsing.obj
 0001:0005e430       __acrt_allocate_buffer_for_argv 000000018005f430 f   libucrtd:argv_parsing.obj
 0001:0005e550       _configure_narrow_argv     000000018005f550 f   libucrtd:argv_parsing.obj
 0001:0005e570       _configure_wide_argv       000000018005f570 f   libucrtd:argv_parsing.obj
 0001:0005e590       _set_pgmptr                000000018005f590 f i libucrtd:argv_parsing.obj
 0001:0005e5b0       _set_wpgmptr               000000018005f5b0 f i libucrtd:argv_parsing.obj
 0001:0005e5d0       ??$?R_W@__crt_internal_free_policy@@QEBAXQEB_W@Z 000000018005f5d0 f i libucrtd:environment_initialization.obj
 0001:0005ef90       ??$get_environment_from_os@$$V@?$__crt_char_traits@D@@SAPEADXZ 000000018005ff90 f i libucrtd:environment_initialization.obj
 0001:0005efa0       ??$get_environment_from_os@$$V@?$__crt_char_traits@_W@@SAPEA_WXZ 000000018005ffa0 f i libucrtd:environment_initialization.obj
 0001:0005f2b0       ??$set_variable_in_environment_nolock@PEADH@?$__crt_char_traits@D@@SAH$$QEAPEAD$$QEAH@Z 00000001800602b0 f i libucrtd:environment_initialization.obj
 0001:0005f2e0       ??$set_variable_in_environment_nolock@PEA_WH@?$__crt_char_traits@_W@@SAH$$QEAPEA_W$$QEAH@Z 00000001800602e0 f i libucrtd:environment_initialization.obj
 0001:0005f310       ??$tcscpy_s@PEADAEB_KAEAPEAD@?$__crt_char_traits@D@@SAH$$QEAPEADAEB_KAEAPEAD@Z 0000000180060310 f i libucrtd:environment_initialization.obj
 0001:0005f350       ??$tcscpy_s@PEA_WAEB_KAEAPEA_W@?$__crt_char_traits@_W@@SAH$$QEAPEA_WAEB_KAEAPEA_W@Z 0000000180060350 f i libucrtd:environment_initialization.obj
 0001:0005f390       ??$tcslen@AEAPEAD@?$__crt_char_traits@D@@SA_KAEAPEAD@Z 0000000180060390 f i libucrtd:environment_initialization.obj
 0001:0005f3b0       ??$tcslen@AEAPEA_W@?$__crt_char_traits@_W@@SA_KAEAPEA_W@Z 00000001800603b0 f i libucrtd:environment_initialization.obj
 0001:0005f3d0       ??$uninitialize@A6AXAEAPEAPEAD@_E@?$dual_state_global@PEAPEAD@__crt_state_management@@QEAAXA6AXAEAPEAPEAD@_E@Z 00000001800603d0 f i libucrtd:environment_initialization.obj
 0001:0005f450       ??$uninitialize@A6AXAEAPEAPEA_W@_E@?$dual_state_global@PEAPEA_W@__crt_state_management@@QEAAXA6AXAEAPEAPEA_W@_E@Z 0000000180060450 f i libucrtd:environment_initialization.obj
 0001:0005f550       ??0?$__crt_unique_heap_ptr@_WU__crt_internal_free_policy@@@@QEAA@QEA_W@Z 0000000180060550 f i libucrtd:environment_initialization.obj
 0001:0005f570       ??1?$__crt_unique_heap_ptr@_WU__crt_internal_free_policy@@@@QEAA@XZ 0000000180060570 f i libucrtd:environment_initialization.obj
 0001:0005f590       ??B?$__crt_unique_heap_ptr@PEADU__crt_internal_free_policy@@@@QEBA_NXZ 0000000180060590 f i libucrtd:environment_initialization.obj
 0001:0005f5b0       ??B?$__crt_unique_heap_ptr@PEA_WU__crt_internal_free_policy@@@@QEBA_NXZ 00000001800605b0 f i libucrtd:environment_initialization.obj
 0001:0005f5d0       ??B?$__crt_unique_heap_ptr@_WU__crt_internal_free_policy@@@@QEBA_NXZ 00000001800605d0 f i libucrtd:environment_initialization.obj
 0001:0005f5f0       ?__crt_compute_required_transform_buffer_count@@YA_KIQEBD@Z 00000001800605f0 f i libucrtd:environment_initialization.obj
 0001:0005f630       ?__crt_compute_required_transform_buffer_count@@YA_KIQEB_W@Z 0000000180060630 f i libucrtd:environment_initialization.obj
 0001:0005f680       ?__crt_transform_string@@YA_KIQEBDQEA_W_K@Z 0000000180060680 f i libucrtd:environment_initialization.obj
 0001:0005f6d0       ?__crt_transform_string@@YA_KIQEB_WQEAD_K@Z 00000001800606d0 f i libucrtd:environment_initialization.obj
 0001:0005f730       ?detach@?$__crt_unique_heap_ptr@DU__crt_internal_free_policy@@@@QEAAPEADXZ 0000000180060730 f i libucrtd:environment_initialization.obj
 0001:0005f760       ?detach@?$__crt_unique_heap_ptr@_WU__crt_internal_free_policy@@@@QEAAPEA_WXZ 0000000180060760 f i libucrtd:environment_initialization.obj
 0001:0005f790       ?get@?$__crt_unique_heap_ptr@_WU__crt_internal_free_policy@@@@QEBAPEA_WXZ 0000000180060790 f i libucrtd:environment_initialization.obj
 0001:0005f7a0       ?get_current_state_index@__crt_state_management@@YA_KXZ 00000001800607a0 f i libucrtd:environment_initialization.obj
 0001:0005f830       ?initialize@?$dual_state_global@PEAPEAD@__crt_state_management@@QEAAXQEAPEAD@Z 0000000180060830 f i libucrtd:environment_initialization.obj
 0001:0005f880       ?initialize@?$dual_state_global@PEAPEA_W@__crt_state_management@@QEAAXQEAPEA_W@Z 0000000180060880 f i libucrtd:environment_initialization.obj
 0001:0005f8d0       ?is_valid@?$__crt_unique_heap_ptr@PEADU__crt_internal_free_policy@@@@QEBA_NXZ 00000001800608d0 f i libucrtd:environment_initialization.obj
 0001:0005f900       ?is_valid@?$__crt_unique_heap_ptr@PEA_WU__crt_internal_free_policy@@@@QEBA_NXZ 0000000180060900 f i libucrtd:environment_initialization.obj
 0001:0005f930       ?is_valid@?$__crt_unique_heap_ptr@_WU__crt_internal_free_policy@@@@QEBA_NXZ 0000000180060930 f i libucrtd:environment_initialization.obj
 0001:0005f990       ?release@?$__crt_unique_heap_ptr@_WU__crt_internal_free_policy@@@@QEAAXXZ 0000000180060990 f i libucrtd:environment_initialization.obj
 0001:0005f9c0       ?value@?$dual_state_global@PEAPEAD@__crt_state_management@@QEAAAEAPEAPEADXZ 00000001800609c0 f i libucrtd:environment_initialization.obj
 0001:0005f9e0       ?value@?$dual_state_global@PEAPEA_W@__crt_state_management@@QEAAAEAPEAPEA_WXZ 00000001800609e0 f i libucrtd:environment_initialization.obj
 0001:0005fa00       __dcrt_get_or_create_narrow_environment_nolock 0000000180060a00 f   libucrtd:environment_initialization.obj
 0001:0005fa10       __dcrt_get_or_create_wide_environment_nolock 0000000180060a10 f   libucrtd:environment_initialization.obj
 0001:0005fa20       __dcrt_uninitialize_environments_nolock 0000000180060a20 f   libucrtd:environment_initialization.obj
 0001:0005fa70       __p__environ               0000000180060a70 f   libucrtd:environment_initialization.obj
 0001:0005fa90       __p__wenviron              0000000180060a90 f   libucrtd:environment_initialization.obj
 0001:0005fab0       _get_initial_narrow_environment 0000000180060ab0 f   libucrtd:environment_initialization.obj
 0001:0005fac0       _get_initial_wide_environment 0000000180060ac0 f   libucrtd:environment_initialization.obj
 0001:0005fad0       _initialize_narrow_environment 0000000180060ad0 f   libucrtd:environment_initialization.obj
 0001:0005fae0       _initialize_wide_environment 0000000180060ae0 f   libucrtd:environment_initialization.obj
 0001:0005faf0       _invoke_watson_if_error    0000000180060af0 f i libucrtd:environment_initialization.obj
 0001:0005fb40       ??$?B$$A6AXXZ@__crt_fast_encoded_nullptr_t@@QEBAP6AXXZXZ 0000000180060b40 f i libucrtd:onexit.obj
 0001:0005fb60       ??$?BP6AXXZ@__crt_fast_encoded_nullptr_t@@QEBAPEAP6AXXZXZ 0000000180060b60 f i libucrtd:onexit.obj
 0001:0005fb80       ??$?RP6AXXZ@__crt_internal_free_policy@@QEBAXQEBQ6AXXZ@Z 0000000180060b80 f i libucrtd:onexit.obj
 0001:0005fd10       ??$__crt_fast_decode_pointer@P6AXXZ@@YAP6AXXZQ6AXXZ@Z 0000000180060d10 f i libucrtd:onexit.obj
 0001:0005fd50       ??$__crt_fast_decode_pointer@PEAP6AXXZ@@YAPEAP6AXXZQEAP6AXXZ@Z 0000000180060d50 f i libucrtd:onexit.obj
 0001:0005fd90       ??$__crt_fast_encode_pointer@P6AHXZ@@YAP6AHXZQ6AHXZ@Z 0000000180060d90 f i libucrtd:onexit.obj
 0001:0005fdd0       ??$__crt_fast_encode_pointer@P6AXXZ@@YAP6AXXZQ6AXXZ@Z 0000000180060dd0 f i libucrtd:onexit.obj
 0001:0005fe10       ??$__crt_fast_encode_pointer@PEAP6AXXZ@@YAPEAP6AXXZQEAP6AXXZ@Z 0000000180060e10 f i libucrtd:onexit.obj
 0001:0005ff20       ??0?$__crt_unique_heap_ptr@P6AXXZU__crt_internal_free_policy@@@@QEAA@QEAP6AXXZ@Z 0000000180060f20 f i libucrtd:onexit.obj
 0001:0005ff40       ??1?$__crt_unique_heap_ptr@P6AXXZU__crt_internal_free_policy@@@@QEAA@XZ 0000000180060f40 f i libucrtd:onexit.obj
 0001:0005ff60       ??1scoped_global_state_reset@__crt_state_management@@QEAA@XZ 0000000180060f60 f i libucrtd:onexit.obj
 0001:00060560       ?detach@?$__crt_unique_heap_ptr@P6AXXZU__crt_internal_free_policy@@@@QEAAPEAP6AXXZXZ 0000000180061560 f i libucrtd:onexit.obj
 0001:00060590       ?release@?$__crt_unique_heap_ptr@P6AXXZU__crt_internal_free_policy@@@@QEAAXXZ 0000000180061590 f i libucrtd:onexit.obj
 0001:000605c0       _crt_at_quick_exit         00000001800615c0 f   libucrtd:onexit.obj
 0001:000605e0       _crt_atexit                00000001800615e0 f   libucrtd:onexit.obj
 0001:00060600       _execute_onexit_table      0000000180061600 f   libucrtd:onexit.obj
 0001:00060640       _initialize_onexit_table   0000000180061640 f   libucrtd:onexit.obj
 0001:000606c0       _register_onexit_function  00000001800616c0 f   libucrtd:onexit.obj
 0001:00060940       ??$?BX@__crt_fast_encoded_nullptr_t@@QEBAPEAXXZ 0000000180061940 f i libucrtd:initialization.obj
 0001:00060960       ??$__crt_fast_encode_pointer@PEAX@@YAPEAXQEAX@Z 0000000180061960 f i libucrtd:initialization.obj
 0001:00060a60       ?initialize@?$dual_state_global@PEAU__crt_locale_data@@@__crt_state_management@@QEAAXQEAU__crt_locale_data@@@Z 0000000180061a60 f i libucrtd:initialization.obj
 0001:00060ab0       __acrt_initialize          0000000180061ab0 f   libucrtd:initialization.obj
 0001:00060ae0       __acrt_thread_attach       0000000180061ae0 f   libucrtd:initialization.obj
 0001:00060b00       __acrt_thread_detach       0000000180061b00 f   libucrtd:initialization.obj
 0001:00060b10       __acrt_uninitialize        0000000180061b10 f   libucrtd:initialization.obj
 0001:00060b40       __acrt_uninitialize_critical 0000000180061b40 f   libucrtd:initialization.obj
 0001:00060ba0       _get_terminate             0000000180061ba0 f   libucrtd:terminate.obj
 0001:00060bc0       set_terminate              0000000180061bc0 f   libucrtd:terminate.obj
 0001:00060c00       terminate                  0000000180061c00 f   libucrtd:terminate.obj
 0001:00060c50       ??0_LocaleUpdate@@QEAA@QEAU__crt_locale_pointers@@@Z 0000000180061c50 f i libucrtd:debug_heap.obj
 0001:00060d70       ??1_LocaleUpdate@@QEAA@XZ  0000000180061d70 f i libucrtd:debug_heap.obj
 0001:00060da0       ?GetLocaleT@_LocaleUpdate@@QEAAPEAU__crt_locale_pointers@@XZ 0000000180061da0 f i libucrtd:debug_heap.obj
 0001:00063150       _CrtCheckMemory            0000000180064150 f   libucrtd:debug_heap.obj
 0001:000632e0       _CrtDoForAllClientObjects  00000001800642e0 f   libucrtd:debug_heap.obj
 0001:00063430       _CrtDumpMemoryLeaks        0000000180064430 f   libucrtd:debug_heap.obj
 0001:000634f0       _CrtGetAllocHook           00000001800644f0 f   libucrtd:debug_heap.obj
 0001:00063500       _CrtGetDumpClient          0000000180064500 f   libucrtd:debug_heap.obj
 0001:00063510       _CrtIsMemoryBlock          0000000180064510 f   libucrtd:debug_heap.obj
 0001:00063650       _CrtIsValidHeapPointer     0000000180064650 f   libucrtd:debug_heap.obj
 0001:000636a0       _CrtIsValidPointer         00000001800646a0 f   libucrtd:debug_heap.obj
 0001:000636e0       _CrtMemCheckpoint          00000001800646e0 f   libucrtd:debug_heap.obj
 0001:00063960       _CrtMemDifference          0000000180064960 f   libucrtd:debug_heap.obj
 0001:00063cc0       _CrtMemDumpAllObjectsSince 0000000180064cc0 f   libucrtd:debug_heap.obj
 0001:00063d20       _CrtMemDumpStatistics      0000000180064d20 f   libucrtd:debug_heap.obj
 0001:00063ec0       _CrtReportBlockType        0000000180064ec0 f   libucrtd:debug_heap.obj
 0001:00063ef0       _CrtSetAllocHook           0000000180064ef0 f   libucrtd:debug_heap.obj
 0001:00063f20       _CrtSetBreakAlloc          0000000180064f20 f   libucrtd:debug_heap.obj
 0001:00063f50       _CrtSetDbgBlockType        0000000180064f50 f   libucrtd:debug_heap.obj
 0001:00063ff0       _CrtSetDbgFlag             0000000180064ff0 f   libucrtd:debug_heap.obj
 0001:00064150       _CrtSetDumpClient          0000000180065150 f   libucrtd:debug_heap.obj
 0001:00064180       __acrt_get_locale_data_prefix 0000000180065180 f i libucrtd:debug_heap.obj
 0001:000641a0       __p__crtBreakAlloc         00000001800651a0 f   libucrtd:debug_heap.obj
 0001:000641b0       __p__crtDbgFlag            00000001800651b0 f   libucrtd:debug_heap.obj
 0001:000641c0       _aligned_free_dbg          00000001800651c0 f   libucrtd:debug_heap.obj
 0001:000642b0       _aligned_malloc_dbg        00000001800652b0 f   libucrtd:debug_heap.obj
 0001:000642f0       _aligned_msize_dbg         00000001800652f0 f   libucrtd:debug_heap.obj
 0001:000644c0       _aligned_offset_malloc_dbg 00000001800654c0 f   libucrtd:debug_heap.obj
 0001:000647b0       _aligned_offset_realloc_dbg 00000001800657b0 f   libucrtd:debug_heap.obj
 0001:00064c60       _aligned_offset_recalloc_dbg 0000000180065c60 f   libucrtd:debug_heap.obj
 0001:00064d80       _aligned_realloc_dbg       0000000180065d80 f   libucrtd:debug_heap.obj
 0001:00064dd0       _aligned_recalloc_dbg      0000000180065dd0 f   libucrtd:debug_heap.obj
 0001:00064e30       _calloc_dbg                0000000180065e30 f   libucrtd:debug_heap.obj
 0001:00064ed0       _chvalidchk_l              0000000180065ed0 f i libucrtd:debug_heap.obj
 0001:00064f00       _expand_dbg                0000000180065f00 f   libucrtd:debug_heap.obj
 0001:00065030       _free_dbg                  0000000180066030 f   libucrtd:debug_heap.obj
 0001:000650a0       _invoke_watson_if_oneof    00000001800660a0 f i libucrtd:debug_heap.obj
 0001:00065100       _ischartype_l              0000000180066100 f i libucrtd:debug_heap.obj
 0001:00065190       _malloc_dbg                0000000180066190 f   libucrtd:debug_heap.obj
 0001:000651d0       _msize_dbg                 00000001800661d0 f   libucrtd:debug_heap.obj
 0001:00065370       _realloc_dbg               0000000180066370 f   libucrtd:debug_heap.obj
 0001:000653e0       _recalloc_dbg              00000001800663e0 f   libucrtd:debug_heap.obj
 0001:000659c0       strcpy_s                   00000001800669c0 f   libucrtd:strcpy_s.obj
 0001:00065a00       strcmp                     0000000180066a00 f   libucrtd:strcmp.obj
 0001:00065a80       strlen                     0000000180066a80 f   libucrtd:strlen.obj
 0001:00065b30       _set_abort_behavior        0000000180066b30 f   libucrtd:abort.obj
 0001:00065b70       abort                      0000000180066b70 f   libucrtd:abort.obj
 0001:00065bf0       ??$is_overflow_condition@_K@__crt_strtox@@YA_NI_K@Z 0000000180066bf0 f i libucrtd:atox.obj
 0001:00065c60       ??$make_c_string_character_source@D$$T@__crt_strtox@@YA?AV?$c_string_character_source@D@0@QEBD$$T@Z 0000000180066c60 f i libucrtd:atox.obj
 0001:00065ca0       ??$make_c_string_character_source@_W$$T@__crt_strtox@@YA?AV?$c_string_character_source@_W@0@QEB_W$$T@Z 0000000180066ca0 f i libucrtd:atox.obj
 0001:00065ce0       ??$parse_integer@KV?$c_string_character_source@D@__crt_strtox@@$00@__crt_strtox@@YAKAEAV__crt_cached_ptd_host@@V?$c_string_character_source@D@0@H_N@Z 0000000180066ce0 f i libucrtd:atox.obj
 0001:000661a0       ??$parse_integer@KV?$c_string_character_source@_W@__crt_strtox@@$00@__crt_strtox@@YAKAEAV__crt_cached_ptd_host@@V?$c_string_character_source@_W@0@H_N@Z 00000001800671a0 f i libucrtd:atox.obj
 0001:00066670       ??$parse_integer@_KV?$c_string_character_source@D@__crt_strtox@@$00@__crt_strtox@@YA_KAEAV__crt_cached_ptd_host@@V?$c_string_character_source@D@0@H_N@Z 0000000180067670 f i libucrtd:atox.obj
 0001:00066b80       ??$parse_integer@_KV?$c_string_character_source@_W@__crt_strtox@@$00@__crt_strtox@@YA_KAEAV__crt_cached_ptd_host@@V?$c_string_character_source@_W@0@H_N@Z 0000000180067b80 f i libucrtd:atox.obj
 0001:000670a0       ??$parse_integer_from_string@JD$$T@__crt_strtox@@YAJQEBD$$THQEAU__crt_locale_pointers@@@Z 00000001800680a0 f i libucrtd:atox.obj
 0001:00067130       ??$parse_integer_from_string@J_W$$T@__crt_strtox@@YAJQEB_W$$THQEAU__crt_locale_pointers@@@Z 0000000180068130 f i libucrtd:atox.obj
 0001:000671c0       ??$parse_integer_from_string@_JD$$T@__crt_strtox@@YA_JQEBD$$THQEAU__crt_locale_pointers@@@Z 00000001800681c0 f i libucrtd:atox.obj
 0001:00067250       ??$parse_integer_from_string@_J_W$$T@__crt_strtox@@YA_JQEB_W$$THQEAU__crt_locale_pointers@@@Z 0000000180068250 f i libucrtd:atox.obj
 0001:000672e0       ?is_space@__crt_strtox@@YA_NDQEAU__crt_locale_pointers@@@Z 00000001800682e0 f i libucrtd:atox.obj
 0001:00067330       ?is_space@__crt_strtox@@YA_N_WPEAU__crt_locale_pointers@@@Z 0000000180068330 f i libucrtd:atox.obj
 0001:00067370       ?maximum_signed_value@__crt_strtox@@YA_J_K@Z 0000000180068370 f i libucrtd:atox.obj
 0001:00067380       ?minimum_signed_value@__crt_strtox@@YA_J_K@Z 0000000180068380 f i libucrtd:atox.obj
 0001:00067390       _atoi64                    0000000180068390 f   libucrtd:atox.obj
 0001:000673c0       _atoi64_l                  00000001800683c0 f   libucrtd:atox.obj
 0001:000673f0       _atoi_l                    00000001800683f0 f   libucrtd:atox.obj
 0001:00067420       _atol_l                    0000000180068420 f   libucrtd:atox.obj
 0001:00067450       _atoll_l                   0000000180068450 f   libucrtd:atox.obj
 0001:00067480       _wtoi                      0000000180068480 f   libucrtd:atox.obj
 0001:000674b0       _wtoi64                    00000001800684b0 f   libucrtd:atox.obj
 0001:000674e0       _wtoi64_l                  00000001800684e0 f   libucrtd:atox.obj
 0001:00067510       _wtoi_l                    0000000180068510 f   libucrtd:atox.obj
 0001:00067540       _wtol                      0000000180068540 f   libucrtd:atox.obj
 0001:00067570       _wtol_l                    0000000180068570 f   libucrtd:atox.obj
 0001:000675a0       _wtoll                     00000001800685a0 f   libucrtd:atox.obj
 0001:000675d0       _wtoll_l                   00000001800685d0 f   libucrtd:atox.obj
 0001:00067600       atoi                       0000000180068600 f   libucrtd:atox.obj
 0001:00067630       atol                       0000000180068630 f   libucrtd:atox.obj
 0001:00067660       atoll                      0000000180068660 f   libucrtd:atox.obj
 0001:000676a0       strncmp                    00000001800686a0 f   libucrtd:strncmp.obj
 0001:00067720       ??$?RU?$__crt_report_hook_node@D@@@__crt_internal_free_policy@@QEBAXQEBU?$__crt_report_hook_node@D@@@Z 0000000180068720 f i libucrtd:dbgrpt.obj
 0001:00067750       ??$?RU?$__crt_report_hook_node@_W@@@__crt_internal_free_policy@@QEBAXQEBU?$__crt_report_hook_node@_W@@@Z 0000000180068750 f i libucrtd:dbgrpt.obj
 0001:000689b0       ??$get_module_file_name@AEAPEAUHINSTANCE__@@AEAY0BAF@DK@?$__crt_char_traits@D@@SAKAEAPEAUHINSTANCE__@@AEAY0BAF@D$$QEAK@Z 00000001800699b0 f i libucrtd:dbgrpt.obj
 0001:000689f0       ??$get_module_file_name@AEAPEAUHINSTANCE__@@AEAY0BAF@_WK@?$__crt_char_traits@_W@@SAKAEAPEAUHINSTANCE__@@AEAY0BAF@_W$$QEAK@Z 00000001800699f0 f i libucrtd:dbgrpt.obj
 0001:00068a30       ??$tcscpy_s@AEAY0BAF@D_KPEBD@?$__crt_char_traits@D@@SAHAEAY0BAF@D$$QEA_K$$QEAPEBD@Z 0000000180069a30 f i libucrtd:dbgrpt.obj
 0001:00068a70       ??$tcscpy_s@AEAY0BAF@_W_KPEB_W@?$__crt_char_traits@_W@@SAHAEAY0BAF@_W$$QEA_K$$QEAPEB_W@Z 0000000180069a70 f i libucrtd:dbgrpt.obj
 0001:00068ab0       ??$tcslen@AEAY0BAF@D@?$__crt_char_traits@D@@SA_KAEAY0BAF@D@Z 0000000180069ab0 f i libucrtd:dbgrpt.obj
 0001:00068ad0       ??$tcslen@AEAY0BAF@_W@?$__crt_char_traits@_W@@SA_KAEAY0BAF@_W@Z 0000000180069ad0 f i libucrtd:dbgrpt.obj
 0001:00068af0       ??$tcslen@AEBQEBD@?$__crt_char_traits@D@@SA_KAEBQEBD@Z 0000000180069af0 f i libucrtd:dbgrpt.obj
 0001:00068b10       ??$tcslen@AEBQEB_W@?$__crt_char_traits@_W@@SA_KAEBQEB_W@Z 0000000180069b10 f i libucrtd:dbgrpt.obj
 0001:00068c10       ??0?$__crt_unique_heap_ptr@U?$__crt_report_hook_node@D@@U__crt_internal_free_policy@@@@QEAA@QEAU?$__crt_report_hook_node@D@@@Z 0000000180069c10 f i libucrtd:dbgrpt.obj
 0001:00068c30       ??0?$__crt_unique_heap_ptr@U?$__crt_report_hook_node@_W@@U__crt_internal_free_policy@@@@QEAA@QEAU?$__crt_report_hook_node@_W@@@Z 0000000180069c30 f i libucrtd:dbgrpt.obj
 0001:00068c50       ??1?$__crt_unique_heap_ptr@U?$__crt_report_hook_node@D@@U__crt_internal_free_policy@@@@QEAA@XZ 0000000180069c50 f i libucrtd:dbgrpt.obj
 0001:00068c70       ??1?$__crt_unique_heap_ptr@U?$__crt_report_hook_node@_W@@U__crt_internal_free_policy@@@@QEAA@XZ 0000000180069c70 f i libucrtd:dbgrpt.obj
 0001:00068c90       ??B?$__crt_unique_heap_ptr@U?$__crt_report_hook_node@D@@U__crt_internal_free_policy@@@@QEBA_NXZ 0000000180069c90 f i libucrtd:dbgrpt.obj
 0001:00068cb0       ??B?$__crt_unique_heap_ptr@U?$__crt_report_hook_node@_W@@U__crt_internal_free_policy@@@@QEBA_NXZ 0000000180069cb0 f i libucrtd:dbgrpt.obj
 0001:000693d0       ?detach@?$__crt_unique_heap_ptr@U?$__crt_report_hook_node@D@@U__crt_internal_free_policy@@@@QEAAPEAU?$__crt_report_hook_node@D@@XZ 000000018006a3d0 f i libucrtd:dbgrpt.obj
 0001:00069400       ?detach@?$__crt_unique_heap_ptr@U?$__crt_report_hook_node@_W@@U__crt_internal_free_policy@@@@QEAAPEAU?$__crt_report_hook_node@_W@@XZ 000000018006a400 f i libucrtd:dbgrpt.obj
 0001:00069430       ?get@?$__crt_unique_heap_ptr@U?$__crt_report_hook_node@D@@U__crt_internal_free_policy@@@@QEBAPEAU?$__crt_report_hook_node@D@@XZ 000000018006a430 f i libucrtd:dbgrpt.obj
 0001:00069440       ?get@?$__crt_unique_heap_ptr@U?$__crt_report_hook_node@_W@@U__crt_internal_free_policy@@@@QEBAPEAU?$__crt_report_hook_node@_W@@XZ 000000018006a440 f i libucrtd:dbgrpt.obj
 0001:000694b0       ?is_valid@?$__crt_unique_heap_ptr@U?$__crt_report_hook_node@D@@U__crt_internal_free_policy@@@@QEBA_NXZ 000000018006a4b0 f i libucrtd:dbgrpt.obj
 0001:000694e0       ?is_valid@?$__crt_unique_heap_ptr@U?$__crt_report_hook_node@_W@@U__crt_internal_free_policy@@@@QEBA_NXZ 000000018006a4e0 f i libucrtd:dbgrpt.obj
 0001:00069510       ?release@?$__crt_unique_heap_ptr@U?$__crt_report_hook_node@D@@U__crt_internal_free_policy@@@@QEAAXXZ 000000018006a510 f i libucrtd:dbgrpt.obj
 0001:00069540       ?release@?$__crt_unique_heap_ptr@U?$__crt_report_hook_node@_W@@U__crt_internal_free_policy@@@@QEAAXXZ 000000018006a540 f i libucrtd:dbgrpt.obj
 0001:00069570       _CrtDbgReport              000000018006a570 f   libucrtd:dbgrpt.obj
 0001:000695f0       _CrtDbgReportW             000000018006a5f0 f   libucrtd:dbgrpt.obj
 0001:00069670       _CrtSetReportHook2         000000018006a670 f   libucrtd:dbgrpt.obj
 0001:00069690       _CrtSetReportHookW2        000000018006a690 f   libucrtd:dbgrpt.obj
 0001:000696b0       __acrt_MessageWindowA      000000018006a6b0 f   libucrtd:dbgrpt.obj
 0001:00069700       __acrt_MessageWindowW      000000018006a700 f   libucrtd:dbgrpt.obj
 0001:00069750       _snwprintf_s               000000018006a750 f i libucrtd:dbgrpt.obj
 0001:000697c0       _vsnwprintf_s_l            000000018006a7c0 f i libucrtd:dbgrpt.obj
 0001:00069840       wcsncmp                    000000018006a840 f   libucrtd:wcsncmp.obj
 0001:000698d0       free                       000000018006a8d0 f   libucrtd:free.obj
 0001:00069900       malloc                     000000018006a900 f   libucrtd:malloc.obj
 0001:00069930       ??$__crt_fast_decode_pointer@P6AXPEB_W00I_K@Z@@YAP6AXPEB_W00I_K@ZQ6AX000I1@Z@Z 000000018006a930 f i libucrtd:invalid_parameter.obj
 0001:00069970       ??$__crt_fast_encode_pointer@P6AXPEB_W00I_K@Z@@YAP6AXPEB_W00I_K@ZQ6AX000I1@Z@Z 000000018006a970 f i libucrtd:invalid_parameter.obj
 0001:000699b0       ??$initialize_from_array@$$BY00Q6AXPEB_W00I_K@Z@?$dual_state_global@P6AXPEB_W00I_K@Z@__crt_state_management@@QEAAXAEAY00Q6AXPEB_W00I_K@Z@Z 000000018006a9b0 f i libucrtd:invalid_parameter.obj
 0001:00069ab0       ?check_synchronize_global_state_index@__crt_cached_ptd_host@@AEAA_KXZ 000000018006aab0 f i libucrtd:invalid_parameter.obj
 0001:00069b10       ?dangerous_get_state_array@?$dual_state_global@P6AXPEB_W00I_K@Z@__crt_state_management@@QEAAPEAP6AXPEB_W00I_K@ZXZ 000000018006ab10 f i libucrtd:invalid_parameter.obj
 0001:00069b20       ?get_current_global_state_index@__crt_cached_ptd_host@@QEAA_KXZ 000000018006ab20 f i libucrtd:invalid_parameter.obj
 0001:00069b40       ?get_raw_ptd_noexit@__crt_cached_ptd_host@@QEAAPEAU__acrt_ptd@@XZ 000000018006ab40 f i libucrtd:invalid_parameter.obj
 0001:00069b60       ?try_synchronize_per_thread_data@__crt_cached_ptd_host@@AEAAPEAU__acrt_ptd@@XZ 000000018006ab60 f i libucrtd:invalid_parameter.obj
 0001:00069b90       ?value@?$dual_state_global@P6AXPEB_W00I_K@Z@__crt_state_management@@QEAAAEAP6AXPEB_W00I_K@ZAEAV__crt_cached_ptd_host@@@Z 000000018006ab90 f i libucrtd:invalid_parameter.obj
 0001:00069bc0       ?value@?$dual_state_global@P6AXPEB_W00I_K@Z@__crt_state_management@@QEAAAEAP6AXPEB_W00I_K@ZXZ 000000018006abc0 f i libucrtd:invalid_parameter.obj
 0001:00069be0       __acrt_call_reportfault    000000018006abe0 f   libucrtd:invalid_parameter.obj
 0001:00069d10       __acrt_initialize_invalid_parameter_handler 000000018006ad10 f   libucrtd:invalid_parameter.obj
 0001:00069d40       _get_invalid_parameter_handler 000000018006ad40 f   libucrtd:invalid_parameter.obj
 0001:00069d60       _get_thread_local_invalid_parameter_handler 000000018006ad60 f   libucrtd:invalid_parameter.obj
 0001:00069d90       _invalid_parameter         000000018006ad90 f   libucrtd:invalid_parameter.obj
 0001:00069e00       _invalid_parameter_internal 000000018006ae00 f   libucrtd:invalid_parameter.obj
 0001:00069f50       _invalid_parameter_noinfo  000000018006af50 f   libucrtd:invalid_parameter.obj
 0001:00069f80       _invalid_parameter_noinfo_noreturn 000000018006af80 f   libucrtd:invalid_parameter.obj
 0001:00069fc0       _invoke_watson             000000018006afc0 f   libucrtd:invalid_parameter.obj
 0001:0006a020       _set_invalid_parameter_handler 000000018006b020 f   libucrtd:invalid_parameter.obj
 0001:0006a070       _set_thread_local_invalid_parameter_handler 000000018006b070 f   libucrtd:invalid_parameter.obj
 0001:0006a0b0       ?get_doserrno@__crt_cached_ptd_host@@QEAAAEAU?$cached@K@1@XZ 000000018006b0b0 f i libucrtd:errno.obj
 0001:0006a0c0       ?set@?$cached@K@__crt_cached_ptd_host@@QEAAKK@Z 000000018006b0c0 f i libucrtd:errno.obj
 0001:0006a0f0       __acrt_errno_from_os_error 000000018006b0f0 f   libucrtd:errno.obj
 0001:0006a180       __acrt_errno_map_os_error  000000018006b180 f   libucrtd:errno.obj
 0001:0006a1b0       __acrt_errno_map_os_error_ptd 000000018006b1b0 f   libucrtd:errno.obj
 0001:0006a210       __doserrno                 000000018006b210 f   libucrtd:errno.obj
 0001:0006a240       _errno                     000000018006b240 f   libucrtd:errno.obj
 0001:0006a270       _get_doserrno              000000018006b270 f   libucrtd:errno.obj
 0001:0006a330       _get_errno                 000000018006b330 f   libucrtd:errno.obj
 0001:0006a3f0       _set_doserrno              000000018006b3f0 f   libucrtd:errno.obj
 0001:0006a430       _set_errno                 000000018006b430 f   libucrtd:errno.obj
 0001:0006a490       ??$?B$$A6AHPEA_WK_J@Z@__crt_fast_encoded_nullptr_t@@QEBAP6AHPEA_WK_J@ZXZ 000000018006b490 f i libucrtd:winapi_thunks.obj
 0001:0006a560       ??$__crt_fast_decode_pointer@P6AHPEA_WK_J@Z@@YAP6AHPEA_WK_J@ZQ6AH0K1@Z@Z 000000018006b560 f i libucrtd:winapi_thunks.obj
 0001:0006a5a0       ??$__crt_fast_decode_pointer@PEAX@@YAPEAXQEAX@Z 000000018006b5a0 f i libucrtd:winapi_thunks.obj
 0001:0006a5e0       ??$__crt_fast_encode_pointer@P6AHPEA_WK_J@Z@@YAP6AHPEA_WK_J@ZQ6AH0K1@Z@Z 000000018006b5e0 f i libucrtd:winapi_thunks.obj
 0001:0006b1a0       GetCurrentThreadEffectiveToken 000000018006c1a0 f i libucrtd:winapi_thunks.obj
 0001:0006b1b0       __acrt_AppPolicyGetProcessTerminationMethodInternal 000000018006c1b0 f   libucrtd:winapi_thunks.obj
 0001:0006b210       __acrt_AppPolicyGetShowDeveloperDiagnosticInternal 000000018006c210 f   libucrtd:winapi_thunks.obj
 0001:0006b270       __acrt_AppPolicyGetThreadInitializationTypeInternal 000000018006c270 f   libucrtd:winapi_thunks.obj
 0001:0006b2d0       __acrt_AppPolicyGetWindowingModelInternal 000000018006c2d0 f   libucrtd:winapi_thunks.obj
 0001:0006b330       __acrt_AreFileApisANSI     000000018006c330 f   libucrtd:winapi_thunks.obj
 0001:0006b380       __acrt_CompareStringEx     000000018006c380 f   libucrtd:winapi_thunks.obj
 0001:0006b4a0       __acrt_EnumSystemLocalesEx 000000018006c4a0 f   libucrtd:winapi_thunks.obj
 0001:0006b530       __acrt_FlsAlloc            000000018006c530 f   libucrtd:winapi_thunks.obj
 0001:0006b550       __acrt_FlsFree             000000018006c550 f   libucrtd:winapi_thunks.obj
 0001:0006b570       __acrt_FlsGetValue         000000018006c570 f   libucrtd:winapi_thunks.obj
 0001:0006b590       __acrt_FlsSetValue         000000018006c590 f   libucrtd:winapi_thunks.obj
 0001:0006b5c0       __acrt_GetDateFormatEx     000000018006c5c0 f   libucrtd:winapi_thunks.obj
 0001:0006b6a0       __acrt_GetEnabledXStateFeatures 000000018006c6a0 f   libucrtd:winapi_thunks.obj
 0001:0006b6f0       __acrt_GetLocaleInfoEx     000000018006c6f0 f   libucrtd:winapi_thunks.obj
 0001:0006b780       __acrt_GetSystemTimePreciseAsFileTime 000000018006c780 f   libucrtd:winapi_thunks.obj
 0001:0006b7e0       __acrt_GetTimeFormatEx     000000018006c7e0 f   libucrtd:winapi_thunks.obj
 0001:0006b8b0       __acrt_GetUserDefaultLocaleName 000000018006c8b0 f   libucrtd:winapi_thunks.obj
 0001:0006b930       __acrt_GetXStateFeaturesMask 000000018006c930 f   libucrtd:winapi_thunks.obj
 0001:0006b990       __acrt_InitializeCriticalSectionEx 000000018006c990 f   libucrtd:winapi_thunks.obj
 0001:0006ba10       __acrt_IsValidLocaleName   000000018006ca10 f   libucrtd:winapi_thunks.obj
 0001:0006ba80       __acrt_LCIDToLocaleName    000000018006ca80 f   libucrtd:winapi_thunks.obj
 0001:0006bb00       __acrt_LCMapStringEx       000000018006cb00 f   libucrtd:winapi_thunks.obj
 0001:0006bc10       __acrt_LocaleNameToLCID    000000018006cc10 f   libucrtd:winapi_thunks.obj
 0001:0006bc80       __acrt_LocateXStateFeature 000000018006cc80 f   libucrtd:winapi_thunks.obj
 0001:0006bcf0       __acrt_MessageBoxA         000000018006ccf0 f   libucrtd:winapi_thunks.obj
 0001:0006bd70       __acrt_MessageBoxW         000000018006cd70 f   libucrtd:winapi_thunks.obj
 0001:0006bdf0       __acrt_RoInitialize        000000018006cdf0 f   libucrtd:winapi_thunks.obj
 0001:0006be40       __acrt_RoUninitialize      000000018006ce40 f   libucrtd:winapi_thunks.obj
 0001:0006be80       __acrt_RtlGenRandom        000000018006ce80 f   libucrtd:winapi_thunks.obj
 0001:0006bee0       __acrt_SetThreadStackGuarantee 000000018006cee0 f   libucrtd:winapi_thunks.obj
 0001:0006bf40       __acrt_can_show_message_box 000000018006cf40 f   libucrtd:winapi_thunks.obj
 0001:0006bf80       __acrt_can_use_vista_locale_apis 000000018006cf80 f   libucrtd:winapi_thunks.obj
 0001:0006bfb0       __acrt_can_use_xstate_apis 000000018006cfb0 f   libucrtd:winapi_thunks.obj
 0001:0006bfe0       __acrt_eagerly_load_locale_apis 000000018006cfe0 f   libucrtd:winapi_thunks.obj
 0001:0006c020       __acrt_get_parent_window   000000018006d020 f   libucrtd:winapi_thunks.obj
 0001:0006c0c0       __acrt_initialize_winapi_thunks 000000018006d0c0 f   libucrtd:winapi_thunks.obj
 0001:0006c140       __acrt_is_interactive      000000018006d140 f   libucrtd:winapi_thunks.obj
 0001:0006c250       __acrt_uninitialize_winapi_thunks 000000018006d250 f   libucrtd:winapi_thunks.obj
 0001:0006c2f0       ??0__crt_stdio_stream@@QEAA@QEAU__crt_stdio_stream_data@@@Z 000000018006d2f0 f i libucrtd:closeall.obj
 0001:0006c310       ?is_in_use@__crt_stdio_stream@@QEBA_NXZ 000000018006d310 f i libucrtd:closeall.obj
 0001:0006c350       _fcloseall                 000000018006d350 f   libucrtd:closeall.obj
 0001:0006ca70       ?__acrt_stdio_reset_buffer@@YAXV__crt_stdio_stream@@@Z 000000018006da70 f i libucrtd:fflush.obj
 0001:0006cc40       ?has_all_of@__crt_stdio_stream@@QEBA_NJ@Z 000000018006dc40 f i libucrtd:fflush.obj
 0001:0006cd20       ?set_flags@__crt_stdio_stream@@QEBA_NJ@Z 000000018006dd20 f i libucrtd:fflush.obj
 0001:0006cd90       ?unset_flags@__crt_stdio_stream@@QEBA_NJ@Z 000000018006dd90 f i libucrtd:fflush.obj
 0001:0006cdf0       __acrt_stdio_flush_nolock  000000018006ddf0 f   libucrtd:fflush.obj
 0001:0006cf10       _fflush_nolock             000000018006df10 f   libucrtd:fflush.obj
 0001:0006cf50       _flushall                  000000018006df50 f   libucrtd:fflush.obj
 0001:0006cf60       fflush                     000000018006df60 f   libucrtd:fflush.obj
 0001:0006cff0       ?has_any_of@__crt_stdio_stream@@QEBA_NJ@Z 000000018006dff0 f i libucrtd:_freebuf.obj
 0001:0006d030       ?has_crt_buffer@__crt_stdio_stream@@QEBA_NXZ 000000018006e030 f i libucrtd:_freebuf.obj
 0001:0006d050       __acrt_stdio_free_buffer_nolock 000000018006e050 f   libucrtd:_freebuf.obj
 0001:0006d4d0       __acrt_initialize_lowio    000000018006e4d0 f   libucrtd:ioinit.obj
 0001:0006d520       __acrt_uninitialize_lowio  000000018006e520 f   libucrtd:ioinit.obj
 0001:0006d5a0       _CrtGetDebugFillThreshold  000000018006e5a0 f   libucrtd:debug_fill_threshold.obj
 0001:0006d5b0       _CrtSetDebugFillThreshold  000000018006e5b0 f   libucrtd:debug_fill_threshold.obj
 0001:0006e940       ??1?$__crt_simd_cleanup_guard@$00@@QEAA@XZ 000000018006f940 f i libucrtd:strnlen.obj
 0001:0006e950       ??1?$__crt_simd_cleanup_guard@$0A@@@QEAA@XZ 000000018006f950 f i libucrtd:strnlen.obj
 0001:0006e960       ?compare_equals@?$__crt_simd_traits@$00E@@SA?AT__m256i@@T2@0@Z 000000018006f960 f i libucrtd:strnlen.obj
 0001:0006e9a0       ?compare_equals@?$__crt_simd_traits@$00G@@SA?AT__m256i@@T2@0@Z 000000018006f9a0 f i libucrtd:strnlen.obj
 0001:0006e9e0       ?compare_equals@?$__crt_simd_traits@$0A@E@@SA?AT__m128i@@T2@0@Z 000000018006f9e0 f i libucrtd:strnlen.obj
 0001:0006ea10       ?compare_equals@?$__crt_simd_traits@$0A@G@@SA?AT__m128i@@T2@0@Z 000000018006fa10 f i libucrtd:strnlen.obj
 0001:0006ea40       ?compute_byte_mask@?$__crt_simd_pack_traits@$00@@SAHT__m256i@@@Z 000000018006fa40 f i libucrtd:strnlen.obj
 0001:0006ea60       ?compute_byte_mask@?$__crt_simd_pack_traits@$0A@@@SAHT__m128i@@@Z 000000018006fa60 f i libucrtd:strnlen.obj
 0001:0006ea80       ?get_zero_pack@?$__crt_simd_pack_traits@$00@@SA?AT__m256i@@XZ 000000018006fa80 f i libucrtd:strnlen.obj
 0001:0006eab0       ?get_zero_pack@?$__crt_simd_pack_traits@$0A@@@SA?AT__m128i@@XZ 000000018006fab0 f i libucrtd:strnlen.obj
 0001:0006ead0       strnlen                    000000018006fad0 f   libucrtd:strnlen.obj
 0001:0006eb00       wcslen                     000000018006fb00 f   libucrtd:strnlen.obj
 0001:0006eb20       wcsnlen                    000000018006fb20 f   libucrtd:strnlen.obj
 0001:0006eb50       ?value@?$dual_state_global@PEAU__crt_locale_data@@@__crt_state_management@@QEAAAEAPEAU__crt_locale_data@@XZ 000000018006fb50 f i libucrtd:locale_update.obj
 0001:0006eb70       ?value@?$dual_state_global@PEAU__crt_multibyte_data@@@__crt_state_management@@QEAAAEAPEAU__crt_multibyte_data@@XZ 000000018006fb70 f i libucrtd:locale_update.obj
 0001:0006eb90       ?value_explicit@?$dual_state_global@PEAU__crt_locale_data@@@__crt_state_management@@QEAAAEAPEAU__crt_locale_data@@_K@Z 000000018006fb90 f i libucrtd:locale_update.obj
 0001:0006ebb0       ?value_explicit@?$dual_state_global@PEAU__crt_multibyte_data@@@__crt_state_management@@QEAAAEAPEAU__crt_multibyte_data@@_K@Z 000000018006fbb0 f i libucrtd:locale_update.obj
 0001:0006ebd0       __acrt_should_sync_with_global_locale 000000018006fbd0 f i libucrtd:locale_update.obj
 0001:0006ec10       __acrt_update_locale_info  000000018006fc10 f   libucrtd:locale_update.obj
 0001:0006ec60       __acrt_update_locale_info_explicit 000000018006fc60 f   libucrtd:locale_update.obj
 0001:0006ecc0       __acrt_update_multibyte_info 000000018006fcc0 f   libucrtd:locale_update.obj
 0001:0006ed10       __acrt_update_multibyte_info_explicit 000000018006fd10 f   libucrtd:locale_update.obj
 0001:0006ed70       ?__acrt_fp_classify@@YA?AW4__acrt_fp_class@@AEBN@Z 000000018006fd70 f i libucrtd:cvt.obj
 0001:0006ee70       ?__acrt_fp_is_negative@@YA_NAEBN@Z 000000018006fe70 f i libucrtd:cvt.obj
 0001:00070790       ?strrchr@@YAPEADQEADH@Z    0000000180071790 f i libucrtd:cvt.obj
 0001:000707b0       __acrt_fp_format           00000001800717b0 f   libucrtd:cvt.obj
 0001:00070e70       ?value_or@?$cached@H@__crt_cached_ptd_host@@QEBAHH@Z 0000000180071e70 f i libucrtd:wctomb.obj
 0001:00070ea0       _wctomb_internal           0000000180071ea0 f   libucrtd:wctomb.obj
 0001:00071400       _wctomb_l                  0000000180072400 f   libucrtd:wctomb.obj
 0001:000714b0       _wctomb_s_l                00000001800724b0 f   libucrtd:wctomb.obj
 0001:00071530       wctomb                     0000000180072530 f   libucrtd:wctomb.obj
 0001:000715d0       wctomb_s                   00000001800725d0 f   libucrtd:wctomb.obj
 0001:00071650       _mbtowc_internal           0000000180072650 f   libucrtd:mbtowc.obj
 0001:000719e0       _mbtowc_l                  00000001800729e0 f   libucrtd:mbtowc.obj
 0001:00071a50       mbtowc                     0000000180072a50 f   libucrtd:mbtowc.obj
 0001:00071ab0       ?lowio_handle@__crt_stdio_stream@@QEBAHXZ 0000000180072ab0 f i libucrtd:fileno.obj
 0001:00071ae0       _fileno                    0000000180072ae0 f   libucrtd:fileno.obj
 0001:00071bc0       _get_printf_count_output   0000000180072bc0 f   libucrtd:printf_count_output.obj
 0001:00071bf0       _set_printf_count_output   0000000180072bf0 f   libucrtd:printf_count_output.obj
 0001:00071e30       _fputwc_nolock             0000000180072e30 f   libucrtd:fputwc.obj
 0001:00071e80       _fputwc_nolock_internal    0000000180072e80 f   libucrtd:fputwc.obj
 0001:00072140       _fputwchar                 0000000180073140 f   libucrtd:fputwc.obj
 0001:00072170       _putwc_nolock              0000000180073170 f   libucrtd:fputwc.obj
 0001:000721a0       fputwc                     00000001800731a0 f   libucrtd:fputwc.obj
 0001:000721f0       putwc                      00000001800731f0 f   libucrtd:fputwc.obj
 0001:00072220       putwchar                   0000000180073220 f   libucrtd:fputwc.obj
 0001:00072540       _fputc_nolock              0000000180073540 f   libucrtd:fputc.obj
 0001:00072590       _fputc_nolock_internal     0000000180073590 f   libucrtd:fputc.obj
 0001:00072650       _fputchar                  0000000180073650 f   libucrtd:fputc.obj
 0001:00072680       _putc_nolock               0000000180073680 f   libucrtd:fputc.obj
 0001:000726a0       fputc                      00000001800736a0 f   libucrtd:fputc.obj
 0001:000726f0       putc                       00000001800736f0 f   libucrtd:fputc.obj
 0001:00072710       putchar                    0000000180073710 f   libucrtd:fputc.obj
 0001:00072730       ?has_any_buffer@__crt_stdio_stream@@QEBA_NXZ 0000000180073730 f i libucrtd:_sftbuf.obj
 0001:00072750       ?has_temporary_buffer@__crt_stdio_stream@@QEBA_NXZ 0000000180073750 f i libucrtd:_sftbuf.obj
 0001:00072770       __acrt_should_use_temporary_buffer 0000000180073770 f   libucrtd:_sftbuf.obj
 0001:000727c0       __acrt_stdio_begin_temporary_buffering_nolock 00000001800737c0 f   libucrtd:_sftbuf.obj
 0001:00072a20       __acrt_stdio_end_temporary_buffering_nolock 0000000180073a20 f   libucrtd:_sftbuf.obj
 0001:00072ac0       ??$?RU__acrt_ptd@@@__crt_internal_free_policy@@QEBAXQEBU__acrt_ptd@@@Z 0000000180073ac0 f i libucrtd:per_thread_data.obj
 0001:00072f00       ??0?$__crt_unique_heap_ptr@U__acrt_ptd@@U__crt_internal_free_policy@@@@QEAA@QEAU__acrt_ptd@@@Z 0000000180073f00 f i libucrtd:per_thread_data.obj
 0001:00072f20       ??1?$__crt_unique_heap_ptr@U__acrt_ptd@@U__crt_internal_free_policy@@@@QEAA@XZ 0000000180073f20 f i libucrtd:per_thread_data.obj
 0001:00072f40       ??B?$__crt_unique_heap_ptr@U__acrt_ptd@@U__crt_internal_free_policy@@@@QEBA_NXZ 0000000180073f40 f i libucrtd:per_thread_data.obj
 0001:00073290       ?dangerous_get_state_array@?$dual_state_global@PEAU__crt_locale_data@@@__crt_state_management@@QEAAPEAPEAU__crt_locale_data@@XZ 0000000180074290 f i libucrtd:per_thread_data.obj
 0001:00073460       ?detach@?$__crt_unique_heap_ptr@U__acrt_ptd@@U__crt_internal_free_policy@@@@QEAAPEAU__acrt_ptd@@XZ 0000000180074460 f i libucrtd:per_thread_data.obj
 0001:00073490       ?get@?$__crt_unique_heap_ptr@U__acrt_ptd@@U__crt_internal_free_policy@@@@QEBAPEAU__acrt_ptd@@XZ 0000000180074490 f i libucrtd:per_thread_data.obj
 0001:00073670       ?is_valid@?$__crt_unique_heap_ptr@U__acrt_ptd@@U__crt_internal_free_policy@@@@QEBA_NXZ 0000000180074670 f i libucrtd:per_thread_data.obj
 0001:000736a0       ?release@?$__crt_unique_heap_ptr@U__acrt_ptd@@U__crt_internal_free_policy@@@@QEAAXXZ 00000001800746a0 f i libucrtd:per_thread_data.obj
 0001:000737d0       __acrt_freeptd             00000001800747d0 f   libucrtd:per_thread_data.obj
 0001:00073810       __acrt_getptd              0000000180074810 f   libucrtd:per_thread_data.obj
 0001:00073840       __acrt_getptd_head         0000000180074840 f   libucrtd:per_thread_data.obj
 0001:00073870       __acrt_getptd_noexit       0000000180074870 f   libucrtd:per_thread_data.obj
 0001:00073880       __acrt_getptd_noexit_explicit 0000000180074880 f   libucrtd:per_thread_data.obj
 0001:000738b0       __acrt_initialize_ptd      00000001800748b0 f   libucrtd:per_thread_data.obj
 0001:000738f0       __acrt_uninitialize_ptd    00000001800748f0 f   libucrtd:per_thread_data.obj
 0001:00073920       __threadhandle             0000000180074920 f   libucrtd:per_thread_data.obj
 0001:00073930       __threadid                 0000000180074930 f   libucrtd:per_thread_data.obj
 0001:00073950       ??$?RU__crt_locale_data@@@__crt_internal_free_policy@@QEBAXQEBU__crt_locale_data@@@Z 0000000180074950 f i libucrtd:wsetlocale.obj
 0001:00073980       ??$?RU__crt_locale_pointers@@@__crt_internal_free_policy@@QEBAXQEBU__crt_locale_pointers@@@Z 0000000180074980 f i libucrtd:wsetlocale.obj
 0001:000739b0       ??$?RU__crt_multibyte_data@@@__crt_internal_free_policy@@QEBAXQEBU__crt_multibyte_data@@@Z 00000001800749b0 f i libucrtd:wsetlocale.obj
 0001:00073f60       ??0?$__crt_unique_heap_ptr@U__crt_locale_data@@U__crt_internal_free_policy@@@@QEAA@QEAU__crt_locale_data@@@Z 0000000180074f60 f i libucrtd:wsetlocale.obj
 0001:00073f80       ??0?$__crt_unique_heap_ptr@U__crt_locale_pointers@@U__crt_internal_free_policy@@@@QEAA@QEAU__crt_locale_pointers@@@Z 0000000180074f80 f i libucrtd:wsetlocale.obj
 0001:00073fa0       ??0?$__crt_unique_heap_ptr@U__crt_multibyte_data@@U__crt_internal_free_policy@@@@QEAA@QEAU__crt_multibyte_data@@@Z 0000000180074fa0 f i libucrtd:wsetlocale.obj
 0001:00073fc0       ??0_expandlocale_locale_name_cache@@QEAA@QEA_W_KQEAU__crt_qualified_locale_data@@@Z 0000000180074fc0 f i libucrtd:wsetlocale.obj
 0001:00074070       ??1?$__crt_unique_heap_ptr@U__crt_locale_data@@U__crt_internal_free_policy@@@@QEAA@XZ 0000000180075070 f i libucrtd:wsetlocale.obj
 0001:00074090       ??1?$__crt_unique_heap_ptr@U__crt_locale_pointers@@U__crt_internal_free_policy@@@@QEAA@XZ 0000000180075090 f i libucrtd:wsetlocale.obj
 0001:000740b0       ??1?$__crt_unique_heap_ptr@U__crt_multibyte_data@@U__crt_internal_free_policy@@@@QEAA@XZ 00000001800750b0 f i libucrtd:wsetlocale.obj
 0001:000740d0       ??1_expandlocale_locale_name_cache@@QEAA@XZ 00000001800750d0 f i libucrtd:wsetlocale.obj
 0001:00074150       ??B?$__crt_unique_heap_ptr@U__crt_locale_data@@U__crt_internal_free_policy@@@@QEBA_NXZ 0000000180075150 f i libucrtd:wsetlocale.obj
 0001:00074170       ??B?$__crt_unique_heap_ptr@U__crt_locale_pointers@@U__crt_internal_free_policy@@@@QEBA_NXZ 0000000180075170 f i libucrtd:wsetlocale.obj
 0001:00074190       ??B?$__crt_unique_heap_ptr@U__crt_multibyte_data@@U__crt_internal_free_policy@@@@QEBA_NXZ 0000000180075190 f i libucrtd:wsetlocale.obj
 0001:00074640       ?commit_locale_name@_expandlocale_locale_name_cache@@QEAAXQEB_W_K@Z 0000000180075640 f i libucrtd:wsetlocale.obj
 0001:000746c0       ?commit_locale_name_cache_already_updated@_expandlocale_locale_name_cache@@QEAAXQEB_W_K@Z 00000001800756c0 f i libucrtd:wsetlocale.obj
 0001:00074730       ?detach@?$__crt_unique_heap_ptr@U__crt_locale_data@@U__crt_internal_free_policy@@@@QEAAPEAU__crt_locale_data@@XZ 0000000180075730 f i libucrtd:wsetlocale.obj
 0001:00074760       ?detach@?$__crt_unique_heap_ptr@U__crt_locale_pointers@@U__crt_internal_free_policy@@@@QEAAPEAU__crt_locale_pointers@@XZ 0000000180075760 f i libucrtd:wsetlocale.obj
 0001:00074790       ?detach@?$__crt_unique_heap_ptr@U__crt_multibyte_data@@U__crt_internal_free_policy@@@@QEAAPEAU__crt_multibyte_data@@XZ 0000000180075790 f i libucrtd:wsetlocale.obj
 0001:000747c0       ?get@?$__crt_unique_heap_ptr@U__crt_locale_data@@U__crt_internal_free_policy@@@@QEBAPEAU__crt_locale_data@@XZ 00000001800757c0 f i libucrtd:wsetlocale.obj
 0001:000747d0       ?get@?$__crt_unique_heap_ptr@U__crt_locale_pointers@@U__crt_internal_free_policy@@@@QEBAPEAU__crt_locale_pointers@@XZ 00000001800757d0 f i libucrtd:wsetlocale.obj
 0001:000747e0       ?get@?$__crt_unique_heap_ptr@U__crt_multibyte_data@@U__crt_internal_free_policy@@@@QEBAPEAU__crt_multibyte_data@@XZ 00000001800757e0 f i libucrtd:wsetlocale.obj
 0001:000747f0       ?is_valid@?$__crt_unique_heap_ptr@U__crt_locale_data@@U__crt_internal_free_policy@@@@QEBA_NXZ 00000001800757f0 f i libucrtd:wsetlocale.obj
 0001:00074820       ?is_valid@?$__crt_unique_heap_ptr@U__crt_locale_pointers@@U__crt_internal_free_policy@@@@QEBA_NXZ 0000000180075820 f i libucrtd:wsetlocale.obj
 0001:00074850       ?is_valid@?$__crt_unique_heap_ptr@U__crt_multibyte_data@@U__crt_internal_free_policy@@@@QEBA_NXZ 0000000180075850 f i libucrtd:wsetlocale.obj
 0001:00074880       ?release@?$__crt_unique_heap_ptr@U__crt_locale_data@@U__crt_internal_free_policy@@@@QEAAXXZ 0000000180075880 f i libucrtd:wsetlocale.obj
 0001:000748b0       ?release@?$__crt_unique_heap_ptr@U__crt_locale_pointers@@U__crt_internal_free_policy@@@@QEAAXXZ 00000001800758b0 f i libucrtd:wsetlocale.obj
 0001:000748e0       ?release@?$__crt_unique_heap_ptr@U__crt_multibyte_data@@U__crt_internal_free_policy@@@@QEAAXXZ 00000001800758e0 f i libucrtd:wsetlocale.obj
 0001:00074910       __acrt_copy_locale_name    0000000180075910 f   libucrtd:wsetlocale.obj
 0001:000749e0       __acrt_set_locale_changed  00000001800759e0 f   libucrtd:wsetlocale.obj
 0001:000749f0       __acrt_uninitialize_locale 00000001800759f0 f   libucrtd:wsetlocale.obj
 0001:00074a20       __ascii_tolower            0000000180075a20 f i libucrtd:wsetlocale.obj
 0001:00074a40       __ascii_towlower           0000000180075a40 f i libucrtd:wsetlocale.obj
 0001:00074a60       __lc_lctowcs               0000000180075a60 f   libucrtd:wsetlocale.obj
 0001:00074b50       __lc_wcstolc               0000000180075b50 f   libucrtd:wsetlocale.obj
 0001:00074e10       _configthreadlocale        0000000180075e10 f   libucrtd:wsetlocale.obj
 0001:00074fd0       _create_locale             0000000180075fd0 f   libucrtd:wsetlocale.obj
 0001:000756d0       _free_locale               00000001800766d0 f   libucrtd:wsetlocale.obj
 0001:000757c0       _get_current_locale        00000001800767c0 f   libucrtd:wsetlocale.obj
 0001:000758e0       _wcreate_locale            00000001800768e0 f   libucrtd:wsetlocale.obj
 0001:00075be0       _wcscats                   0000000180076be0 f   libucrtd:wsetlocale.obj
 0001:00075cc0       _wsetlocale                0000000180076cc0 f   libucrtd:wsetlocale.obj
 0001:000778e0       __p___mb_cur_max           00000001800788e0 f   libucrtd:nlsdata.obj
 0001:00077920       __acrt_initialize_locks    0000000180078920 f   libucrtd:locks.obj
 0001:00077990       __acrt_lock                0000000180078990 f   libucrtd:locks.obj
 0001:000779c0       __acrt_uninitialize_locks  00000001800789c0 f   libucrtd:locks.obj
 0001:00077a20       __acrt_unlock              0000000180078a20 f   libucrtd:locks.obj
 0001:00077a50       _lock_locales              0000000180078a50 f   libucrtd:locks.obj
 0001:00077a70       _unlock_locales            0000000180078a70 f   libucrtd:locks.obj
 0001:00077e80       __acrt_get_begin_thread_init_policy 0000000180078e80 f   libucrtd:win_policies.obj
 0001:00077e90       __acrt_get_developer_information_policy 0000000180078e90 f   libucrtd:win_policies.obj
 0001:00077eb0       __acrt_get_process_end_policy 0000000180078eb0 f   libucrtd:win_policies.obj
 0001:00077ec0       __acrt_get_windowing_model_policy 0000000180078ec0 f   libucrtd:win_policies.obj
 0001:00077f40       ??$__acrt_convert_wcs_mbs_cp@D_WV<lambda_7c9dea7b4ca7285d2cdb541a38da6275>@@U__crt_win32_buffer_internal_dynamic_resizing@@@@YAHQEBDAEAV?$__crt_win32_buffer@_WU__crt_win32_buffer_internal_dynamic_resizing@@@@AEBV<lambda_7c9dea7b4ca7285d2cdb541a38da6275>@@I@Z 0000000180078f40 f i libucrtd:argv_wildcards.obj
 0001:000780f0       ??$__acrt_convert_wcs_mbs_cp@_WDV<lambda_d8593a27d1aa8c02be35c86a17d324c4>@@U__crt_win32_buffer_internal_dynamic_resizing@@@@YAHQEB_WAEAV?$__crt_win32_buffer@DU__crt_win32_buffer_internal_dynamic_resizing@@@@AEBV<lambda_d8593a27d1aa8c02be35c86a17d324c4>@@I@Z 00000001800790f0 f i libucrtd:argv_wildcards.obj
 0001:000782a0       ??$__acrt_mbs_to_wcs_cp@U__crt_win32_buffer_internal_dynamic_resizing@@@@YAHQEBDAEAV?$__crt_win32_buffer@_WU__crt_win32_buffer_internal_dynamic_resizing@@@@I@Z 00000001800792a0 f i libucrtd:argv_wildcards.obj
 0001:000782f0       ??$__acrt_wcs_to_mbs_cp@U__crt_win32_buffer_internal_dynamic_resizing@@@@YAHQEB_WAEAV?$__crt_win32_buffer@DU__crt_win32_buffer_internal_dynamic_resizing@@@@I@Z 00000001800792f0 f i libucrtd:argv_wildcards.obj
 0001:00079760       ??$tcsncpy_s@AEAPEAD_KAEAPEADAEB_K@?$__crt_char_traits@D@@SAHAEAPEAD$$QEA_K0AEB_K@Z 000000018007a760 f i libucrtd:argv_wildcards.obj
 0001:000797b0       ??$tcsncpy_s@AEAPEA_W_KAEAPEA_WAEB_K@?$__crt_char_traits@_W@@SAHAEAPEA_W$$QEA_K0AEB_K@Z 000000018007a7b0 f i libucrtd:argv_wildcards.obj
 0001:00079800       ??$tcsncpy_s@PEADAEB_KAEBQEBDAEB_K@?$__crt_char_traits@D@@SAH$$QEAPEADAEB_KAEBQEBD1@Z 000000018007a800 f i libucrtd:argv_wildcards.obj
 0001:00079850       ??$tcsncpy_s@PEAD_KAEBQEBDAEB_K@?$__crt_char_traits@D@@SAH$$QEAPEAD$$QEA_KAEBQEBDAEB_K@Z 000000018007a850 f i libucrtd:argv_wildcards.obj
 0001:000798a0       ??$tcsncpy_s@PEA_WAEB_KAEBQEB_WAEB_K@?$__crt_char_traits@_W@@SAH$$QEAPEA_WAEB_KAEBQEB_W1@Z 000000018007a8a0 f i libucrtd:argv_wildcards.obj
 0001:000798f0       ??$tcsncpy_s@PEA_W_KAEBQEB_WAEB_K@?$__crt_char_traits@_W@@SAH$$QEAPEA_W$$QEA_KAEBQEB_WAEB_K@Z 000000018007a8f0 f i libucrtd:argv_wildcards.obj
 0001:00079940       ??$tcspbrk@AEAPEADAEAY02$$CBD@?$__crt_char_traits@D@@SAPEADAEAPEADAEAY02$$CBD@Z 000000018007a940 f i libucrtd:argv_wildcards.obj
 0001:00079970       ??$tcspbrk@AEAPEA_WAEAY02$$CB_W@?$__crt_char_traits@_W@@SAPEA_WAEAPEA_WAEAY02$$CB_W@Z 000000018007a970 f i libucrtd:argv_wildcards.obj
 0001:000799a0       ??0?$__crt_unique_handle_t@U__crt_findfile_traits@@@@QEAA@QEAX@Z 000000018007a9a0 f i libucrtd:argv_wildcards.obj
 0001:000799c0       ??0?$__crt_win32_buffer@DU__crt_win32_buffer_internal_dynamic_resizing@@@@QEAA@XZ 000000018007a9c0 f i libucrtd:argv_wildcards.obj
 0001:00079a20       ??0?$__crt_win32_buffer@_WU__crt_win32_buffer_internal_dynamic_resizing@@@@QEAA@XZ 000000018007aa20 f i libucrtd:argv_wildcards.obj
 0001:00079b00       ??1?$__crt_unique_handle_t@U__crt_findfile_traits@@@@QEAA@XZ 000000018007ab00 f i libucrtd:argv_wildcards.obj
 0001:00079b20       ??1?$__crt_win32_buffer@DU__crt_win32_buffer_internal_dynamic_resizing@@@@QEAA@XZ 000000018007ab20 f i libucrtd:argv_wildcards.obj
 0001:00079b50       ??1?$__crt_win32_buffer@_WU__crt_win32_buffer_internal_dynamic_resizing@@@@QEAA@XZ 000000018007ab50 f i libucrtd:argv_wildcards.obj
 0001:00079c80       ??R<lambda_7c9dea7b4ca7285d2cdb541a38da6275>@@QEBAHIQEBDQEA_W_K@Z 000000018007ac80 f i libucrtd:argv_wildcards.obj
 0001:00079df0       ??R<lambda_d8593a27d1aa8c02be35c86a17d324c4>@@QEBAHIQEB_WQEAD_K@Z 000000018007adf0 f i libucrtd:argv_wildcards.obj
 0001:00079e50       ?__acrt_get_utf8_acp_compatibility_codepage@@YAIXZ 000000018007ae50 f i libucrtd:argv_wildcards.obj
 0001:00079ef0       ?_deallocate@?$__crt_win32_buffer@DU__crt_win32_buffer_internal_dynamic_resizing@@@@AEAAXXZ 000000018007aef0 f i libucrtd:argv_wildcards.obj
 0001:00079f40       ?_deallocate@?$__crt_win32_buffer@_WU__crt_win32_buffer_internal_dynamic_resizing@@@@AEAAXXZ 000000018007af40 f i libucrtd:argv_wildcards.obj
 0001:00079f90       ?allocate@?$__crt_win32_buffer@DU__crt_win32_buffer_internal_dynamic_resizing@@@@QEAAH_K@Z 000000018007af90 f i libucrtd:argv_wildcards.obj
 0001:0007a010       ?allocate@?$__crt_win32_buffer@_WU__crt_win32_buffer_internal_dynamic_resizing@@@@QEAAH_K@Z 000000018007b010 f i libucrtd:argv_wildcards.obj
 0001:0007a0a0       ?allocate@__crt_win32_buffer_internal_dynamic_resizing@@SAHQEAPEAX_KAEBV__crt_win32_buffer_empty_debug_info@@@Z 000000018007b0a0 f i libucrtd:argv_wildcards.obj
 0001:0007a200       ?capacity@?$__crt_win32_buffer@DU__crt_win32_buffer_internal_dynamic_resizing@@@@QEBA_KXZ 000000018007b200 f i libucrtd:argv_wildcards.obj
 0001:0007a210       ?capacity@?$__crt_win32_buffer@_WU__crt_win32_buffer_internal_dynamic_resizing@@@@QEBA_KXZ 000000018007b210 f i libucrtd:argv_wildcards.obj
 0001:0007a220       ?close@?$__crt_unique_handle_t@U__crt_findfile_traits@@@@QEAAXXZ 000000018007b220 f i libucrtd:argv_wildcards.obj
 0001:0007a260       ?close@__crt_findfile_traits@@SA_NPEAX@Z 000000018007b260 f i libucrtd:argv_wildcards.obj
 0001:0007a2a0       ?data@?$__crt_win32_buffer@DU__crt_win32_buffer_internal_dynamic_resizing@@@@QEAAPEADXZ 000000018007b2a0 f i libucrtd:argv_wildcards.obj
 0001:0007a2b0       ?data@?$__crt_win32_buffer@_WU__crt_win32_buffer_internal_dynamic_resizing@@@@QEAAPEA_WXZ 000000018007b2b0 f i libucrtd:argv_wildcards.obj
 0001:0007a2c0       ?deallocate@__crt_win32_buffer_internal_dynamic_resizing@@SAXQEAXAEBV__crt_win32_buffer_empty_debug_info@@@Z 000000018007b2c0 f i libucrtd:argv_wildcards.obj
 0001:0007a2f0       ?debug_info@?$__crt_win32_buffer@DU__crt_win32_buffer_internal_dynamic_resizing@@@@QEBAAEBV__crt_win32_buffer_empty_debug_info@@XZ 000000018007b2f0 f i libucrtd:argv_wildcards.obj
 0001:0007a300       ?debug_info@?$__crt_win32_buffer@_WU__crt_win32_buffer_internal_dynamic_resizing@@@@QEBAAEBV__crt_win32_buffer_empty_debug_info@@XZ 000000018007b300 f i libucrtd:argv_wildcards.obj
 0001:0007a6f0       ?get@?$__crt_unique_handle_t@U__crt_findfile_traits@@@@QEBAPEAXXZ 000000018007b6f0 f i libucrtd:argv_wildcards.obj
 0001:0007a760       ?get_invalid_value@__crt_findfile_traits@@SAPEAXXZ 000000018007b760 f i libucrtd:argv_wildcards.obj
 0001:0007a820       ?set_to_nullptr@?$__crt_win32_buffer@DU__crt_win32_buffer_internal_dynamic_resizing@@@@QEAAXXZ 000000018007b820 f i libucrtd:argv_wildcards.obj
 0001:0007a860       ?set_to_nullptr@?$__crt_win32_buffer@_WU__crt_win32_buffer_internal_dynamic_resizing@@@@QEAAXXZ 000000018007b860 f i libucrtd:argv_wildcards.obj
 0001:0007a8a0       ?size@?$__crt_win32_buffer@DU__crt_win32_buffer_internal_dynamic_resizing@@@@QEAAX_K@Z 000000018007b8a0 f i libucrtd:argv_wildcards.obj
 0001:0007a8c0       ?size@?$__crt_win32_buffer@_WU__crt_win32_buffer_internal_dynamic_resizing@@@@QEAAX_K@Z 000000018007b8c0 f i libucrtd:argv_wildcards.obj
 0001:0007a920       ?strpbrk@@YAPEADQEADQEBD@Z 000000018007b920 f i libucrtd:argv_wildcards.obj
 0001:0007a950       ?wcspbrk@@YAPEA_WPEA_WPEB_W@Z 000000018007b950 f i libucrtd:argv_wildcards.obj
 0001:0007a980       __acrt_expand_narrow_argv_wildcards 000000018007b980 f   libucrtd:argv_wildcards.obj
 0001:0007a9b0       __acrt_expand_wide_argv_wildcards 000000018007b9b0 f   libucrtd:argv_wildcards.obj
 0001:0007a9e0       ??$__acrt_convert_wcs_mbs_cp@_WDV<lambda_f788ae46380686e8b737efdd8c720d07>@@U__crt_win32_buffer_no_resizing@@@@YAHQEB_WAEAV?$__crt_win32_buffer@DU__crt_win32_buffer_no_resizing@@@@AEBV<lambda_f788ae46380686e8b737efdd8c720d07>@@I@Z 000000018007b9e0 f i libucrtd:getmodulefilenamea.obj
 0001:0007ab90       ??$__acrt_wcs_to_mbs_cp@U__crt_win32_buffer_no_resizing@@@@YAHQEB_WAEAV?$__crt_win32_buffer@DU__crt_win32_buffer_no_resizing@@@@I@Z 000000018007bb90 f i libucrtd:getmodulefilenamea.obj
 0001:0007abe0       ??0?$__crt_win32_buffer@DU__crt_win32_buffer_no_resizing@@@@QEAA@QEAD_K@Z 000000018007bbe0 f i libucrtd:getmodulefilenamea.obj
 0001:0007ac50       ??1?$__crt_win32_buffer@DU__crt_win32_buffer_no_resizing@@@@QEAA@XZ 000000018007bc50 f i libucrtd:getmodulefilenamea.obj
 0001:0007ac80       ??R<lambda_f788ae46380686e8b737efdd8c720d07>@@QEBAHIQEB_WQEAD_K@Z 000000018007bc80 f i libucrtd:getmodulefilenamea.obj
 0001:0007ace0       ?_deallocate@?$__crt_win32_buffer@DU__crt_win32_buffer_no_resizing@@@@AEAAXXZ 000000018007bce0 f i libucrtd:getmodulefilenamea.obj
 0001:0007ad30       ?allocate@?$__crt_win32_buffer@DU__crt_win32_buffer_no_resizing@@@@QEAAH_K@Z 000000018007bd30 f i libucrtd:getmodulefilenamea.obj
 0001:0007adb0       ?allocate@__crt_win32_buffer_no_resizing@@SAHQEAPEAX_KAEBV__crt_win32_buffer_empty_debug_info@@@Z 000000018007bdb0 f i libucrtd:getmodulefilenamea.obj
 0001:0007ade0       ?capacity@?$__crt_win32_buffer@DU__crt_win32_buffer_no_resizing@@@@QEBA_KXZ 000000018007bde0 f i libucrtd:getmodulefilenamea.obj
 0001:0007adf0       ?data@?$__crt_win32_buffer@DU__crt_win32_buffer_no_resizing@@@@QEAAPEADXZ 000000018007bdf0 f i libucrtd:getmodulefilenamea.obj
 0001:0007ae00       ?deallocate@__crt_win32_buffer_no_resizing@@SAXQEAXAEBV__crt_win32_buffer_empty_debug_info@@@Z 000000018007be00 f i libucrtd:getmodulefilenamea.obj
 0001:0007ae10       ?debug_info@?$__crt_win32_buffer@DU__crt_win32_buffer_no_resizing@@@@QEBAAEBV__crt_win32_buffer_empty_debug_info@@XZ 000000018007be10 f i libucrtd:getmodulefilenamea.obj
 0001:0007ae20       ?set_to_nullptr@?$__crt_win32_buffer@DU__crt_win32_buffer_no_resizing@@@@QEAAXXZ 000000018007be20 f i libucrtd:getmodulefilenamea.obj
 0001:0007ae60       ?size@?$__crt_win32_buffer@DU__crt_win32_buffer_no_resizing@@@@QEAAX_K@Z 000000018007be60 f i libucrtd:getmodulefilenamea.obj
 0001:0007ae80       ?size@?$__crt_win32_buffer@DU__crt_win32_buffer_no_resizing@@@@QEBA_KXZ 000000018007be80 f i libucrtd:getmodulefilenamea.obj
 0001:0007ae90       __acrt_GetModuleFileNameA  000000018007be90 f   libucrtd:getmodulefilenamea.obj
 0001:0007b010       ??$initialize_from_array@$$BY10BAA@E@?$dual_state_global@PEAE@__crt_state_management@@QEAAXAEAY10BAA@E@Z 000000018007c010 f i libucrtd:mbctype.obj
 0001:0007b080       ??$initialize_from_array@$$BY10BAB@E@?$dual_state_global@PEAE@__crt_state_management@@QEAAXAEAY10BAB@E@Z 000000018007c080 f i libucrtd:mbctype.obj
 0001:0007b370       ?dangerous_get_state_array@?$dual_state_global@PEAE@__crt_state_management@@QEAAPEAPEAEXZ 000000018007c370 f i libucrtd:mbctype.obj
 0001:0007b380       ?dangerous_get_state_array@?$dual_state_global@PEAU__crt_multibyte_data@@@__crt_state_management@@QEAAPEAPEAU__crt_multibyte_data@@XZ 000000018007c380 f i libucrtd:mbctype.obj
 0001:0007b470       ?initialize@?$dual_state_global@PEAU__crt_multibyte_data@@@__crt_state_management@@QEAAXQEAU__crt_multibyte_data@@@Z 000000018007c470 f i libucrtd:mbctype.obj
 0001:0007bd40       ?value@?$dual_state_global@PEAE@__crt_state_management@@QEAAAEAPEAEXZ 000000018007cd40 f i libucrtd:mbctype.obj
 0001:0007bd60       __acrt_initialize_multibyte 000000018007cd60 f   libucrtd:mbctype.obj
 0001:0007be30       __acrt_update_thread_multibyte_data 000000018007ce30 f   libucrtd:mbctype.obj
 0001:0007be70       __p__mbcasemap             000000018007ce70 f   libucrtd:mbctype.obj
 0001:0007be90       __p__mbctype               000000018007ce90 f   libucrtd:mbctype.obj
 0001:0007beb0       _getmbcp                   000000018007ceb0 f   libucrtd:mbctype.obj
 0001:0007bf30       _setmbcp                   000000018007cf30 f   libucrtd:mbctype.obj
 0001:0007bf70       _setmbcp_nolock            000000018007cf70 f   libucrtd:mbctype.obj
 0001:0007c660       _ismbbalnum                000000018007d660 f   libucrtd:ismbbyte.obj
 0001:0007c690       _ismbbalnum_l              000000018007d690 f   libucrtd:ismbbyte.obj
 0001:0007c6c0       _ismbbalpha                000000018007d6c0 f   libucrtd:ismbbyte.obj
 0001:0007c6f0       _ismbbalpha_l              000000018007d6f0 f   libucrtd:ismbbyte.obj
 0001:0007c720       _ismbbblank                000000018007d720 f   libucrtd:ismbbyte.obj
 0001:0007c760       _ismbbblank_l              000000018007d760 f   libucrtd:ismbbyte.obj
 0001:0007c7b0       _ismbbgraph                000000018007d7b0 f   libucrtd:ismbbyte.obj
 0001:0007c7e0       _ismbbgraph_l              000000018007d7e0 f   libucrtd:ismbbyte.obj
 0001:0007c810       _ismbbkalnum               000000018007d810 f   libucrtd:ismbbyte.obj
 0001:0007c840       _ismbbkalnum_l             000000018007d840 f   libucrtd:ismbbyte.obj
 0001:0007c870       _ismbbkana                 000000018007d870 f   libucrtd:ismbbyte.obj
 0001:0007c890       _ismbbkana_l               000000018007d890 f   libucrtd:ismbbyte.obj
 0001:0007c920       _ismbbkprint               000000018007d920 f   libucrtd:ismbbyte.obj
 0001:0007c950       _ismbbkprint_l             000000018007d950 f   libucrtd:ismbbyte.obj
 0001:0007c980       _ismbbkpunct               000000018007d980 f   libucrtd:ismbbyte.obj
 0001:0007c9b0       _ismbbkpunct_l             000000018007d9b0 f   libucrtd:ismbbyte.obj
 0001:0007c9e0       _ismbblead                 000000018007d9e0 f   libucrtd:ismbbyte.obj
 0001:0007ca10       _ismbblead_l               000000018007da10 f   libucrtd:ismbbyte.obj
 0001:0007ca40       _ismbbprint                000000018007da40 f   libucrtd:ismbbyte.obj
 0001:0007ca70       _ismbbprint_l              000000018007da70 f   libucrtd:ismbbyte.obj
 0001:0007caa0       _ismbbpunct                000000018007daa0 f   libucrtd:ismbbyte.obj
 0001:0007cad0       _ismbbpunct_l              000000018007dad0 f   libucrtd:ismbbyte.obj
 0001:0007cb00       _ismbbtrail                000000018007db00 f   libucrtd:ismbbyte.obj
 0001:0007cb30       _ismbbtrail_l              000000018007db30 f   libucrtd:ismbbyte.obj
 0001:0007cb60       __acrt_initialize_command_line 000000018007db60 f   libucrtd:argv_data.obj
 0001:0007cb90       __acrt_uninitialize_command_line 000000018007db90 f   libucrtd:argv_data.obj
 0001:0007cba0       __p___argc                 000000018007dba0 f   libucrtd:argv_data.obj
 0001:0007cbb0       __p___argv                 000000018007dbb0 f   libucrtd:argv_data.obj
 0001:0007cbc0       __p___wargv                000000018007dbc0 f   libucrtd:argv_data.obj
 0001:0007cbd0       __p__acmdln                000000018007dbd0 f   libucrtd:argv_data.obj
 0001:0007cbe0       __p__pgmptr                000000018007dbe0 f   libucrtd:argv_data.obj
 0001:0007cbf0       __p__wcmdln                000000018007dbf0 f   libucrtd:argv_data.obj
 0001:0007cc00       __p__wpgmptr               000000018007dc00 f   libucrtd:argv_data.obj
 0001:0007cc10       _get_pgmptr                000000018007dc10 f   libucrtd:argv_data.obj
 0001:0007cd80       _get_wpgmptr               000000018007dd80 f   libucrtd:argv_data.obj
 0001:0007d3f0       wcscpy_s                   000000018007e3f0 f   libucrtd:wcscpy_s.obj
 0001:0007d4c0       __acrt_MultiByteToWideChar 000000018007e4c0 f   libucrtd:multibytetowidechar.obj
 0001:0007d5c0       __acrt_WideCharToMultiByte 000000018007e5c0 f   libucrtd:widechartomultibyte.obj
 0001:0007d860       __dcrt_get_narrow_environment_from_os 000000018007e860 f   libucrtd:get_environment_from_os.obj
 0001:0007da90       __dcrt_get_wide_environment_from_os 000000018007ea90 f   libucrtd:get_environment_from_os.obj
 0001:0007f2d0       ??$get_or_create_environment_nolock@$$V@?$__crt_char_traits@D@@SAPEAPEADXZ 00000001800802d0 f i libucrtd:setenv.obj
 0001:0007f2e0       ??$get_or_create_environment_nolock@$$V@?$__crt_char_traits@_W@@SAPEAPEA_WXZ 00000001800802e0 f i libucrtd:setenv.obj
 0001:0007f2f0       ??$set_environment_variable@AEBQEADQEAD@?$__crt_char_traits@D@@SAHAEBQEAD$$QEBQEAD@Z 00000001800802f0 f i libucrtd:setenv.obj
 0001:0007f320       ??$set_environment_variable@AEBQEA_WQEA_W@?$__crt_char_traits@_W@@SAHAEBQEA_W$$QEBQEA_W@Z 0000000180080320 f i libucrtd:setenv.obj
 0001:0007f350       ??$tcschr@AEBQEADD@?$__crt_char_traits@D@@SAPEADAEBQEAD$$QEAD@Z 0000000180080350 f i libucrtd:setenv.obj
 0001:0007f390       ??$tcschr@AEBQEA_WD@?$__crt_char_traits@_W@@SAPEA_WAEBQEA_W$$QEAD@Z 0000000180080390 f i libucrtd:setenv.obj
 0001:0007f3d0       ??$tcscpy_s@AEAPEADAEB_KAEAPEAD@?$__crt_char_traits@D@@SAHAEAPEADAEB_K0@Z 00000001800803d0 f i libucrtd:setenv.obj
 0001:0007f410       ??$tcscpy_s@AEAPEA_WAEB_KAEAPEA_W@?$__crt_char_traits@_W@@SAHAEAPEA_WAEB_K0@Z 0000000180080410 f i libucrtd:setenv.obj
 0001:0007f450       ??$tcscpy_s@AEBQEADAEB_KAEBQEAD@?$__crt_char_traits@D@@SAHAEBQEADAEB_K0@Z 0000000180080450 f i libucrtd:setenv.obj
 0001:0007f490       ??$tcscpy_s@AEBQEA_WAEB_KAEBQEA_W@?$__crt_char_traits@_W@@SAHAEBQEA_WAEB_K0@Z 0000000180080490 f i libucrtd:setenv.obj
 0001:0007f4d0       ??$tcslen@AEBQEAD@?$__crt_char_traits@D@@SA_KAEBQEAD@Z 00000001800804d0 f i libucrtd:setenv.obj
 0001:0007f4f0       ??$tcslen@AEBQEA_W@?$__crt_char_traits@_W@@SA_KAEBQEA_W@Z 00000001800804f0 f i libucrtd:setenv.obj
 0001:0007f510       ??$tcsnicoll@AEBQEBDAEAPEADAEB_K@?$__crt_char_traits@D@@SAHAEBQEBDAEAPEADAEB_K@Z 0000000180080510 f i libucrtd:setenv.obj
 0001:0007f550       ??$tcsnicoll@AEBQEB_WAEAPEA_WAEB_K@?$__crt_char_traits@_W@@SAHAEBQEB_WAEAPEA_WAEB_K@Z 0000000180080550 f i libucrtd:setenv.obj
 0001:0007f590       ??$tcsnlen@PEADH@?$__crt_char_traits@D@@SA_K$$QEAPEAD$$QEAH@Z 0000000180080590 f i libucrtd:setenv.obj
 0001:0007f5c0       ??$tcsnlen@PEA_WH@?$__crt_char_traits@_W@@SA_K$$QEAPEA_W$$QEAH@Z 00000001800805c0 f i libucrtd:setenv.obj
 0001:0007f690       ?strchr@@YAPEADQEADH@Z     0000000180080690 f i libucrtd:setenv.obj
 0001:0007f6b0       ?wcschr@@YAPEA_WPEA_W_W@Z  00000001800806b0 f i libucrtd:setenv.obj
 0001:0007f6e0       __dcrt_set_variable_in_narrow_environment_nolock 00000001800806e0 f   libucrtd:setenv.obj
 0001:0007f700       __dcrt_set_variable_in_wide_environment_nolock 0000000180080700 f   libucrtd:setenv.obj
 0001:0007f720       __acrt_getheap             0000000180080720 f   libucrtd:heap_handle.obj
 0001:0007f780       __acrt_initialize_heap     0000000180080780 f   libucrtd:heap_handle.obj
 0001:0007f7b0       __acrt_uninitialize_heap   00000001800807b0 f   libucrtd:heap_handle.obj
 0001:0007f7d0       _get_heap_handle           00000001800807d0 f   libucrtd:heap_handle.obj
 0001:0007f830       __acrt_execute_initializers 0000000180080830 f   libucrtd:shared_initialization.obj
 0001:0007f930       __acrt_execute_uninitializers 0000000180080930 f   libucrtd:shared_initialization.obj
 0001:0007f9c0       ??$?B$$A6AH_K@Z@__crt_fast_encoded_nullptr_t@@QEBAP6AH_K@ZXZ 00000001800809c0 f i libucrtd:new_handler.obj
 0001:0007f9e0       ??$__crt_fast_decode_pointer@P6AH_K@Z@@YAP6AH_K@ZQ6AH0@Z@Z 00000001800809e0 f i libucrtd:new_handler.obj
 0001:0007fa20       ??$__crt_fast_encode_pointer@P6AH_K@Z@@YAP6AH_K@ZQ6AH0@Z@Z 0000000180080a20 f i libucrtd:new_handler.obj
 0001:0007fa60       ?_set_new_handler@@YAP6AH_K@ZH@Z 0000000180080a60 f   libucrtd:new_handler.obj
 0001:0007fad0       ?initialize@?$dual_state_global@P6AH_K@Z@__crt_state_management@@QEAAXQ6AH_K@Z@Z 0000000180080ad0 f i libucrtd:new_handler.obj
 0001:0007fb20       ?value@?$dual_state_global@P6AH_K@Z@__crt_state_management@@QEAAAEAP6AH_K@ZXZ 0000000180080b20 f i libucrtd:new_handler.obj
 0001:0007fb40       __acrt_initialize_new_handler 0000000180080b40 f   libucrtd:new_handler.obj
 0001:0007fb60       _callnewh                  0000000180080b60 f   libucrtd:new_handler.obj
 0001:0007fbc0       _query_new_handler         0000000180080bc0 f   libucrtd:new_handler.obj
 0001:0007fc00       _set_new_handler           0000000180080c00 f   libucrtd:new_handler.obj
 0001:0007fc70       ??$?B$$A6AXH@Z@__crt_fast_encoded_nullptr_t@@QEBAP6AXH@ZXZ 0000000180080c70 f i libucrtd:signal.obj
 0001:0007fd40       ??$__crt_fast_decode_pointer@P6AXH@Z@@YAP6AXH@ZQ6AXH@Z@Z 0000000180080d40 f i libucrtd:signal.obj
 0001:0007fd80       ??$__crt_fast_encode_pointer@P6AXH@Z@@YAP6AXH@ZQ6AXH@Z@Z 0000000180080d80 f i libucrtd:signal.obj
 0001:00080010       ?initialize@?$dual_state_global@P6AXH@Z@__crt_state_management@@QEAAXQ6AXH@Z@Z 0000000180081010 f i libucrtd:signal.obj
 0001:00080190       ?value@?$dual_state_global@P6AXH@Z@__crt_state_management@@QEAAAEAP6AXH@ZXZ 0000000180081190 f i libucrtd:signal.obj
 0001:000801b0       __acrt_get_sigabrt_handler 00000001800811b0 f   libucrtd:signal.obj
 0001:000801e0       __acrt_initialize_signal_handlers 00000001800811e0 f   libucrtd:signal.obj
 0001:00080240       __fpecode                  0000000180081240 f   libucrtd:signal.obj
 0001:00080260       __pxcptinfoptrs            0000000180081260 f   libucrtd:signal.obj
 0001:00080280       raise                      0000000180081280 f   libucrtd:signal.obj
 0001:00080770       signal                     0000000180081770 f   libucrtd:signal.obj
 0001:00080a40       ??$__crt_fast_decode_pointer@P6AHPEAU_exception@@@Z@@YAP6AHPEAU_exception@@@ZQ6AH0@Z@Z 0000000180081a40 f i libucrtd:matherr.obj
 0001:00080a80       ??$__crt_fast_encode_pointer@P6AHPEAU_exception@@@Z@@YAP6AHPEAU_exception@@@ZQ6AH0@Z@Z 0000000180081a80 f i libucrtd:matherr.obj
 0001:00080ac0       ?initialize@?$dual_state_global@P6AHPEAU_exception@@@Z@__crt_state_management@@QEAAXQ6AHPEAU_exception@@@Z@Z 0000000180081ac0 f i libucrtd:matherr.obj
 0001:00080b10       ?value@?$dual_state_global@P6AHPEAU_exception@@@Z@__crt_state_management@@QEAAAEAP6AHPEAU_exception@@@ZXZ 0000000180081b10 f i libucrtd:matherr.obj
 0001:00080b30       __acrt_has_user_matherr    0000000180081b30 f   libucrtd:matherr.obj
 0001:00080b70       __acrt_initialize_user_matherr 0000000180081b70 f   libucrtd:matherr.obj
 0001:00080b90       __acrt_invoke_user_matherr 0000000180081b90 f   libucrtd:matherr.obj
 0001:00080c00       __setusermatherr           0000000180081c00 f   libucrtd:matherr.obj
 0001:00080c40       _chvalidator               0000000180081c40 f   libucrtd:isctype.obj
 0001:00080cb0       _chvalidator_l             0000000180081cb0 f   libucrtd:isctype.obj
 0001:00080d60       _isctype                   0000000180081d60 f   libucrtd:isctype.obj
 0001:00080db0       _isctype_l                 0000000180081db0 f   libucrtd:isctype.obj
 0001:00080fe0       _isleadbyte_fast_internal  0000000180081fe0 f i libucrtd:isctype.obj
 0001:00081020       _free_base                 0000000180082020 f   libucrtd:free_base.obj
 0001:00081080       _realloc_base              0000000180082080 f   libucrtd:realloc_base.obj
 0001:000811a0       _expand                    00000001800821a0 f   libucrtd:expand.obj
 0001:000811e0       _expand_base               00000001800821e0 f   libucrtd:expand.obj
 0001:00081370       ?value@?$dual_state_global@J@__crt_state_management@@QEAAAEAJXZ 0000000180082370 f i libucrtd:new_mode.obj
 0001:00081390       _query_new_mode            0000000180082390 f   libucrtd:new_mode.obj
 0001:000813b0       _set_new_mode              00000001800823b0 f   libucrtd:new_mode.obj
 0001:00081480       _CrtDefaultAllocHook       0000000180082480 f   libucrtd:debug_heap_hook.obj
 0001:00081670       __acrt_report_runtime_error 0000000180082670 f   libucrtd:report_runtime_error.obj
 0001:000818f0       _query_app_type            00000001800828f0 f   libucrtd:report_runtime_error.obj
 0001:00081900       _set_app_type              0000000180082900 f   libucrtd:report_runtime_error.obj
 0001:00081910       _iswctype_l                0000000180082910 f   libucrtd:iswctype.obj
 0001:00081940       iswctype                   0000000180082940 f   libucrtd:iswctype.obj
 0001:000819d0       _CrtGetReportHook          00000001800829d0 f   libucrtd:dbgrptt.obj
 0001:000819e0       _CrtSetReportFile          00000001800829e0 f   libucrtd:dbgrptt.obj
 0001:00081b40       _CrtSetReportHook          0000000180082b40 f   libucrtd:dbgrptt.obj
 0001:00081b70       _CrtSetReportMode          0000000180082b70 f   libucrtd:dbgrptt.obj
 0001:00081d20       _VCrtDbgReportA            0000000180082d20 f   libucrtd:dbgrptt.obj
 0001:00082760       _VCrtDbgReportW            0000000180083760 f   libucrtd:dbgrptt.obj
 0001:00083370       _snprintf_s                0000000180084370 f i libucrtd:dbgrptt.obj
 0001:000833e0       _vsnprintf_s               00000001800843e0 f i libucrtd:dbgrptt.obj
 0001:00083430       _vsnprintf_s_l             0000000180084430 f i libucrtd:dbgrptt.obj
 0001:00083730       ??$message_box@$$TAEBQEBDAEBQEBDK@?$__crt_char_traits@D@@SAH$$QEA$$TAEBQEBD1$$QEAK@Z 0000000180084730 f i libucrtd:crtmbox.obj
 0001:00083780       ??$message_box@$$TAEBQEB_WAEBQEB_WK@?$__crt_char_traits@_W@@SAH$$QEA$$TAEBQEB_W1$$QEAK@Z 0000000180084780 f i libucrtd:crtmbox.obj
 0001:000837d0       ??$message_box@PEAUHWND__@@AEBQEBDAEBQEBDAEBI@?$__crt_char_traits@D@@SAH$$QEAPEAUHWND__@@AEBQEBD1AEBI@Z 00000001800847d0 f i libucrtd:crtmbox.obj
 0001:00083820       ??$message_box@PEAUHWND__@@AEBQEB_WAEBQEB_WAEBI@?$__crt_char_traits@_W@@SAH$$QEAPEAUHWND__@@AEBQEB_W1AEBI@Z 0000000180084820 f i libucrtd:crtmbox.obj
 0001:00083870       ??$output_debug_string@AEBQEBD@?$__crt_char_traits@D@@SAXAEBQEBD@Z 0000000180084870 f i libucrtd:crtmbox.obj
 0001:00083890       ??$output_debug_string@AEBQEB_W@?$__crt_char_traits@_W@@SAXAEBQEB_W@Z 0000000180084890 f i libucrtd:crtmbox.obj
 0001:000838b0       __acrt_show_narrow_message_box 00000001800848b0 f   libucrtd:crtmbox.obj
 0001:000838e0       __acrt_show_wide_message_box 00000001800848e0 f   libucrtd:crtmbox.obj
 0001:00083a50       __acrt_DownlevelLCIDToLocaleName 0000000180084a50 f   libucrtd:lcidtoname_downlevel.obj
 0001:00083b50       __acrt_DownlevelLocaleNameToLCID 0000000180084b50 f   libucrtd:lcidtoname_downlevel.obj
 0001:00083ec0       _fclose_nolock             0000000180084ec0 f   libucrtd:fclose.obj
 0001:00083f00       fclose                     0000000180084f00 f   libucrtd:fclose.obj
 0001:00084160       _commit                    0000000180085160 f   libucrtd:commit.obj
 0001:00085b50       _utf8_no_of_trailbytes     0000000180086b50 f i libucrtd:write.obj
 0001:00085b70       _write                     0000000180086b70 f   libucrtd:write.obj
 0001:00085bd0       _write_internal            0000000180086bd0 f   libucrtd:write.obj
 0001:00085f70       _write_nolock              0000000180086f70 f   libucrtd:write.obj
 0001:00086650       ??$?RU__crt_lowio_handle_data@@@__crt_internal_free_policy@@QEBAXQEBU__crt_lowio_handle_data@@@Z 0000000180087650 f i libucrtd:osfinfo.obj
 0001:00086680       ??0?$__crt_unique_heap_ptr@U__crt_lowio_handle_data@@U__crt_internal_free_policy@@@@QEAA@QEAU__crt_lowio_handle_data@@@Z 0000000180087680 f i libucrtd:osfinfo.obj
 0001:000866a0       ??1?$__crt_unique_heap_ptr@U__crt_lowio_handle_data@@U__crt_internal_free_policy@@@@QEAA@XZ 00000001800876a0 f i libucrtd:osfinfo.obj
 0001:000866c0       ??B?$__crt_unique_heap_ptr@U__crt_lowio_handle_data@@U__crt_internal_free_policy@@@@QEBA_NXZ 00000001800876c0 f i libucrtd:osfinfo.obj
 0001:000866e0       ?detach@?$__crt_unique_heap_ptr@U__crt_lowio_handle_data@@U__crt_internal_free_policy@@@@QEAAPEAU__crt_lowio_handle_data@@XZ 00000001800876e0 f i libucrtd:osfinfo.obj
 0001:00086710       ?get@?$__crt_unique_heap_ptr@U__crt_lowio_handle_data@@U__crt_internal_free_policy@@@@QEBAPEAU__crt_lowio_handle_data@@XZ 0000000180087710 f i libucrtd:osfinfo.obj
 0001:00086720       ?is_valid@?$__crt_unique_heap_ptr@U__crt_lowio_handle_data@@U__crt_internal_free_policy@@@@QEBA_NXZ 0000000180087720 f i libucrtd:osfinfo.obj
 0001:00086750       ?release@?$__crt_unique_heap_ptr@U__crt_lowio_handle_data@@U__crt_internal_free_policy@@@@QEAAXXZ 0000000180087750 f i libucrtd:osfinfo.obj
 0001:00086780       __acrt_lowio_create_handle_array 0000000180087780 f   libucrtd:osfinfo.obj
 0001:00086940       __acrt_lowio_destroy_handle_array 0000000180087940 f   libucrtd:osfinfo.obj
 0001:000869c0       __acrt_lowio_ensure_fh_exists 00000001800879c0 f   libucrtd:osfinfo.obj
 0001:00086b20       __acrt_lowio_lock_fh       0000000180087b20 f   libucrtd:osfinfo.obj
 0001:00086b60       __acrt_lowio_set_os_handle 0000000180087b60 f   libucrtd:osfinfo.obj
 0001:00086c70       __acrt_lowio_unlock_fh     0000000180087c70 f   libucrtd:osfinfo.obj
 0001:00086cb0       _alloc_osfhnd              0000000180087cb0 f   libucrtd:osfinfo.obj
 0001:00086ec0       _free_osfhnd               0000000180087ec0 f   libucrtd:osfinfo.obj
 0001:00086ff0       _get_osfhandle             0000000180087ff0 f   libucrtd:osfinfo.obj
 0001:000871f0       _open_osfhandle            00000001800881f0 f   libucrtd:osfinfo.obj
 0001:00087410       __acrt_add_locale_ref      0000000180088410 f   libucrtd:locale_refcounting.obj
 0001:00087570       __acrt_free_locale         0000000180088570 f   libucrtd:locale_refcounting.obj
 0001:000878f0       __acrt_locale_add_lc_time_reference 00000001800888f0 f   libucrtd:locale_refcounting.obj
 0001:00087930       __acrt_locale_free_lc_time_if_unreferenced 0000000180088930 f   libucrtd:locale_refcounting.obj
 0001:00087990       __acrt_locale_release_lc_time_reference 0000000180088990 f   libucrtd:locale_refcounting.obj
 0001:000879d0       __acrt_release_locale_ref  00000001800889d0 f   libucrtd:locale_refcounting.obj
 0001:00087b40       __acrt_update_thread_locale_data 0000000180088b40 f   libucrtd:locale_refcounting.obj
 0001:00087be0       _updatetlocinfoEx_nolock   0000000180088be0 f   libucrtd:locale_refcounting.obj
 0001:00087e30       __acrt_fp_strflt_to_string 0000000180088e30 f   libucrtd:_fptostr.obj
 0001:000889f0       ??0big_integer@__crt_strtox@@QEAA@AEBU01@@Z 00000001800899f0 f i libucrtd:cfout.obj
 0001:00088a50       ??0big_integer@__crt_strtox@@QEAA@XZ 0000000180089a50 f i libucrtd:cfout.obj
 0001:00088b10       ??4big_integer@__crt_strtox@@QEAAAEAU01@AEBU01@@Z 0000000180089b10 f i libucrtd:cfout.obj
 0001:00088b70       ??8__crt_strtox@@YA_NAEBUbig_integer@0@0@Z 0000000180089b70 f i libucrtd:cfout.obj
 0001:00088be0       ??9__crt_strtox@@YA_NAEBUbig_integer@0@0@Z 0000000180089be0 f i libucrtd:cfout.obj
 0001:00088c20       ?add_carry@__crt_strtox@@YAIAEAIII@Z 0000000180089c20 f i libucrtd:cfout.obj
 0001:00088c70       ?add_multiply_carry@__crt_strtox@@YAIAEAIIII@Z 0000000180089c70 f i libucrtd:cfout.obj
 0001:00088cd0       ?bit_scan_reverse@__crt_strtox@@YAII@Z 0000000180089cd0 f i libucrtd:cfout.obj
 0001:00088d10       ?count_sequential_high_zeroes@__crt_strtox@@YAII@Z 0000000180089d10 f i libucrtd:cfout.obj
 0001:00088d50       ?divide@__crt_strtox@@YA_KAEAUbig_integer@1@AEBU21@@Z 0000000180089d50 f i libucrtd:cfout.obj
 0001:00089720       ?is_zero@__crt_strtox@@YA_NAEBUbig_integer@1@@Z 000000018008a720 f i libucrtd:cfout.obj
 0001:00089750       ?make_big_integer@__crt_strtox@@YA?AUbig_integer@1@_K@Z 000000018008a750 f i libucrtd:cfout.obj
 0001:00089820       ?make_big_integer_power_of_two@__crt_strtox@@YA?AUbig_integer@1@I@Z 000000018008a820 f i libucrtd:cfout.obj
 0001:000898f0       ?multiply@__crt_strtox@@YA_NAEAUbig_integer@1@AEBU21@@Z 000000018008a8f0 f i libucrtd:cfout.obj
 0001:00089c70       ?multiply@__crt_strtox@@YA_NAEAUbig_integer@1@I@Z 000000018008ac70 f i libucrtd:cfout.obj
 0001:00089d90       ?multiply_64_32@__crt_strtox@@YA_K_KI@Z 000000018008ad90 f i libucrtd:cfout.obj
 0001:00089db0       ?multiply_by_power_of_ten@__crt_strtox@@YA_NAEAUbig_integer@1@I@Z 000000018008adb0 f i libucrtd:cfout.obj
 0001:00089f60       ?multiply_core@__crt_strtox@@YAIQEAIII@Z 000000018008af60 f i libucrtd:cfout.obj
 0001:00089fe0       ?shift_left@__crt_strtox@@YA_NAEAUbig_integer@1@I@Z 000000018008afe0 f i libucrtd:cfout.obj
 0001:0008a2c0       __acrt_fltout              000000018008b2c0 f   libucrtd:cfout.obj
 0001:0008a7c0       __fpe_flt_rounds           000000018008b7c0 f   libucrtd:fegetround.obj
 0001:0008a820       fegetround                 000000018008b820 f   libucrtd:fegetround.obj
 0001:0008a840       ??$?RG@__crt_internal_free_policy@@QEBAXQEBG@Z 000000018008b840 f i libucrtd:initctype.obj
 0001:0008a870       ??$?RJ@__crt_internal_free_policy@@QEBAXQEBJ@Z 000000018008b870 f i libucrtd:initctype.obj
 0001:0008a8a0       ??0?$__crt_unique_heap_ptr@GU__crt_internal_free_policy@@@@QEAA@QEAG@Z 000000018008b8a0 f i libucrtd:initctype.obj
 0001:0008a8c0       ??0?$__crt_unique_heap_ptr@JU__crt_internal_free_policy@@@@QEAA@QEAJ@Z 000000018008b8c0 f i libucrtd:initctype.obj
 0001:0008a8e0       ??1?$__crt_unique_heap_ptr@GU__crt_internal_free_policy@@@@QEAA@XZ 000000018008b8e0 f i libucrtd:initctype.obj
 0001:0008a900       ??1?$__crt_unique_heap_ptr@JU__crt_internal_free_policy@@@@QEAA@XZ 000000018008b900 f i libucrtd:initctype.obj
 0001:0008a920       ?detach@?$__crt_unique_heap_ptr@GU__crt_internal_free_policy@@@@QEAAPEAGXZ 000000018008b920 f i libucrtd:initctype.obj
 0001:0008a950       ?detach@?$__crt_unique_heap_ptr@JU__crt_internal_free_policy@@@@QEAAPEAJXZ 000000018008b950 f i libucrtd:initctype.obj
 0001:0008a980       ?release@?$__crt_unique_heap_ptr@GU__crt_internal_free_policy@@@@QEAAXXZ 000000018008b980 f i libucrtd:initctype.obj
 0001:0008a9b0       ?release@?$__crt_unique_heap_ptr@JU__crt_internal_free_policy@@@@QEAAXXZ 000000018008b9b0 f i libucrtd:initctype.obj
 0001:0008a9e0       ___lc_codepage_func        000000018008b9e0 f   libucrtd:initctype.obj
 0001:0008aa20       ___lc_collate_cp_func      000000018008ba20 f   libucrtd:initctype.obj
 0001:0008aa60       ___lc_locale_name_func     000000018008ba60 f   libucrtd:initctype.obj
 0001:0008aaa0       ___mb_cur_max_func         000000018008baa0 f   libucrtd:initctype.obj
 0001:0008aae0       ___mb_cur_max_l_func       000000018008bae0 f   libucrtd:initctype.obj
 0001:0008ab20       __acrt_locale_initialize_ctype 000000018008bb20 f   libucrtd:initctype.obj
 0001:0008b5d0       ?__c32rtomb_utf8@__crt_mbstring@@YA_KPEAD_UPEAU_Mbstatet@@AEAV__crt_cached_ptd_host@@@Z 000000018008c5d0 f   libucrtd:c32rtomb.obj
 0001:0008b870       c32rtomb                   000000018008c870 f   libucrtd:c32rtomb.obj
 0001:0008b8d0       __iswcsym                  000000018008c8d0 f i libucrtd:_wctype.obj
 0001:0008b910       __iswcsymf                 000000018008c910 f i libucrtd:_wctype.obj
 0001:0008b950       _isleadbyte_l              000000018008c950 f i libucrtd:_wctype.obj
 0001:0008b9b0       _iswalnum_l                000000018008c9b0 f i libucrtd:_wctype.obj
 0001:0008b9e0       _iswalpha_l                000000018008c9e0 f i libucrtd:_wctype.obj
 0001:0008ba10       _iswblank_l                000000018008ca10 f i libucrtd:_wctype.obj
 0001:0008ba50       _iswcntrl_l                000000018008ca50 f i libucrtd:_wctype.obj
 0001:0008ba80       _iswcsym_l                 000000018008ca80 f i libucrtd:_wctype.obj
 0001:0008bad0       _iswcsymf_l                000000018008cad0 f i libucrtd:_wctype.obj
 0001:0008bb20       _iswdigit_l                000000018008cb20 f i libucrtd:_wctype.obj
 0001:0008bb50       _iswgraph_l                000000018008cb50 f i libucrtd:_wctype.obj
 0001:0008bb80       _iswlower_l                000000018008cb80 f i libucrtd:_wctype.obj
 0001:0008bbb0       _iswprint_l                000000018008cbb0 f i libucrtd:_wctype.obj
 0001:0008bbe0       _iswpunct_l                000000018008cbe0 f i libucrtd:_wctype.obj
 0001:0008bc10       _iswspace_l                000000018008cc10 f i libucrtd:_wctype.obj
 0001:0008bc40       _iswupper_l                000000018008cc40 f i libucrtd:_wctype.obj
 0001:0008bc70       _iswxdigit_l               000000018008cc70 f i libucrtd:_wctype.obj
 0001:0008bca0       isleadbyte                 000000018008cca0 f i libucrtd:_wctype.obj
 0001:0008bcc0       iswalnum                   000000018008ccc0 f i libucrtd:_wctype.obj
 0001:0008bce0       iswalpha                   000000018008cce0 f i libucrtd:_wctype.obj
 0001:0008bd00       iswascii                   000000018008cd00 f i libucrtd:_wctype.obj
 0001:0008bd30       iswblank                   000000018008cd30 f i libucrtd:_wctype.obj
 0001:0008bd70       iswcntrl                   000000018008cd70 f i libucrtd:_wctype.obj
 0001:0008bd90       iswdigit                   000000018008cd90 f i libucrtd:_wctype.obj
 0001:0008bdb0       iswgraph                   000000018008cdb0 f i libucrtd:_wctype.obj
 0001:0008bdd0       iswlower                   000000018008cdd0 f i libucrtd:_wctype.obj
 0001:0008bdf0       iswprint                   000000018008cdf0 f i libucrtd:_wctype.obj
 0001:0008be10       iswpunct                   000000018008ce10 f i libucrtd:_wctype.obj
 0001:0008be30       iswspace                   000000018008ce30 f i libucrtd:_wctype.obj
 0001:0008be50       iswupper                   000000018008ce50 f i libucrtd:_wctype.obj
 0001:0008be70       iswxdigit                  000000018008ce70 f i libucrtd:_wctype.obj
 0001:0008bf00       ?__mbrtowc_utf8@__crt_mbstring@@YA_KPEA_WPEBD_KPEAU_Mbstatet@@AEAV__crt_cached_ptd_host@@@Z 000000018008cf00 f   libucrtd:mbrtowc.obj
 0001:0008bf80       ?__mbsrtowcs_utf8@__crt_mbstring@@YA_KPEA_WPEAPEBD_KPEAU_Mbstatet@@AEAV__crt_cached_ptd_host@@@Z 000000018008cf80 f   libucrtd:mbrtowc.obj
 0001:0008d150       btowc                      000000018008e150 f   libucrtd:mbrtowc.obj
 0001:0008d220       mbrlen                     000000018008e220 f   libucrtd:mbrtowc.obj
 0001:0008d2d0       mbrtowc                    000000018008e2d0 f   libucrtd:mbrtowc.obj
 0001:0008d3e0       mbsrtowcs                  000000018008e3e0 f   libucrtd:mbrtowc.obj
 0001:0008d460       mbsrtowcs_s                000000018008e460 f   libucrtd:mbrtowc.obj
 0001:0008df10       ?has_big_buffer@__crt_stdio_stream@@QEBA_NXZ 000000018008ef10 f i libucrtd:_flsbuf.obj
 0001:0008e030       __acrt_stdio_flush_and_write_narrow_nolock 000000018008f030 f   libucrtd:_flsbuf.obj
 0001:0008e070       __acrt_stdio_flush_and_write_wide_nolock 000000018008f070 f   libucrtd:_flsbuf.obj
 0001:0008e0b0       _isatty                    000000018008f0b0 f   libucrtd:isatty.obj
 0001:0008e1c0       ??$?RUlconv@@@__crt_internal_free_policy@@QEBAXQEBUlconv@@@Z 000000018008f1c0 f i libucrtd:initmon.obj
 0001:0008e1f0       ??0?$__crt_unique_heap_ptr@Ulconv@@U__crt_internal_free_policy@@@@QEAA@QEAUlconv@@@Z 000000018008f1f0 f i libucrtd:initmon.obj
 0001:0008e210       ??1?$__crt_unique_heap_ptr@Ulconv@@U__crt_internal_free_policy@@@@QEAA@XZ 000000018008f210 f i libucrtd:initmon.obj
 0001:0008e230       ?detach@?$__crt_unique_heap_ptr@Ulconv@@U__crt_internal_free_policy@@@@QEAAPEAUlconv@@XZ 000000018008f230 f i libucrtd:initmon.obj
 0001:0008e260       ?release@?$__crt_unique_heap_ptr@Ulconv@@U__crt_internal_free_policy@@@@QEAAXXZ 000000018008f260 f i libucrtd:initmon.obj
 0001:0008e290       __acrt_locale_free_monetary 000000018008f290 f   libucrtd:initmon.obj
 0001:0008e4a0       __acrt_locale_initialize_monetary 000000018008f4a0 f   libucrtd:initmon.obj
 0001:0008ee50       __acrt_locale_free_numeric 000000018008fe50 f   libucrtd:initnum.obj
 0001:0008ef30       __acrt_locale_initialize_numeric 000000018008ff30 f   libucrtd:initnum.obj
 0001:0008f540       ??$?RU__crt_lc_time_data@@@__crt_internal_free_policy@@QEBAXQEBU__crt_lc_time_data@@@Z 0000000180090540 f i libucrtd:inittime.obj
 0001:0008f630       ??0?$__crt_unique_heap_ptr@U__crt_lc_time_data@@U__crt_internal_free_policy@@@@QEAA@QEAU__crt_lc_time_data@@@Z 0000000180090630 f i libucrtd:inittime.obj
 0001:0008f650       ??1?$__crt_unique_heap_ptr@U__crt_lc_time_data@@U__crt_internal_free_policy@@@@QEAA@XZ 0000000180090650 f i libucrtd:inittime.obj
 0001:0008f670       ??B?$__crt_unique_heap_ptr@U__crt_lc_time_data@@U__crt_internal_free_policy@@@@QEBA_NXZ 0000000180090670 f i libucrtd:inittime.obj
 0001:0008f690       ?detach@?$__crt_unique_heap_ptr@U__crt_lc_time_data@@U__crt_internal_free_policy@@@@QEAAPEAU__crt_lc_time_data@@XZ 0000000180090690 f i libucrtd:inittime.obj
 0001:0008f720       ?get@?$__crt_unique_heap_ptr@U__crt_lc_time_data@@U__crt_internal_free_policy@@@@QEBAPEAU__crt_lc_time_data@@XZ 0000000180090720 f i libucrtd:inittime.obj
 0001:0008fd90       ?is_valid@?$__crt_unique_heap_ptr@U__crt_lc_time_data@@U__crt_internal_free_policy@@@@QEBA_NXZ 0000000180090d90 f i libucrtd:inittime.obj
 0001:0008fdc0       ?release@?$__crt_unique_heap_ptr@U__crt_lc_time_data@@U__crt_internal_free_policy@@@@QEAAXXZ 0000000180090dc0 f i libucrtd:inittime.obj
 0001:0008fdf0       __acrt_locale_free_time    0000000180090df0 f   libucrtd:inittime.obj
 0001:0008ff60       __acrt_locale_initialize_time 0000000180090f60 f   libucrtd:inittime.obj
 0001:00090000       __pctype_func              0000000180091000 f   libucrtd:ctype.obj
 0001:00090040       __pwctype_func             0000000180091040 f   libucrtd:ctype.obj
 0001:000906e0       wcscat_s                   00000001800916e0 f   libucrtd:wcscat_s.obj
 0001:00090eb0       wcsncat_s                  0000000180091eb0 f   libucrtd:wcsncat_s.obj
 0001:000915a0       wcsncpy_s                  00000001800925a0 f   libucrtd:wcsncpy_s.obj
 0001:000915e0       wcscmp                     00000001800925e0 f   libucrtd:wcscmp.obj
 0001:00091680       wcscspn                    0000000180092680 f   libucrtd:wcscspn.obj
 0001:00091720       wcspbrk                    0000000180092720 f   libucrtd:wcspbrk.obj
 0001:000917a0       ??0?$__crt_scoped_stack_ptr@_W@@QEAA@U?$__crt_scoped_stack_ptr_tag@_W@@@Z 00000001800927a0 f i libucrtd:getstringtypea.obj
 0001:000917c0       ??0?$__crt_scoped_stack_ptr_tag@_W@@QEAA@QEA_W@Z 00000001800927c0 f i libucrtd:getstringtypea.obj
 0001:000917e0       ??1?$__crt_scoped_stack_ptr@_W@@QEAA@XZ 00000001800927e0 f i libucrtd:getstringtypea.obj
 0001:00091800       ?get@?$__crt_scoped_stack_ptr@_W@@QEBAPEA_WXZ 0000000180092800 f i libucrtd:getstringtypea.obj
 0001:00091810       _MallocaComputeSize        0000000180092810 f i libucrtd:getstringtypea.obj
 0001:00091850       _MarkAllocaS               0000000180092850 f i libucrtd:getstringtypea.obj
 0001:00091880       __acrt_GetStringTypeA      0000000180092880 f   libucrtd:getstringtypea.obj
 0001:00091ae0       _freea_crt                 0000000180092ae0 f i libucrtd:getstringtypea.obj
 0001:00092870       __acrt_get_qualified_locale 0000000180093870 f   libucrtd:get_qualified_locale.obj
 0001:000939e0       __acrt_get_qualified_locale_downlevel 00000001800949e0 f   libucrtd:getqloc_downlevel.obj
 0001:00093d50       localeconv                 0000000180094d50 f   libucrtd:localeconv.obj
 0001:00093f20       qsort                      0000000180094f20 f   libucrtd:qsort.obj
 0001:00094d90       strncpy_s                  0000000180095d90 f   libucrtd:strncpy_s.obj
 0001:00094f00       strpbrk                    0000000180095f00 f   libucrtd:strpbrk.obj
 0001:000957f0       _mbsdec                    00000001800967f0 f   libucrtd:mbsdec.obj
 0001:00095820       _mbsdec_l                  0000000180096820 f   libucrtd:mbsdec.obj
 0001:00095ab0       ??B?$__crt_scoped_stack_ptr@_W@@QEBA_NXZ 0000000180096ab0 f i libucrtd:lcmapstringa.obj
 0001:000960e0       __acrt_LCMapStringA        00000001800970e0 f   libucrtd:lcmapstringa.obj
 0001:000961c0       _wcsnicoll                 00000001800971c0 f   libucrtd:wcsnicol.obj
 0001:00096410       _wcsnicoll_l               0000000180097410 f   libucrtd:wcsnicol.obj
 0001:00096750       _strnicoll                 0000000180097750 f   libucrtd:strnicol.obj
 0001:000967b0       _strnicoll_l               00000001800977b0 f   libucrtd:strnicol.obj
 0001:00096bb0       __acrt_SetEnvironmentVariableA 0000000180097bb0 f   libucrtd:setenvironmentvariablea.obj
 0001:00096cc0       _malloc_base               0000000180097cc0 f   libucrtd:malloc_base.obj
 0001:00096d60       _set_error_mode            0000000180097d60 f   libucrtd:set_error_mode.obj
 0001:00096e60       __acrt_GetStringTypeW      0000000180097e60 f   libucrtd:getstringtypew.obj
 0001:000986e0       _i64toa                    00000001800996e0 f   libucrtd:xtoa.obj
 0001:00098750       _i64toa_s                  0000000180099750 f   libucrtd:xtoa.obj
 0001:000987c0       _i64tow                    00000001800997c0 f   libucrtd:xtoa.obj
 0001:00098830       _i64tow_s                  0000000180099830 f   libucrtd:xtoa.obj
 0001:000988a0       _itoa                      00000001800998a0 f   libucrtd:xtoa.obj
 0001:00098910       _itoa_s                    0000000180099910 f   libucrtd:xtoa.obj
 0001:00098970       _itow                      0000000180099970 f   libucrtd:xtoa.obj
 0001:000989e0       _itow_s                    00000001800999e0 f   libucrtd:xtoa.obj
 0001:00098a40       _ltoa                      0000000180099a40 f   libucrtd:xtoa.obj
 0001:00098ab0       _ltoa_s                    0000000180099ab0 f   libucrtd:xtoa.obj
 0001:00098b10       _ltow                      0000000180099b10 f   libucrtd:xtoa.obj
 0001:00098b80       _ltow_s                    0000000180099b80 f   libucrtd:xtoa.obj
 0001:00098be0       _ui64toa                   0000000180099be0 f   libucrtd:xtoa.obj
 0001:00098c20       _ui64toa_s                 0000000180099c20 f   libucrtd:xtoa.obj
 0001:00098c60       _ui64tow                   0000000180099c60 f   libucrtd:xtoa.obj
 0001:00098ca0       _ui64tow_s                 0000000180099ca0 f   libucrtd:xtoa.obj
 0001:00098ce0       _ultoa                     0000000180099ce0 f   libucrtd:xtoa.obj
 0001:00098d20       _ultoa_s                   0000000180099d20 f   libucrtd:xtoa.obj
 0001:00098d60       _ultow                     0000000180099d60 f   libucrtd:xtoa.obj
 0001:00098da0       _ultow_s                   0000000180099da0 f   libucrtd:xtoa.obj
 0001:000998f0       _mbstowcs_l                000000018009a8f0 f   libucrtd:mbstowcs.obj
 0001:00099960       _mbstowcs_s_l              000000018009a960 f   libucrtd:mbstowcs.obj
 0001:000999f0       mbstowcs                   000000018009a9f0 f   libucrtd:mbstowcs.obj
 0001:00099a50       mbstowcs_s                 000000018009aa50 f   libucrtd:mbstowcs.obj
 0001:0009a8c0       _wcstombs_l                000000018009b8c0 f   libucrtd:wcstombs.obj
 0001:0009a930       _wcstombs_s_l              000000018009b930 f   libucrtd:wcstombs.obj
 0001:0009a9c0       wcstombs                   000000018009b9c0 f   libucrtd:wcstombs.obj
 0001:0009aa20       wcstombs_s                 000000018009ba20 f   libucrtd:wcstombs.obj
 0001:0009b110       strcat_s                   000000018009c110 f   libucrtd:strcat_s.obj
 0001:0009b140       __acrt_OutputDebugStringA  000000018009c140 f   libucrtd:outputdebugstringa.obj
 0001:0009b200       __ascii_wcsnicmp           000000018009c200 f   libucrtd:wcsnicmp.obj
 0001:0009b2d0       _towlower_fast_internal    000000018009c2d0 f i libucrtd:wcsnicmp.obj
 0001:0009b320       _towlower_internal         000000018009c320 f i libucrtd:wcsnicmp.obj
 0001:0009b360       _wcsnicmp                  000000018009c360 f   libucrtd:wcsnicmp.obj
 0001:0009b510       _wcsnicmp_l                000000018009c510 f   libucrtd:wcsnicmp.obj
 0001:0009bb40       _close                     000000018009cb40 f   libucrtd:close.obj
 0001:0009bb80       _close_internal            000000018009cb80 f   libucrtd:close.obj
 0001:0009be40       _close_nolock              000000018009ce40 f   libucrtd:close.obj
 0001:0009be80       _close_nolock_internal     000000018009ce80 f   libucrtd:close.obj
 0001:0009bef0       ??$?RU__crt_stdio_stream_data@@@__crt_internal_free_policy@@QEBAXQEBU__crt_stdio_stream_data@@@Z 000000018009cef0 f i libucrtd:stream.obj
 0001:0009bf20       ??0?$__crt_unique_heap_ptr@U__crt_stdio_stream_data@@U__crt_internal_free_policy@@@@QEAA@QEAU__crt_stdio_stream_data@@@Z 000000018009cf20 f i libucrtd:stream.obj
 0001:0009bf40       ??0__crt_stdio_stream@@QEAA@XZ 000000018009cf40 f i libucrtd:stream.obj
 0001:0009bf60       ??1?$__crt_unique_heap_ptr@U__crt_stdio_stream_data@@U__crt_internal_free_policy@@@@QEAA@XZ 000000018009cf60 f i libucrtd:stream.obj
 0001:0009bf80       ?__acrt_stdio_allocate_stream@@YA?AV__crt_stdio_stream@@XZ 000000018009cf80 f   libucrtd:stream.obj
 0001:0009c040       ?__acrt_stdio_free_stream@@YAXV__crt_stdio_stream@@@Z 000000018009d040 f   libucrtd:stream.obj
 0001:0009c0e0       ?deallocate@__crt_stdio_stream@@QEAAXXZ 000000018009d0e0 f i libucrtd:stream.obj
 0001:0009c100       ?detach@?$__crt_unique_heap_ptr@U__crt_stdio_stream_data@@U__crt_internal_free_policy@@@@QEAAPEAU__crt_stdio_stream_data@@XZ 000000018009d100 f i libucrtd:stream.obj
 0001:0009c2e0       ?lock@__crt_stdio_stream@@QEBAXXZ 000000018009d2e0 f i libucrtd:stream.obj
 0001:0009c300       ?release@?$__crt_unique_heap_ptr@U__crt_stdio_stream_data@@U__crt_internal_free_policy@@@@QEAAXXZ 000000018009d300 f i libucrtd:stream.obj
 0001:0009c330       ?try_allocate@__crt_stdio_stream@@QEAA_NXZ 000000018009d330 f i libucrtd:stream.obj
 0001:0009c3a0       ?unlock@__crt_stdio_stream@@QEBAXXZ 000000018009d3a0 f i libucrtd:stream.obj
 0001:0009cef0       _lseek                     000000018009def0 f   libucrtd:lseek.obj
 0001:0009cf50       _lseek_internal            000000018009df50 f   libucrtd:lseek.obj
 0001:0009cf90       _lseek_nolock              000000018009df90 f   libucrtd:lseek.obj
 0001:0009cff0       _lseek_nolock_internal     000000018009dff0 f   libucrtd:lseek.obj
 0001:0009d030       _lseeki64                  000000018009e030 f   libucrtd:lseek.obj
 0001:0009d090       _lseeki64_internal         000000018009e090 f   libucrtd:lseek.obj
 0001:0009d0d0       _lseeki64_nolock           000000018009e0d0 f   libucrtd:lseek.obj
 0001:0009d130       _lseeki64_nolock_internal  000000018009e130 f   libucrtd:lseek.obj
 0001:0009d2e0       _putwch                    000000018009e2e0 f   libucrtd:putwch.obj
 0001:0009d310       _putwch_nolock             000000018009e310 f   libucrtd:putwch.obj
 0001:0009d360       _putwch_nolock_internal    000000018009e360 f   libucrtd:putwch.obj
 0001:0009e240       _read                      000000018009f240 f   libucrtd:read.obj
 0001:0009e590       _read_nolock               000000018009f590 f   libucrtd:read.obj
 0001:0009f350       log10                      00000001800a0350 f   libucrtd:log10.obj
 0001:0009f900       ceil                       00000001800a0900 f   libucrtd:ceil.obj
 0001:0009fad0       _controlfp_s               00000001800a0ad0 f   libucrtd:contrlfp.obj
 0001:0009fc00       fegetenv                   00000001800a0c00 f   libucrtd:fegetenv.obj
 0001:0009fc30       fesetenv                   00000001800a0c30 f   libucrtd:fesetenv.obj
 0001:0009fcb0       feholdexcept               00000001800a0cb0 f   libucrtd:feholdexcept.obj
 0001:0009fd20       ??$__acrt_fenv_shift_bits@W4__acrt_fenv_abstract_control@@@@YA?AW4__acrt_fenv_abstract_control@@W40@0I@Z 00000001800a0d20 f i libucrtd:_fenvutils.obj
 0001:0009fd50       ??$__acrt_fenv_shift_bits@W4__acrt_fenv_abstract_status@@@@YA?AW4__acrt_fenv_abstract_status@@W40@0I@Z 00000001800a0d50 f i libucrtd:_fenvutils.obj
 0001:0009fd80       ??$__acrt_fenv_translate_bit@W4__acrt_fenv_abstract_control@@W4__acrt_fenv_machine_sse_control@@@@YA?AW4__acrt_fenv_abstract_control@@W4__acrt_fenv_machine_sse_control@@0W40@1@Z 00000001800a0d80 f i libucrtd:_fenvutils.obj
 0001:0009fde0       ??$__acrt_fenv_translate_bit@W4__acrt_fenv_abstract_status@@W4__acrt_fenv_machine_sse_status@@@@YA?AW4__acrt_fenv_abstract_status@@W4__acrt_fenv_machine_sse_status@@0W40@1@Z 00000001800a0de0 f i libucrtd:_fenvutils.obj
 0001:0009fe30       ??$__acrt_fenv_translate_bit@W4__acrt_fenv_machine_sse_control@@W4__acrt_fenv_abstract_control@@@@YA?AW4__acrt_fenv_machine_sse_control@@W4__acrt_fenv_abstract_control@@0W40@1@Z 00000001800a0e30 f i libucrtd:_fenvutils.obj
 0001:0009fe90       ??$__acrt_fenv_translate_bit@W4__acrt_fenv_machine_sse_status@@W4__acrt_fenv_abstract_status@@@@YA?AW4__acrt_fenv_machine_sse_status@@W4__acrt_fenv_abstract_status@@0W40@1@Z 00000001800a0e90 f i libucrtd:_fenvutils.obj
 0001:0009fee0       ??$__acrt_fenv_unshift_bits@W4__acrt_fenv_abstract_control@@@@YA?AW4__acrt_fenv_abstract_control@@W40@0I@Z 00000001800a0ee0 f i libucrtd:_fenvutils.obj
 0001:0009ff10       ??$__acrt_fenv_unshift_bits@W4__acrt_fenv_abstract_status@@@@YA?AW4__acrt_fenv_abstract_status@@W40@0I@Z 00000001800a0f10 f i libucrtd:_fenvutils.obj
 0001:000a0400       ??I@YA?AW4__acrt_fenv_abstract_control@@W40@0@Z 00000001800a1400 f i libucrtd:_fenvutils.obj
 0001:000a0420       ??I@YA?AW4__acrt_fenv_abstract_status@@W40@0@Z 00000001800a1420 f i libucrtd:_fenvutils.obj
 0001:000a0440       ??I@YA?AW4__acrt_fenv_machine_sse_control@@W40@0@Z 00000001800a1440 f i libucrtd:_fenvutils.obj
 0001:000a0460       ??I@YA?AW4__acrt_fenv_machine_sse_status@@W40@0@Z 00000001800a1460 f i libucrtd:_fenvutils.obj
 0001:000a0480       ??U@YA?AW4__acrt_fenv_abstract_control@@W40@0@Z 00000001800a1480 f i libucrtd:_fenvutils.obj
 0001:000a04a0       ??U@YA?AW4__acrt_fenv_abstract_status@@W40@0@Z 00000001800a14a0 f i libucrtd:_fenvutils.obj
 0001:000a04c0       ??U@YA?AW4__acrt_fenv_machine_sse_control@@W40@0@Z 00000001800a14c0 f i libucrtd:_fenvutils.obj
 0001:000a04e0       ??_5@YAAEAW4__acrt_fenv_abstract_control@@AEAW40@W40@@Z 00000001800a14e0 f i libucrtd:_fenvutils.obj
 0001:000a0510       ??_5@YAAEAW4__acrt_fenv_abstract_status@@AEAW40@W40@@Z 00000001800a1510 f i libucrtd:_fenvutils.obj
 0001:000a0540       ??_5@YAAEAW4__acrt_fenv_machine_sse_control@@AEAW40@W40@@Z 00000001800a1540 f i libucrtd:_fenvutils.obj
 0001:000a0570       ??_5@YAAEAW4__acrt_fenv_machine_sse_status@@AEAW40@W40@@Z 00000001800a1570 f i libucrtd:_fenvutils.obj
 0001:000a05a0       ?__acrt_fenv_shift_abstract_sse_control@@YA?AW4__acrt_fenv_abstract_control@@W41@@Z 00000001800a15a0 f i libucrtd:_fenvutils.obj
 0001:000a05f0       ?__acrt_fenv_shift_abstract_sse_status@@YA?AW4__acrt_fenv_abstract_status@@W41@@Z 00000001800a15f0 f i libucrtd:_fenvutils.obj
 0001:000a0620       ?__acrt_fenv_unshift_abstract_sse_control@@YA?AW4__acrt_fenv_abstract_control@@W41@@Z 00000001800a1620 f i libucrtd:_fenvutils.obj
 0001:000a0670       ?__acrt_fenv_unshift_abstract_sse_status@@YA?AW4__acrt_fenv_abstract_status@@W41@@Z 00000001800a1670 f i libucrtd:_fenvutils.obj
 0001:000a0960       __acrt_fenv_expand_round_control 00000001800a1960 f   libucrtd:_fenvutils.obj
 0001:000a0990       __acrt_fenv_get_common_round_control 00000001800a1990 f   libucrtd:_fenvutils.obj
 0001:000a09b0       __acrt_fenv_get_control    00000001800a19b0 f   libucrtd:_fenvutils.obj
 0001:000a09e0       __acrt_fenv_get_fp_status_word_from_exception_mask 00000001800a19e0 f   libucrtd:_fenvutils.obj
 0001:000a0a10       __acrt_fenv_get_status     00000001800a1a10 f   libucrtd:_fenvutils.obj
 0001:000a0a40       __acrt_fenv_set_control    00000001800a1a40 f   libucrtd:_fenvutils.obj
 0001:000a0a60       __acrt_fenv_set_status     00000001800a1a60 f   libucrtd:_fenvutils.obj
 0001:000a0ca0       __acrt_GetLocaleInfoA      00000001800a1ca0 f   libucrtd:getlocaleinfoa.obj
 0001:000a1100       ?reset_and_return@__crt_mbstring@@YA_K_KPEAU_Mbstatet@@@Z 00000001800a2100 f   libucrtd:common_utf8.obj
 0001:000a1140       ?return_illegal_sequence@__crt_mbstring@@YA_KPEAU_Mbstatet@@AEAV__crt_cached_ptd_host@@@Z 00000001800a2140 f   libucrtd:common_utf8.obj
 0001:000a11a0       ?__mbrtoc32_utf8@__crt_mbstring@@YA_KPEA_UPEBD_KPEAU_Mbstatet@@AEAV__crt_cached_ptd_host@@@Z 00000001800a21a0 f   libucrtd:mbrtoc32.obj
 0001:000a15a0       mbrtoc32                   00000001800a25a0 f   libucrtd:mbrtoc32.obj
 0001:000a1620       __acrt_stdio_allocate_buffer_nolock 00000001800a2620 f   libucrtd:_getbuf.obj
 0001:000a17a0       __ascii_wcsicmp            00000001800a27a0 f   libucrtd:wcsicmp.obj
 0001:000a1840       _wcsicmp                   00000001800a2840 f   libucrtd:wcsicmp.obj
 0001:000a19e0       _wcsicmp_l                 00000001800a29e0 f   libucrtd:wcsicmp.obj
 0001:000a1cc0       __strncnt                  00000001800a2cc0 f   libucrtd:strncnt.obj
 0001:000a1d20       __acrt_CompareStringW      00000001800a2d20 f   libucrtd:comparestringw.obj
 0001:000a1e50       __ascii_strnicmp           00000001800a2e50 f   libucrtd:strnicmp.obj
 0001:000a1f20       _strnicmp                  00000001800a2f20 f   libucrtd:strnicmp.obj
 0001:000a2170       _strnicmp_l                00000001800a3170 f   libucrtd:strnicmp.obj
 0001:000a2b90       __acrt_CompareStringA      00000001800a3b90 f   libucrtd:comparestringa.obj
 0001:000a2c30       ?__wcsrtombs_utf8@__crt_mbstring@@YA_KPEADPEAPEB_W_KPEAU_Mbstatet@@AEAV__crt_cached_ptd_host@@@Z 00000001800a3c30 f   libucrtd:wcrtomb.obj
 0001:000a38b0       wcrtomb                    00000001800a48b0 f   libucrtd:wcrtomb.obj
 0001:000a3930       wcrtomb_s                  00000001800a4930 f   libucrtd:wcrtomb.obj
 0001:000a39b0       wcsrtombs                  00000001800a49b0 f   libucrtd:wcrtomb.obj
 0001:000a3a30       wcsrtombs_s                00000001800a4a30 f   libucrtd:wcrtomb.obj
 0001:000a4070       wctob                      00000001800a5070 f   libucrtd:wcrtomb.obj
 0001:000a4180       _towlower_l                00000001800a5180 f   libucrtd:towlower.obj
 0001:000a4320       towlower                   00000001800a5320 f   libucrtd:towlower.obj
 0001:000a4480       __dcrt_lowio_ensure_console_output_initialized 00000001800a5480 f   libucrtd:initcon.obj
 0001:000a44b0       __dcrt_terminate_console_output 00000001800a54b0 f   libucrtd:initcon.obj
 0001:000a44e0       __dcrt_write_console       00000001800a54e0 f   libucrtd:initcon.obj
 0001:000a4520       __acrt_initialize_fma3     00000001800a5520 f   libucrtd:fma3_available.obj
 0001:000a45d0       _get_FMA3_enable           00000001800a55d0 f   libucrtd:fma3_available.obj
 0001:000a45e0       _set_FMA3_enable           00000001800a55e0 f   libucrtd:fma3_available.obj
 0001:000a4600       _log10_special             00000001800a5600 f   libucrtd:log_special.obj
 0001:000a4650       _log10f_special            00000001800a5650 f   libucrtd:log_special.obj
 0001:000a46a0       _log_special               00000001800a56a0 f   libucrtd:log_special.obj
 0001:000a4810       _logf_special              00000001800a5810 f   libucrtd:log_special.obj
 0001:000a4b80       _handle_error              00000001800a5b80 f   libucrtd:libm_error.obj
 0001:000a4d10       _handle_errorf             00000001800a5d10 f   libucrtd:libm_error.obj
 0001:000a4ea0       _handle_nan                00000001800a5ea0 f   libucrtd:libm_error.obj
 0001:000a4ef0       _handle_nanf               00000001800a5ef0 f   libucrtd:libm_error.obj
 0001:000a5120       _clearfp                   00000001800a6120 f   libucrtd:ieee.obj
 0001:000a5140       _control87                 00000001800a6140 f   libucrtd:ieee.obj
 0001:000a5160       _controlfp                 00000001800a6160 f   libucrtd:ieee.obj
 0001:000a5190       _fpreset                   00000001800a6190 f   libucrtd:ieee.obj
 0001:000a5300       _set_controlfp             00000001800a6300 f   libucrtd:ieee.obj
 0001:000a5360       _statusfp                  00000001800a6360 f   libucrtd:ieee.obj
 0001:000a54a0       ?__c16rtomb_utf8@__crt_mbstring@@YA_KPEAD_SPEAU_Mbstatet@@AEAV__crt_cached_ptd_host@@@Z 00000001800a64a0 f   libucrtd:c16rtomb.obj
 0001:000a56e0       c16rtomb                   00000001800a66e0 f   libucrtd:c16rtomb.obj
 0001:000a5740       __acrt_LCMapStringW        00000001800a6740 f   libucrtd:lcmapstringw.obj
 0001:000a5800       ?should_round_up@__crt_strtox@@YA_N_N000@Z 00000001800a6800 f i libucrtd:fpexcept.obj
 0001:000a5930       _errcode                   00000001800a6930 f   libucrtd:fpexcept.obj
 0001:000a59b0       _except1                   00000001800a69b0 f   libucrtd:fpexcept.obj
 0001:000a5af0       _except2                   00000001800a6af0 f   libucrtd:fpexcept.obj
 0001:000a5cb0       _handle_exc                00000001800a6cb0 f   libucrtd:fpexcept.obj
 0001:000a6190       _handle_qnan2              00000001800a7190 f   libucrtd:fpexcept.obj
 0001:000a61c0       _raise_exc                 00000001800a71c0 f   libucrtd:fpexcept.obj
 0001:000a6220       _raise_exc_ex              00000001800a7220 f   libucrtd:fpexcept.obj
 0001:000a68a0       _raise_excf                00000001800a78a0 f   libucrtd:fpexcept.obj
 0001:000a6900       _set_errno_from_matherr    00000001800a7900 f   libucrtd:fpexcept.obj
 0001:000a6950       _umatherr                  00000001800a7950 f   libucrtd:fpexcept.obj
 0001:000a6a20       _clrfp                     00000001800a7a20 f   libucrtd:fpctrl.obj
 0001:000a6a50       _ctrlfp                    00000001800a7a50 f   libucrtd:fpctrl.obj
 0001:000a6b00       _set_statfp                00000001800a7b00 f   libucrtd:fpctrl.obj
 0001:000a6b40       _statfp                    00000001800a7b40 f   libucrtd:fpctrl.obj
 0001:000a6b80       _get_fpsr                  00000001800a7b80 f   libucrtd:fpsr.obj
 0001:000a6b90       _set_fpsr                  00000001800a7b90 f   libucrtd:fpsr.obj
 0001:000a6b9a       _fclrf                     00000001800a7b9a f   libucrtd:fpsr.obj
 0001:000a6bae       _frnd                      00000001800a7bae f   libucrtd:fpsr.obj
 0001:000a6bd0       _add_exp                   00000001800a7bd0 f   libucrtd:util.obj
 0001:000a6c10       _decomp                    00000001800a7c10 f   libucrtd:util.obj
 0001:000a6d60       _get_exp                   00000001800a7d60 f   libucrtd:util.obj
 0001:000a6da0       _set_bexp                  00000001800a7da0 f   libucrtd:util.obj
 0001:000a6de0       _set_exp                   00000001800a7de0 f   libucrtd:util.obj
 0001:000a6e30       _sptype                    00000001800a7e30 f   libucrtd:util.obj
 0001:000a6eab       GetCurrentThreadId         00000001800a7eab f   kernel32:KERNEL32.dll
 0001:000a6eb1       QueryPerformanceCounter    00000001800a7eb1 f   kernel32:KERNEL32.dll
 0001:000a6eb7       GetCurrentProcessId        00000001800a7eb7 f   kernel32:KERNEL32.dll
 0001:000a6ebd       GetSystemTimeAsFileTime    00000001800a7ebd f   kernel32:KERNEL32.dll
 0001:000a6ec3       InitializeSListHead        00000001800a7ec3 f   kernel32:KERNEL32.dll
 0001:000a6ec9       RtlCaptureContext          00000001800a7ec9 f   kernel32:KERNEL32.dll
 0001:000a6ecf       RtlLookupFunctionEntry     00000001800a7ecf f   kernel32:KERNEL32.dll
 0001:000a6ed5       RtlVirtualUnwind           00000001800a7ed5 f   kernel32:KERNEL32.dll
 0001:000a6edb       IsDebuggerPresent          00000001800a7edb f   kernel32:KERNEL32.dll
 0001:000a6ee1       UnhandledExceptionFilter   00000001800a7ee1 f   kernel32:KERNEL32.dll
 0001:000a6ee7       SetUnhandledExceptionFilter 00000001800a7ee7 f   kernel32:KERNEL32.dll
 0001:000a6eed       GetStartupInfoW            00000001800a7eed f   kernel32:KERNEL32.dll
 0001:000a6ef3       IsProcessorFeaturePresent  00000001800a7ef3 f   kernel32:KERNEL32.dll
 0001:000a6ef9       GetModuleHandleW           00000001800a7ef9 f   kernel32:KERNEL32.dll
 0001:000a6eff       GetCurrentProcess          00000001800a7eff f   kernel32:KERNEL32.dll
 0001:000a6f05       TerminateProcess           00000001800a7f05 f   kernel32:KERNEL32.dll
 0001:000a6f0b       RtlUnwindEx                00000001800a7f0b f   kernel32:KERNEL32.dll
 0001:000a6f11       InterlockedPushEntrySList  00000001800a7f11 f   kernel32:KERNEL32.dll
 0001:000a6f17       InterlockedFlushSList      00000001800a7f17 f   kernel32:KERNEL32.dll
 0001:000a6f1d       GetLastError               00000001800a7f1d f   kernel32:KERNEL32.dll
 0001:000a6f23       SetLastError               00000001800a7f23 f   kernel32:KERNEL32.dll
 0001:000a6f29       EnterCriticalSection       00000001800a7f29 f   kernel32:KERNEL32.dll
 0001:000a6f2f       LeaveCriticalSection       00000001800a7f2f f   kernel32:KERNEL32.dll
 0001:000a6f35       DeleteCriticalSection      00000001800a7f35 f   kernel32:KERNEL32.dll
 0001:000a6f3b       InitializeCriticalSectionAndSpinCount 00000001800a7f3b f   kernel32:KERNEL32.dll
 0001:000a6f41       TlsAlloc                   00000001800a7f41 f   kernel32:KERNEL32.dll
 0001:000a6f47       TlsGetValue                00000001800a7f47 f   kernel32:KERNEL32.dll
 0001:000a6f4d       TlsSetValue                00000001800a7f4d f   kernel32:KERNEL32.dll
 0001:000a6f53       TlsFree                    00000001800a7f53 f   kernel32:KERNEL32.dll
 0001:000a6f59       FreeLibrary                00000001800a7f59 f   kernel32:KERNEL32.dll
 0001:000a6f5f       GetProcAddress             00000001800a7f5f f   kernel32:KERNEL32.dll
 0001:000a6f65       LoadLibraryExW             00000001800a7f65 f   kernel32:KERNEL32.dll
 0001:000a6f6b       EncodePointer              00000001800a7f6b f   kernel32:KERNEL32.dll
 0001:000a6f71       RaiseException             00000001800a7f71 f   kernel32:KERNEL32.dll
 0001:000a6f77       RtlPcToFileHeader          00000001800a7f77 f   kernel32:KERNEL32.dll
 0001:000a6f7d       ExitProcess                00000001800a7f7d f   kernel32:KERNEL32.dll
 0001:000a6f83       GetModuleHandleExW         00000001800a7f83 f   kernel32:KERNEL32.dll
 0001:000a6f89       GetModuleFileNameW         00000001800a7f89 f   kernel32:KERNEL32.dll
 0001:000a6f8f       HeapAlloc                  00000001800a7f8f f   kernel32:KERNEL32.dll
 0001:000a6f95       HeapSize                   00000001800a7f95 f   kernel32:KERNEL32.dll
 0001:000a6f9b       HeapValidate               00000001800a7f9b f   kernel32:KERNEL32.dll
 0001:000a6fa1       GetSystemInfo              00000001800a7fa1 f   kernel32:KERNEL32.dll
 0001:000a6fa7       FlsAlloc                   00000001800a7fa7 f   kernel32:KERNEL32.dll
 0001:000a6fad       FlsGetValue                00000001800a7fad f   kernel32:KERNEL32.dll
 0001:000a6fb3       FlsSetValue                00000001800a7fb3 f   kernel32:KERNEL32.dll
 0001:000a6fb9       FlsFree                    00000001800a7fb9 f   kernel32:KERNEL32.dll
 0001:000a6fbf       GetDateFormatW             00000001800a7fbf f   kernel32:KERNEL32.dll
 0001:000a6fc5       GetTimeFormatW             00000001800a7fc5 f   kernel32:KERNEL32.dll
 0001:000a6fcb       CompareStringW             00000001800a7fcb f   kernel32:KERNEL32.dll
 0001:000a6fd1       LCMapStringW               00000001800a7fd1 f   kernel32:KERNEL32.dll
 0001:000a6fd7       GetLocaleInfoW             00000001800a7fd7 f   kernel32:KERNEL32.dll
 0001:000a6fdd       IsValidLocale              00000001800a7fdd f   kernel32:KERNEL32.dll
 0001:000a6fe3       GetUserDefaultLCID         00000001800a7fe3 f   kernel32:KERNEL32.dll
 0001:000a6fe9       EnumSystemLocalesW         00000001800a7fe9 f   kernel32:KERNEL32.dll
 0001:000a6fef       GetStdHandle               00000001800a7fef f   kernel32:KERNEL32.dll
 0001:000a6ff5       GetFileType                00000001800a7ff5 f   kernel32:KERNEL32.dll
 0001:000a6ffb       GetCurrentThread           00000001800a7ffb f   kernel32:KERNEL32.dll
 0001:000a7001       FindClose                  00000001800a8001 f   kernel32:KERNEL32.dll
 0001:000a7007       FindFirstFileExW           00000001800a8007 f   kernel32:KERNEL32.dll
 0001:000a700d       FindNextFileW              00000001800a800d f   kernel32:KERNEL32.dll
 0001:000a7013       IsValidCodePage            00000001800a8013 f   kernel32:KERNEL32.dll
 0001:000a7019       GetACP                     00000001800a8019 f   kernel32:KERNEL32.dll
 0001:000a701f       GetOEMCP                   00000001800a801f f   kernel32:KERNEL32.dll
 0001:000a7025       GetCPInfo                  00000001800a8025 f   kernel32:KERNEL32.dll
 0001:000a702b       GetCommandLineA            00000001800a802b f   kernel32:KERNEL32.dll
 0001:000a7031       GetCommandLineW            00000001800a8031 f   kernel32:KERNEL32.dll
 0001:000a7037       MultiByteToWideChar        00000001800a8037 f   kernel32:KERNEL32.dll
 0001:000a703d       WideCharToMultiByte        00000001800a803d f   kernel32:KERNEL32.dll
 0001:000a7043       GetEnvironmentStringsW     00000001800a8043 f   kernel32:KERNEL32.dll
 0001:000a7049       FreeEnvironmentStringsW    00000001800a8049 f   kernel32:KERNEL32.dll
 0001:000a704f       SetEnvironmentVariableW    00000001800a804f f   kernel32:KERNEL32.dll
 0001:000a7055       GetProcessHeap             00000001800a8055 f   kernel32:KERNEL32.dll
 0001:000a705b       SetConsoleCtrlHandler      00000001800a805b f   kernel32:KERNEL32.dll
 0001:000a7061       HeapFree                   00000001800a8061 f   kernel32:KERNEL32.dll
 0001:000a7067       HeapReAlloc                00000001800a8067 f   kernel32:KERNEL32.dll
 0001:000a706d       HeapQueryInformation       00000001800a806d f   kernel32:KERNEL32.dll
 0001:000a7073       WriteFile                  00000001800a8073 f   kernel32:KERNEL32.dll
 0001:000a7079       OutputDebugStringW         00000001800a8079 f   kernel32:KERNEL32.dll
 0001:000a707f       WriteConsoleW              00000001800a807f f   kernel32:KERNEL32.dll
 0001:000a7085       FlushFileBuffers           00000001800a8085 f   kernel32:KERNEL32.dll
 0001:000a708b       GetConsoleOutputCP         00000001800a808b f   kernel32:KERNEL32.dll
 0001:000a7091       GetConsoleMode             00000001800a8091 f   kernel32:KERNEL32.dll
 0001:000a7097       SetStdHandle               00000001800a8097 f   kernel32:KERNEL32.dll
 0001:000a709d       GetFileSizeEx              00000001800a809d f   kernel32:KERNEL32.dll
 0001:000a70a3       SetFilePointerEx           00000001800a80a3 f   kernel32:KERNEL32.dll
 0001:000a70a9       GetStringTypeW             00000001800a80a9 f   kernel32:KERNEL32.dll
 0001:000a70af       CloseHandle                00000001800a80af f   kernel32:KERNEL32.dll
 0001:000a70b5       ReadFile                   00000001800a80b5 f   kernel32:KERNEL32.dll
 0001:000a70bb       ReadConsoleW               00000001800a80bb f   kernel32:KERNEL32.dll
 0001:000a70c1       CreateFileW                00000001800a80c1 f   kernel32:KERNEL32.dll
 0001:000a70d0       _FindPESection             00000001800a80d0 f   LIBCMTD:pesect.obj
 0001:000a7180       _IsNonwritableInCurrentImage 00000001800a8180 f   LIBCMTD:pesect.obj
 0001:000a7210       _ValidateImageBase         00000001800a8210 f   LIBCMTD:pesect.obj
 0001:000a7290       ??1type_info@@UEAA@XZ      00000001800a8290 f   LIBCMTD:std_type_info_static.obj
 0001:000a72b0       ??_Gtype_info@@UEAAPEAXI@Z 00000001800a82b0 f i LIBCMTD:std_type_info_static.obj
 0001:000a72b0       ??_Etype_info@@UEAAPEAXI@Z 00000001800a82b0 f i LIBCMTD:std_type_info_static.obj
 0001:000a72f0       ??3@YAXPEAX_K@Z            00000001800a82f0 f   LIBCMTD:delete_scalar_size.obj
 0001:000a7310       __GSHandlerCheck_SEH       00000001800a8310 f   LIBCMTD:gshandlerseh.obj
 0001:000a73e0       __chkstk                   00000001800a83e0 f   LIBCMTD:chkstk.obj
 0001:000a73e0       _alloca_probe              00000001800a83e0 f   LIBCMTD:chkstk.obj
 0001:000a7440       __GSHandlerCheck_EH        00000001800a8440 f   LIBCMTD:gshandlereh.obj
 0001:000a74f0       ??3@YAXPEAX@Z              00000001800a84f0 f   LIBCMTD:delete_scalar.obj
 0001:000a7510       __C_specific_handler_noexcept 00000001800a8510 f   libvcruntimed:chandler_noexcept.obj
 0001:000a75a0       strrchr                    00000001800a85a0 f   libvcruntimed:strrchr.obj
 0001:000a79c0       _local_unwind              00000001800a89c0 f   libvcruntimed:jmpuwind.obj
 0001:000a7a00       memcmp                     00000001800a8a00 f   libvcruntimed:memcmp.obj
 0001:000a7ad0       strchr                     00000001800a8ad0 f   libvcruntimed:strchr.obj
 0001:000a7c60       wcschr                     00000001800a8c60 f   libvcruntimed:wcschr.obj
 0001:000a7db1       RtlUnwind                  00000001800a8db1 f   kernel32:KERNEL32.dll
 0001:000a7dd0       _guard_dispatch_icall_nop  00000001800a8dd0 f   LIBCMTD:guard_dispatch.obj
 0001:000a7df0       _guard_xfg_dispatch_icall_nop 00000001800a8df0 f   LIBCMTD:guard_xfg_dispatch.obj
 0002:00000000       __imp_GetCurrentThreadId   00000001800aa000     kernel32:KERNEL32.dll
 0002:00000008       __imp_QueryPerformanceCounter 00000001800aa008     kernel32:KERNEL32.dll
 0002:00000010       __imp_GetCurrentProcessId  00000001800aa010     kernel32:KERNEL32.dll
 0002:00000018       __imp_GetSystemTimeAsFileTime 00000001800aa018     kernel32:KERNEL32.dll
 0002:00000020       __imp_InitializeSListHead  00000001800aa020     kernel32:KERNEL32.dll
 0002:00000028       __imp_RtlCaptureContext    00000001800aa028     kernel32:KERNEL32.dll
 0002:00000030       __imp_RtlLookupFunctionEntry 00000001800aa030     kernel32:KERNEL32.dll
 0002:00000038       __imp_RtlVirtualUnwind     00000001800aa038     kernel32:KERNEL32.dll
 0002:00000040       __imp_IsDebuggerPresent    00000001800aa040     kernel32:KERNEL32.dll
 0002:00000048       __imp_UnhandledExceptionFilter 00000001800aa048     kernel32:KERNEL32.dll
 0002:00000050       __imp_SetUnhandledExceptionFilter 00000001800aa050     kernel32:KERNEL32.dll
 0002:00000058       __imp_GetStartupInfoW      00000001800aa058     kernel32:KERNEL32.dll
 0002:00000060       __imp_IsProcessorFeaturePresent 00000001800aa060     kernel32:KERNEL32.dll
 0002:00000068       __imp_GetModuleHandleW     00000001800aa068     kernel32:KERNEL32.dll
 0002:00000070       __imp_GetCurrentProcess    00000001800aa070     kernel32:KERNEL32.dll
 0002:00000078       __imp_TerminateProcess     00000001800aa078     kernel32:KERNEL32.dll
 0002:00000080       __imp_RtlUnwindEx          00000001800aa080     kernel32:KERNEL32.dll
 0002:00000088       __imp_InterlockedPushEntrySList 00000001800aa088     kernel32:KERNEL32.dll
 0002:00000090       __imp_InterlockedFlushSList 00000001800aa090     kernel32:KERNEL32.dll
 0002:00000098       __imp_GetLastError         00000001800aa098     kernel32:KERNEL32.dll
 0002:000000a0       __imp_SetLastError         00000001800aa0a0     kernel32:KERNEL32.dll
 0002:000000a8       __imp_EnterCriticalSection 00000001800aa0a8     kernel32:KERNEL32.dll
 0002:000000b0       __imp_LeaveCriticalSection 00000001800aa0b0     kernel32:KERNEL32.dll
 0002:000000b8       __imp_DeleteCriticalSection 00000001800aa0b8     kernel32:KERNEL32.dll
 0002:000000c0       __imp_InitializeCriticalSectionAndSpinCount 00000001800aa0c0     kernel32:KERNEL32.dll
 0002:000000c8       __imp_TlsAlloc             00000001800aa0c8     kernel32:KERNEL32.dll
 0002:000000d0       __imp_TlsGetValue          00000001800aa0d0     kernel32:KERNEL32.dll
 0002:000000d8       __imp_TlsSetValue          00000001800aa0d8     kernel32:KERNEL32.dll
 0002:000000e0       __imp_TlsFree              00000001800aa0e0     kernel32:KERNEL32.dll
 0002:000000e8       __imp_FreeLibrary          00000001800aa0e8     kernel32:KERNEL32.dll
 0002:000000f0       __imp_GetProcAddress       00000001800aa0f0     kernel32:KERNEL32.dll
 0002:000000f8       __imp_LoadLibraryExW       00000001800aa0f8     kernel32:KERNEL32.dll
 0002:00000100       __imp_EncodePointer        00000001800aa100     kernel32:KERNEL32.dll
 0002:00000108       __imp_RaiseException       00000001800aa108     kernel32:KERNEL32.dll
 0002:00000110       __imp_RtlPcToFileHeader    00000001800aa110     kernel32:KERNEL32.dll
 0002:00000118       __imp_ExitProcess          00000001800aa118     kernel32:KERNEL32.dll
 0002:00000120       __imp_GetModuleHandleExW   00000001800aa120     kernel32:KERNEL32.dll
 0002:00000128       __imp_GetModuleFileNameW   00000001800aa128     kernel32:KERNEL32.dll
 0002:00000130       __imp_HeapAlloc            00000001800aa130     kernel32:KERNEL32.dll
 0002:00000138       __imp_HeapSize             00000001800aa138     kernel32:KERNEL32.dll
 0002:00000140       __imp_HeapValidate         00000001800aa140     kernel32:KERNEL32.dll
 0002:00000148       __imp_GetSystemInfo        00000001800aa148     kernel32:KERNEL32.dll
 0002:00000150       __imp_FlsAlloc             00000001800aa150     kernel32:KERNEL32.dll
 0002:00000158       __imp_FlsGetValue          00000001800aa158     kernel32:KERNEL32.dll
 0002:00000160       __imp_FlsSetValue          00000001800aa160     kernel32:KERNEL32.dll
 0002:00000168       __imp_FlsFree              00000001800aa168     kernel32:KERNEL32.dll
 0002:00000170       __imp_GetDateFormatW       00000001800aa170     kernel32:KERNEL32.dll
 0002:00000178       __imp_GetTimeFormatW       00000001800aa178     kernel32:KERNEL32.dll
 0002:00000180       __imp_CompareStringW       00000001800aa180     kernel32:KERNEL32.dll
 0002:00000188       __imp_LCMapStringW         00000001800aa188     kernel32:KERNEL32.dll
 0002:00000190       __imp_GetLocaleInfoW       00000001800aa190     kernel32:KERNEL32.dll
 0002:00000198       __imp_IsValidLocale        00000001800aa198     kernel32:KERNEL32.dll
 0002:000001a0       __imp_GetUserDefaultLCID   00000001800aa1a0     kernel32:KERNEL32.dll
 0002:000001a8       __imp_EnumSystemLocalesW   00000001800aa1a8     kernel32:KERNEL32.dll
 0002:000001b0       __imp_GetStdHandle         00000001800aa1b0     kernel32:KERNEL32.dll
 0002:000001b8       __imp_GetFileType          00000001800aa1b8     kernel32:KERNEL32.dll
 0002:000001c0       __imp_GetCurrentThread     00000001800aa1c0     kernel32:KERNEL32.dll
 0002:000001c8       __imp_FindClose            00000001800aa1c8     kernel32:KERNEL32.dll
 0002:000001d0       __imp_FindFirstFileExW     00000001800aa1d0     kernel32:KERNEL32.dll
 0002:000001d8       __imp_FindNextFileW        00000001800aa1d8     kernel32:KERNEL32.dll
 0002:000001e0       __imp_IsValidCodePage      00000001800aa1e0     kernel32:KERNEL32.dll
 0002:000001e8       __imp_GetACP               00000001800aa1e8     kernel32:KERNEL32.dll
 0002:000001f0       __imp_GetOEMCP             00000001800aa1f0     kernel32:KERNEL32.dll
 0002:000001f8       __imp_GetCPInfo            00000001800aa1f8     kernel32:KERNEL32.dll
 0002:00000200       __imp_GetCommandLineA      00000001800aa200     kernel32:KERNEL32.dll
 0002:00000208       __imp_GetCommandLineW      00000001800aa208     kernel32:KERNEL32.dll
 0002:00000210       __imp_MultiByteToWideChar  00000001800aa210     kernel32:KERNEL32.dll
 0002:00000218       __imp_WideCharToMultiByte  00000001800aa218     kernel32:KERNEL32.dll
 0002:00000220       __imp_GetEnvironmentStringsW 00000001800aa220     kernel32:KERNEL32.dll
 0002:00000228       __imp_FreeEnvironmentStringsW 00000001800aa228     kernel32:KERNEL32.dll
 0002:00000230       __imp_SetEnvironmentVariableW 00000001800aa230     kernel32:KERNEL32.dll
 0002:00000238       __imp_GetProcessHeap       00000001800aa238     kernel32:KERNEL32.dll
 0002:00000240       __imp_SetConsoleCtrlHandler 00000001800aa240     kernel32:KERNEL32.dll
 0002:00000248       __imp_HeapFree             00000001800aa248     kernel32:KERNEL32.dll
 0002:00000250       __imp_HeapReAlloc          00000001800aa250     kernel32:KERNEL32.dll
 0002:00000258       __imp_HeapQueryInformation 00000001800aa258     kernel32:KERNEL32.dll
 0002:00000260       __imp_WriteFile            00000001800aa260     kernel32:KERNEL32.dll
 0002:00000268       __imp_OutputDebugStringW   00000001800aa268     kernel32:KERNEL32.dll
 0002:00000270       __imp_WriteConsoleW        00000001800aa270     kernel32:KERNEL32.dll
 0002:00000278       __imp_FlushFileBuffers     00000001800aa278     kernel32:KERNEL32.dll
 0002:00000280       __imp_GetConsoleOutputCP   00000001800aa280     kernel32:KERNEL32.dll
 0002:00000288       __imp_GetConsoleMode       00000001800aa288     kernel32:KERNEL32.dll
 0002:00000290       __imp_SetStdHandle         00000001800aa290     kernel32:KERNEL32.dll
 0002:00000298       __imp_GetFileSizeEx        00000001800aa298     kernel32:KERNEL32.dll
 0002:000002a0       __imp_SetFilePointerEx     00000001800aa2a0     kernel32:KERNEL32.dll
 0002:000002a8       __imp_GetStringTypeW       00000001800aa2a8     kernel32:KERNEL32.dll
 0002:000002b0       __imp_CloseHandle          00000001800aa2b0     kernel32:KERNEL32.dll
 0002:000002b8       __imp_ReadFile             00000001800aa2b8     kernel32:KERNEL32.dll
 0002:000002c0       __imp_ReadConsoleW         00000001800aa2c0     kernel32:KERNEL32.dll
 0002:000002c8       __imp_CreateFileW          00000001800aa2c8     kernel32:KERNEL32.dll
 0002:000002d0       __imp_RtlUnwind            00000001800aa2d0     kernel32:KERNEL32.dll
 0002:000002d8       \177KERNEL32_NULL_THUNK_DATA 00000001800aa2d8     kernel32:KERNEL32.dll
 0002:000002e0       __guard_check_icall_fptr   00000001800aa2e0     LIBCMTD:guard_support.obj
 0002:000002e8       __guard_xfg_check_icall_fptr 00000001800aa2e8     LIBCMTD:guard_support.obj
 0002:000002f0       __guard_dispatch_icall_fptr 00000001800aa2f0     LIBCMTD:guard_support.obj
 0002:000002f8       __guard_xfg_dispatch_icall_fptr 00000001800aa2f8     LIBCMTD:guard_support.obj
 0002:00000300       __guard_xfg_table_dispatch_icall_fptr 00000001800aa300     LIBCMTD:guard_support.obj
 0002:00000308       __xc_a                     00000001800aa308     LIBCMTD:initializers.obj
 0002:00000310       __xc_z                     00000001800aa310     LIBCMTD:initializers.obj
 0002:00000318       __xi_a                     00000001800aa318     LIBCMTD:initializers.obj
 0002:00000320       __acrt_stdio_initializer   00000001800aa320     libucrtd:stdio_initializer.obj
 0002:00000328       __acrt_multibyte_initializer 00000001800aa328     libucrtd:multibyte_initializer.obj
 0002:00000330       __acrt_tran_fma3_initializer 00000001800aa330     libucrtd:fma3_initializer.obj
 0002:00000338       __xi_z                     00000001800aa338     LIBCMTD:initializers.obj
 0002:00000340       __xp_a                     00000001800aa340     LIBCMTD:initializers.obj
 0002:00000348       __acrt_locale_terminator   00000001800aa348     libucrtd:locale_initializer.obj
 0002:00000350       __dcrt_console_output_terminator 00000001800aa350     libucrtd:console_output_initializer.obj
 0002:00000358       __acrt_stdio_terminator    00000001800aa358     libucrtd:stdio_initializer.obj
 0002:00000360       __xp_z                     00000001800aa360     LIBCMTD:initializers.obj
 0002:00000368       __xt_a                     00000001800aa368     LIBCMTD:initializers.obj
 0002:00000370       __xt_z                     00000001800aa370     LIBCMTD:initializers.obj
 0002:00000380       ??_C@_0O@CMJEMIJA@Hello?5world?$CB?6@ 00000001800aa380     gui.obj
 0002:00000390       _pRawDllMain               00000001800aa390     LIBCMTD:dll_dllmain.obj
 0002:00000390       _pDefaultRawDllMain        00000001800aa390     LIBCMTD:dll_dllmain.obj
 0002:000003b0       ??_C@_0EG@ONFOEEHF@D?3?2agent?2_work?29?2s?2src?2vctools?2@ 00000001800aa3b0     libvcruntimed:std_type_info.obj
 0002:000003f8       _pDestructExceptionObject  00000001800aa3f8     libvcruntimed:ehhelpers.obj
 0002:00000b00       ??_C@_08EHJDFFNH@__based?$CI@ 00000001800aab00     libvcruntimed:undname.obj
 0002:00000b10       ??_C@_07KOLFKCDI@__cdecl@  00000001800aab10     libvcruntimed:undname.obj
 0002:00000b18       ??_C@_08GHMPAG@__pascal@   00000001800aab18     libvcruntimed:undname.obj
 0002:00000b28       ??_C@_09IFJBGAPI@__stdcall@ 00000001800aab28     libvcruntimed:undname.obj
 0002:00000b38       ??_C@_0L@NPHFGOKO@__thiscall@ 00000001800aab38     libvcruntimed:undname.obj
 0002:00000b48       ??_C@_0L@JMKHOMEK@__fastcall@ 00000001800aab48     libvcruntimed:undname.obj
 0002:00000b58       ??_C@_0N@BCKKPABJ@__vectorcall@ 00000001800aab58     libvcruntimed:undname.obj
 0002:00000b68       ??_C@_09HIJEGCPM@__clrcall@ 00000001800aab68     libvcruntimed:undname.obj
 0002:00000b74       ??_C@_06GHPCKEAG@__eabi@   00000001800aab74     libvcruntimed:undname.obj
 0002:00000b80       ??_C@_09IOPIDJLG@__swift_1@ 00000001800aab80     libvcruntimed:undname.obj
 0002:00000b90       ??_C@_09KFNFGKHF@__swift_2@ 00000001800aab90     libvcruntimed:undname.obj
 0002:00000ba0       ??_C@_07JOMMBBKO@__ptr64@  00000001800aaba0     libvcruntimed:undname.obj
 0002:00000ba8       ??_C@_0L@PILCLIHE@__restrict@ 00000001800aaba8     libvcruntimed:undname.obj
 0002:00000bb8       ??_C@_0M@GFIIJFMG@__unaligned@ 00000001800aabb8     libvcruntimed:undname.obj
 0002:00000bc8       ??_C@_09DHDLOLLB@restrict?$CI@ 00000001800aabc8     libvcruntimed:undname.obj
 0002:00000bd2       ??_C@_00CNPNBAHC@@         00000001800aabd2     libvcruntimed:undname.obj
 0002:00000bd4       ??_C@_04NIHEBCM@?5new@     00000001800aabd4     libvcruntimed:undname.obj
 0002:00000be0       ??_C@_07FPCDHGMM@?5delete@ 00000001800aabe0     libvcruntimed:undname.obj
 0002:00000be8       ??_C@_01NEMOKFLO@?$DN@     00000001800aabe8     libvcruntimed:undname.obj
 0002:00000bec       ??_C@_02GPIOPFAK@?$DO?$DO@ 00000001800aabec     libvcruntimed:undname.obj
 0002:00000bf0       ??_C@_02FODMEDOG@?$DM?$DM@ 00000001800aabf0     libvcruntimed:undname.obj
 0002:00000bf4       ??_C@_01DCLJPIOD@?$CB@     00000001800aabf4     libvcruntimed:undname.obj
 0002:00000bf8       ??_C@_02EGOFBIJA@?$DN?$DN@ 00000001800aabf8     libvcruntimed:undname.obj
 0002:00000bfc       ??_C@_02FDNJECIE@?$CB?$DN@ 00000001800aabfc     libvcruntimed:undname.obj
 0002:00000c00       ??_C@_02GPECMEKF@?$FL?$FN@ 00000001800aac00     libvcruntimed:undname.obj
 0002:00000c08       ??_C@_08LHJFAFGD@operator@ 00000001800aac08     libvcruntimed:undname.obj
 0002:00000c14       ??_C@_02HBOOOICD@?9?$DO@   00000001800aac14     libvcruntimed:undname.obj
 0002:00000c18       ??_C@_01NBENCBCI@?$CK@     00000001800aac18     libvcruntimed:undname.obj
 0002:00000c1c       ??_C@_02ECNGHCIF@?$CL?$CL@ 00000001800aac1c     libvcruntimed:undname.obj
 0002:00000c20       ??_C@_02BAABKJLB@?9?9@     00000001800aac20     libvcruntimed:undname.obj
 0002:00000c24       ??_C@_01JOAMLHOP@?9@       00000001800aac24     libvcruntimed:undname.obj
 0002:00000c28       ??_C@_01MIFGBAGJ@?$CL@     00000001800aac28     libvcruntimed:undname.obj
 0002:00000c2c       ??_C@_01HNPIGOCE@?$CG@     00000001800aac2c     libvcruntimed:undname.obj
 0002:00000c30       ??_C@_03MNHNFDLC@?9?$DO?$CK@ 00000001800aac30     libvcruntimed:undname.obj
 0002:00000c34       ??_C@_01KMDKNFGN@?1@       00000001800aac34     libvcruntimed:undname.obj
 0002:00000c38       ??_C@_01FGNFDNOH@?$CF@     00000001800aac38     libvcruntimed:undname.obj
 0002:00000c3c       ??_C@_01MNNFJEPP@?$DM@     00000001800aac3c     libvcruntimed:undname.obj
 0002:00000c40       ??_C@_02EHCHHCKH@?$DM?$DN@ 00000001800aac40     libvcruntimed:undname.obj
 0002:00000c44       ??_C@_01PPODPGHN@?$DO@     00000001800aac44     libvcruntimed:undname.obj
 0002:00000c48       ??_C@_02EEKDKGMJ@?$DO?$DN@ 00000001800aac48     libvcruntimed:undname.obj
 0002:00000c4c       ??_C@_01IHBHIGKO@?0@       00000001800aac4c     libvcruntimed:undname.obj
 0002:00000c50       ??_C@_02HCKGKOFO@?$CI?$CJ@ 00000001800aac50     libvcruntimed:undname.obj
 0002:00000c54       ??_C@_01PJKLJHI@?$HO@      00000001800aac54     libvcruntimed:undname.obj
 0002:00000c58       ??_C@_01JKBOJNNK@?$FO@     00000001800aac58     libvcruntimed:undname.obj
 0002:00000c5c       ??_C@_01DNKMNLPK@?$HM@     00000001800aac5c     libvcruntimed:undname.obj
 0002:00000c60       ??_C@_02PPKAJPJL@?$CG?$CG@ 00000001800aac60     libvcruntimed:undname.obj
 0002:00000c64       ??_C@_02NONPIBCD@?$HM?$HM@ 00000001800aac64     libvcruntimed:undname.obj
 0002:00000c68       ??_C@_02FPIMKNGF@?$CK?$DN@ 00000001800aac68     libvcruntimed:undname.obj
 0002:00000c6c       ??_C@_02FOEOMHFC@?$CL?$DN@ 00000001800aac6c     libvcruntimed:undname.obj
 0002:00000c70       ??_C@_02FKMDLLOA@?9?$DN@   00000001800aac70     libvcruntimed:undname.obj
 0002:00000c74       ??_C@_02FJEHGPIO@?1?$DN@   00000001800aac74     libvcruntimed:undname.obj
 0002:00000c78       ??_C@_02FENAOKFI@?$CF?$DN@ 00000001800aac78     libvcruntimed:undname.obj
 0002:00000c7c       ??_C@_03IKFCCPFF@?$DO?$DO?$DN@ 00000001800aac7c     libvcruntimed:undname.obj
 0002:00000c80       ??_C@_03CDNPDDLA@?$DM?$DM?$DN@ 00000001800aac80     libvcruntimed:undname.obj
 0002:00000c84       ??_C@_02FGJGFEAB@?$CG?$DN@ 00000001800aac84     libvcruntimed:undname.obj
 0002:00000c88       ??_C@_02DHLNPPGH@?$HM?$DN@ 00000001800aac88     libvcruntimed:undname.obj
 0002:00000c8c       ??_C@_02MHEGNOJ@?$FO?$DN@  00000001800aac8c     libvcruntimed:undname.obj
 0002:00000c90       ??_C@_09IFPLHPGF@?$GAvftable?8@ 00000001800aac90     libvcruntimed:undname.obj
 0002:00000ca0       ??_C@_09BLBHBJP@?$GAvbtable?8@ 00000001800aaca0     libvcruntimed:undname.obj
 0002:00000cb0       ??_C@_07FEEIOKP@?$GAvcall?8@ 00000001800aacb0     libvcruntimed:undname.obj
 0002:00000cb8       ??_C@_08LLFFHHDJ@?$GAtypeof?8@ 00000001800aacb8     libvcruntimed:undname.obj
 0002:00000cc8       ??_C@_0BF@KDPPACIK@?$GAlocal?5static?5guard?8@ 00000001800aacc8     libvcruntimed:undname.obj
 0002:00000ce0       ??_C@_08OBABFOLI@?$GAstring?8@ 00000001800aace0     libvcruntimed:undname.obj
 0002:00000cf0       ??_C@_0BD@JDLKDPAB@?$GAvbase?5destructor?8@ 00000001800aacf0     libvcruntimed:undname.obj
 0002:00000d08       ??_C@_0BN@DEGPLNFK@?$GAvector?5deleting?5destructor?8@ 00000001800aad08     libvcruntimed:undname.obj
 0002:00000d28       ??_C@_0BO@OBMKPJIG@?$GAdefault?5constructor?5closure?8@ 00000001800aad28     libvcruntimed:undname.obj
 0002:00000d48       ??_C@_0BN@IMDCHIKM@?$GAscalar?5deleting?5destructor?8@ 00000001800aad48     libvcruntimed:undname.obj
 0002:00000d68       ??_C@_0BO@PFGOCPJJ@?$GAvector?5constructor?5iterator?8@ 00000001800aad68     libvcruntimed:undname.obj
 0002:00000d88       ??_C@_0BN@LFPFMEDL@?$GAvector?5destructor?5iterator?8@ 00000001800aad88     libvcruntimed:undname.obj
 0002:00000da8       ??_C@_0CE@IKBNEHA@?$GAvector?5vbase?5constructor?5itera@ 00000001800aada8     libvcruntimed:undname.obj
 0002:00000dd0       ??_C@_0BL@NILFHHPC@?$GAvirtual?5displacement?5map?8@ 00000001800aadd0     libvcruntimed:undname.obj
 0002:00000df0       ??_C@_0CB@JONCMFFK@?$GAeh?5vector?5constructor?5iterator@ 00000001800aadf0     libvcruntimed:undname.obj
 0002:00000e18       ??_C@_0CA@GCEOPDGL@?$GAeh?5vector?5destructor?5iterator?8@ 00000001800aae18     libvcruntimed:undname.obj
 0002:00000e38       ??_C@_0CH@OOJPLCPH@?$GAeh?5vector?5vbase?5constructor?5it@ 00000001800aae38     libvcruntimed:undname.obj
 0002:00000e60       ??_C@_0BL@LLKPOHJI@?$GAcopy?5constructor?5closure?8@ 00000001800aae60     libvcruntimed:undname.obj
 0002:00000e80       ??_C@_0BA@KBCDOMBN@?$GAudt?5returning?8@ 00000001800aae80     libvcruntimed:undname.obj
 0002:00000e90       ??_C@_03KLGMFNMG@?$GAEH@   00000001800aae90     libvcruntimed:undname.obj
 0002:00000e94       ??_C@_05KHLCHHI@?$GARTTI@  00000001800aae94     libvcruntimed:undname.obj
 0002:00000ea0       ??_C@_0BA@KKLDJDLB@?$GAlocal?5vftable?8@ 00000001800aaea0     libvcruntimed:undname.obj
 0002:00000eb0       ??_C@_0CE@IIHCMGGL@?$GAlocal?5vftable?5constructor?5clos@ 00000001800aaeb0     libvcruntimed:undname.obj
 0002:00000ed4       ??_C@_06FHBGPFGH@?5new?$FL?$FN@ 00000001800aaed4     libvcruntimed:undname.obj
 0002:00000ee0       ??_C@_09LBNFPBCA@?5delete?$FL?$FN@ 00000001800aaee0     libvcruntimed:undname.obj
 0002:00000ef0       ??_C@_0P@HJKNJFNN@?$GAomni?5callsig?8@ 00000001800aaef0     libvcruntimed:undname.obj
 0002:00000f00       ??_C@_0BL@CNOONJFP@?$GAplacement?5delete?5closure?8@ 00000001800aaf00     libvcruntimed:undname.obj
 0002:00000f20       ??_C@_0BN@CKNJLHMB@?$GAplacement?5delete?$FL?$FN?5closure?8@ 00000001800aaf20     libvcruntimed:undname.obj
 0002:00000f40       ??_C@_0CG@CFDHKGGD@?$GAmanaged?5vector?5constructor?5ite@ 00000001800aaf40     libvcruntimed:undname.obj
 0002:00000f68       ??_C@_0CF@IMGKMJNO@?$GAmanaged?5vector?5destructor?5iter@ 00000001800aaf68     libvcruntimed:undname.obj
 0002:00000f90       ??_C@_0CG@HLDDJMAG@?$GAeh?5vector?5copy?5constructor?5ite@ 00000001800aaf90     libvcruntimed:undname.obj
 0002:00000fb8       ??_C@_0CM@FCBBDIGB@?$GAeh?5vector?5vbase?5copy?5construct@ 00000001800aafb8     libvcruntimed:undname.obj
 0002:00000fe8       ??_C@_0BL@CLIPGLGB@?$GAdynamic?5initializer?5for?5?8@ 00000001800aafe8     libvcruntimed:undname.obj
 0002:00001008       ??_C@_0CB@PDBIFEP@?$GAdynamic?5atexit?5destructor?5for?5@ 00000001800ab008     libvcruntimed:undname.obj
 0002:00001030       ??_C@_0CD@CGAJBKEJ@?$GAvector?5copy?5constructor?5iterat@ 00000001800ab030     libvcruntimed:undname.obj
 0002:00001058       ??_C@_0CJ@GJELGAMM@?$GAvector?5vbase?5copy?5constructor?5@ 00000001800ab058     libvcruntimed:undname.obj
 0002:00001088       ??_C@_0CL@FGIJHLCE@?$GAmanaged?5vector?5copy?5constructo@ 00000001800ab088     libvcruntimed:undname.obj
 0002:000010b8       ??_C@_0BM@PMGGMLDN@?$GAlocal?5static?5thread?5guard?8@ 00000001800ab0b8     libvcruntimed:undname.obj
 0002:000010d8       ??_C@_0N@BDNMDMOL@operator?5?$CC?$CC?5@ 00000001800ab0d8     libvcruntimed:undname.obj
 0002:000010e8       ??_C@_0BC@GGEBGALA@operator?5co_await@ 00000001800ab0e8     libvcruntimed:undname.obj
 0002:00001100       ??_C@_0M@GAAIMMOH@operator?$DM?$DN?$DO@ 00000001800ab100     libvcruntimed:undname.obj
 0002:00001110       ??_C@_0BC@DAFEJGAK@?5Type?5Descriptor?8@ 00000001800ab110     libvcruntimed:undname.obj
 0002:00001128       ??_C@_0BM@LDKODKLH@?5Base?5Class?5Descriptor?5at?5?$CI@ 00000001800ab128     libvcruntimed:undname.obj
 0002:00001148       ??_C@_0BD@LGICGFMM@?5Base?5Class?5Array?8@ 00000001800ab148     libvcruntimed:undname.obj
 0002:00001160       ??_C@_0BN@MECKDCOJ@?5Class?5Hierarchy?5Descriptor?8@ 00000001800ab160     libvcruntimed:undname.obj
 0002:00001180       ??_C@_0BK@CFCOFLF@?5Complete?5Object?5Locator?8@ 00000001800ab180     libvcruntimed:undname.obj
 0002:000011a0       ??_C@_0BG@JNJLAMPM@?$GAanonymous?5namespace?8@ 00000001800ab1a0     libvcruntimed:undname.obj
 0002:000011b6       ?in_place@std@@3Uin_place_t@1@B 00000001800ab1b6     libvcruntimed:undname.obj
 0002:000011b8       ??_C@_04HEJADOOB@CV?3?5@   00000001800ab1b8     libvcruntimed:undname.obj
 0002:000011c0       ??_C@_03GDILBHBJ@$$h@      00000001800ab1c0     libvcruntimed:undname.obj
 0002:000011c4       ??_C@_02MOLJINC@?3?3@      00000001800ab1c4     libvcruntimed:undname.obj
 0002:000011c8       ??_C@_0BE@JAEOCHPE@template?9parameter?9@ 00000001800ab1c8     libvcruntimed:undname.obj
 0002:000011e0       ??_C@_0BF@LNLGBBNL@?$GAtemplate?9parameter?9@ 00000001800ab1e0     libvcruntimed:undname.obj
 0002:000011f8       ??_C@_0O@KHGCOMHP@generic?9type?9@ 00000001800ab1f8     libvcruntimed:undname.obj
 0002:00001208       ??_C@_0P@ODDENDLM@?$GAgeneric?9type?9@ 00000001800ab208     libvcruntimed:undname.obj
 0002:00001218       ??_C@_02OHHJMEON@?8?8@     00000001800ab218     libvcruntimed:undname.obj
 0002:00001220       ??_C@_0BN@IBLMMFAP@?$GAnon?9type?9template?9parameter@ 00000001800ab220     libvcruntimed:undname.obj
 0002:00001240       ??_C@_03DLDNIBIK@?$CFlf@   00000001800ab240     libvcruntimed:undname.obj
 0002:00001244       ??_C@_04OFALKAJ@?$DP?$DP_C@ 00000001800ab244     libvcruntimed:undname.obj
 0002:0000124c       ??_C@_03KHICJKCI@?4?4?4@   00000001800ab24c     libvcruntimed:undname.obj
 0002:00001250       ??_C@_04HIBGFPH@NULL@      00000001800ab250     libvcruntimed:undname.obj
 0002:00001258       ??_C@_02DPKJAMEF@?$CFd@    00000001800ab258     libvcruntimed:undname.obj
 0002:00001260       ??_C@_0BK@IHCCFNEL@?$GAtemplate?9type?9parameter?9@ 00000001800ab260     libvcruntimed:undname.obj
 0002:00001280       ??_C@_0BK@OFCNNNKO@?$GAgeneric?9class?9parameter?9@ 00000001800ab280     libvcruntimed:undname.obj
 0002:000012a0       ??_C@_0BL@NGJBLFIL@?$GAgeneric?9method?9parameter?9@ 00000001800ab2a0     libvcruntimed:undname.obj
 0002:000012bc       ??_C@_04GKJNKENE@void@     00000001800ab2bc     libvcruntimed:undname.obj
 0002:000012c8       ??_C@_0BE@EODMJLIF@?$GAtemplate?9parameter@ 00000001800ab2c8     libvcruntimed:undname.obj
 0002:000012dc       ??_C@_03OPGICMGF@?$HN?8?5@ 00000001800ab2dc     libvcruntimed:undname.obj
 0002:000012e0       ??_C@_02IGFCGPIL@?$HN?8@   00000001800ab2e0     libvcruntimed:undname.obj
 0002:000012e8       ??_C@_0N@CBHHHENL@?$GAvtordispex?$HL@ 00000001800ab2e8     libvcruntimed:undname.obj
 0002:000012f8       ??_C@_0L@GHPFDFH@?$GAvtordisp?$HL@ 00000001800ab2f8     libvcruntimed:undname.obj
 0002:00001308       ??_C@_0L@HNGCOGAE@?$GAadjustor?$HL@ 00000001800ab308     libvcruntimed:undname.obj
 0002:00001318       ??_C@_0CB@KJDOOODE@?$GAlocal?5static?5destructor?5helper@ 00000001800ab318     libvcruntimed:undname.obj
 0002:00001340       ??_C@_0DB@ILEFOCIJ@?$GAtemplate?5static?5data?5member?5co@ 00000001800ab340     libvcruntimed:undname.obj
 0002:00001378       ??_C@_0DA@HGFJFBBE@?$GAtemplate?5static?5data?5member?5de@ 00000001800ab378     libvcruntimed:undname.obj
 0002:000013a8       ??_C@_07PGOEDBHP@static?5@ 00000001800ab3a8     libvcruntimed:undname.obj
 0002:000013b0       ??_C@_08NIEOINHE@virtual?5@ 00000001800ab3b0     libvcruntimed:undname.obj
 0002:000013c0       ??_C@_09LAPHOOG@private?3?5@ 00000001800ab3c0     libvcruntimed:undname.obj
 0002:000013d0       ??_C@_0M@GAIFPFIP@protected?3?5@ 00000001800ab3d0     libvcruntimed:undname.obj
 0002:000013e0       ??_C@_08GPDDCMKI@public?3?5@ 00000001800ab3e0     libvcruntimed:undname.obj
 0002:000013f0       ??_C@_08KJLFOPNE@?$FLthunk?$FN?3@ 00000001800ab3f0     libvcruntimed:undname.obj
 0002:00001400       ??_C@_0M@DHNBOJMP@extern?5?$CCC?$CC?5@ 00000001800ab400     libvcruntimed:undname.obj
 0002:0000140c       ??_C@_02KCKGHPCA@?$CJ?5@   00000001800ab40c     libvcruntimed:undname.obj
 0002:00001410       ??_C@_05CIHEBHNO@char?5@   00000001800ab410     libvcruntimed:undname.obj
 0002:00001418       ??_C@_06EHJMALKF@short?5@  00000001800ab418     libvcruntimed:undname.obj
 0002:00001420       ??_C@_04LAHKHJMA@int?5@    00000001800ab420     libvcruntimed:undname.obj
 0002:00001428       ??_C@_05CJIMAING@long?5@   00000001800ab428     libvcruntimed:undname.obj
 0002:00001430       ??_C@_09EBBEKKIH@unsigned?5@ 00000001800ab430     libvcruntimed:undname.obj
 0002:0000143c       ??_C@_05BEFAKPML@void?5@   00000001800ab43c     libvcruntimed:undname.obj
 0002:00001448       ??_C@_09GAIEOBLP@volatile?5@ 00000001800ab448     libvcruntimed:undname.obj
 0002:00001458       ??_C@_08PABEKFH@volatile@  00000001800ab458     libvcruntimed:undname.obj
 0002:00001468       ??_C@_0BA@LKIJLKPP@std?3?3nullptr_t?5@ 00000001800ab468     libvcruntimed:undname.obj
 0002:00001478       ??_C@_0P@GCOCNKDM@std?3?3nullptr_t@ 00000001800ab478     libvcruntimed:undname.obj
 0002:00001488       ??_C@_0L@EGPHHEKN@?$DMellipsis?$DO@ 00000001800ab488     libvcruntimed:undname.obj
 0002:00001494       ??_C@_04EENFHACM@?0?4?4?4@ 00000001800ab494     libvcruntimed:undname.obj
 0002:000014a0       ??_C@_0M@ELJOJFFH@?0?$DMellipsis?$DO@ 00000001800ab4a0     libvcruntimed:undname.obj
 0002:000014b0       ??_C@_09DNHFEOJI@?5noexcept@ 00000001800ab4b0     libvcruntimed:undname.obj
 0002:000014bc       ??_C@_03PBJBJNON@cpu@      00000001800ab4bc     libvcruntimed:undname.obj
 0002:000014c0       ??_C@_03DCBBJBAA@amp@      00000001800ab4c0     libvcruntimed:undname.obj
 0002:000014c4       ??_C@_02KEGNLNML@?0?5@     00000001800ab4c4     libvcruntimed:undname.obj
 0002:000014c8       ??_C@_04ENMBGAPA@char@     00000001800ab4c8     libvcruntimed:undname.obj
 0002:000014d0       ??_C@_05BFKKPKCG@short@    00000001800ab4d0     libvcruntimed:undname.obj
 0002:000014d8       ??_C@_03JBIPMCLC@int@      00000001800ab4d8     libvcruntimed:undname.obj
 0002:000014dc       ??_C@_04GOKPGOLB@long@     00000001800ab4dc     libvcruntimed:undname.obj
 0002:000014e4       ??_C@_05KNFBNCOH@float@    00000001800ab4e4     libvcruntimed:undname.obj
 0002:000014ec       ??_C@_06BNJCAIGJ@double@   00000001800ab4ec     libvcruntimed:undname.obj
 0002:000014f4       ??_C@_04DDKJGDCM@bool@     00000001800ab4f4     libvcruntimed:undname.obj
 0002:000014fc       ??_C@_06EBGKOKIG@__int8@   00000001800ab4fc     libvcruntimed:undname.obj
 0002:00001508       ??_C@_07ICFHOGAF@__int16@  00000001800ab508     libvcruntimed:undname.obj
 0002:00001510       ??_C@_07OFLPPHGP@__int32@  00000001800ab510     libvcruntimed:undname.obj
 0002:00001518       ??_C@_07LFCOJCAC@__int64@  00000001800ab518     libvcruntimed:undname.obj
 0002:00001520       ??_C@_08GAHOLHEO@__int128@ 00000001800ab520     libvcruntimed:undname.obj
 0002:00001530       ??_C@_09EEKGDCPH@?$DMunknown?$DO@ 00000001800ab530     libvcruntimed:undname.obj
 0002:00001540       ??_C@_07CFHGOPCN@char8_t@  00000001800ab540     libvcruntimed:undname.obj
 0002:00001548       ??_C@_08HBIPOFJB@char16_t@ 00000001800ab548     libvcruntimed:undname.obj
 0002:00001558       ??_C@_08IECNCBKG@char32_t@ 00000001800ab558     libvcruntimed:undname.obj
 0002:00001568       ??_C@_07CLGGIAMF@wchar_t@  00000001800ab568     libvcruntimed:undname.obj
 0002:00001570       ??_C@_06GCICPBLB@__w64?5@  00000001800ab570     libvcruntimed:undname.obj
 0002:00001578       ??_C@_07NFANNNEC@UNKNOWN@  00000001800ab578     libvcruntimed:undname.obj
 0002:00001580       ??_C@_07EDHNAJHC@signed?5@ 00000001800ab580     libvcruntimed:undname.obj
 0002:00001588       ??_C@_05BNCCCJPP@const@    00000001800ab588     libvcruntimed:undname.obj
 0002:00001590       ??_C@_09EFNPDFFP@?5volatile@ 00000001800ab590     libvcruntimed:undname.obj
 0002:000015a0       ??_C@_0P@GCIFDJCJ@?$GAunknown?5ecsu?8@ 00000001800ab5a0     libvcruntimed:undname.obj
 0002:000015b0       ??_C@_06MOJHIBMG@union?5@  00000001800ab5b0     libvcruntimed:undname.obj
 0002:000015b8       ??_C@_07DIBCDNGL@struct?5@ 00000001800ab5b8     libvcruntimed:undname.obj
 0002:000015c0       ??_C@_06LJBABKPM@class?5@  00000001800ab5c0     libvcruntimed:undname.obj
 0002:000015c8       ??_C@_08KOFANOFK@coclass?5@ 00000001800ab5c8     libvcruntimed:undname.obj
 0002:000015d8       ??_C@_0N@DLIEFKNA@cointerface?5@ 00000001800ab5d8     libvcruntimed:undname.obj
 0002:000015e8       ??_C@_05LJGMCFOG@enum?5@   00000001800ab5e8     libvcruntimed:undname.obj
 0002:000015f0       ??_C@_06LIJLOJAG@const?5@  00000001800ab5f0     libvcruntimed:undname.obj
 0002:000015f8       ??_C@_02KJPKDIBN@?$CG?5@   00000001800ab5f8     libvcruntimed:undname.obj
 0002:000015fc       ??_C@_03PCKGMOPB@?$CG?$CG?5@ 00000001800ab5fc     libvcruntimed:undname.obj
 0002:00001600       ??_C@_0M@EALIELKG@cli?3?3array?$DM@ 00000001800ab600     libvcruntimed:undname.obj
 0002:00001610       ??_C@_0O@GKABPPIF@cli?3?3pin_ptr?$DM@ 00000001800ab610     libvcruntimed:undname.obj
 0002:00001620       ??_C@_02GOGNNPBN@?$CJ?$FL@ 00000001800ab620     libvcruntimed:undname.obj
 0002:00001624       ??_C@_06EEGAIFAK@?$HLflat?$HN@ 00000001800ab624     libvcruntimed:undname.obj
 0002:0000162c       ??_C@_05JIBOFOHK@?$HLfor?5@ 00000001800ab62c     libvcruntimed:undname.obj
 0002:00001634       ??_C@_02MDINNEEG@s?5@      00000001800ab634     libvcruntimed:undname.obj
 0002:00001640       ??_7DNameNode@@6B@         00000001800ab640     libvcruntimed:undname.obj
 0002:00001668       ??_7charNode@@6B@          00000001800ab668     libvcruntimed:undname.obj
 0002:00001690       ??_7pcharNode@@6B@         00000001800ab690     libvcruntimed:undname.obj
 0002:000016b8       ??_7pDNameNode@@6B@        00000001800ab6b8     libvcruntimed:undname.obj
 0002:000016e0       ??_7DNameStatusNode@@6B@   00000001800ab6e0     libvcruntimed:undname.obj
 0002:00001708       ??_7pairNode@@6B@          00000001800ab708     libvcruntimed:undname.obj
 0002:00001830       ??_C@_04OKOHEJBO@?5?$DP?$DP?5@ 00000001800ab830     libvcruntimed:undname.obj
 0002:00001840       ?nodes@?1??make@DNameStatusNode@@SAPEBV2@W4DNameStatus@@@Z@4QBV2@B 00000001800ab840     libvcruntimed:undname.obj
 0002:00001880       ??_C@_0EO@MDOEIGMD@D?3?2agent?2_work?29?2s?2src?2vctools?2@ 00000001800ab880     libvcruntimed:per_thread_data.obj
 0002:000018d0       ?s_negLengthTab@FH4@@3QBCB 00000001800ab8d0     libvcruntimed:risctrnsctrl.obj
 0002:000018e0       ?s_shiftTab@FH4@@3QBEB     00000001800ab8e0     libvcruntimed:risctrnsctrl.obj
 0002:00001a40       ??_C@_1DM@KHCHBNEB@?$AAa?$AAp?$AAi?$AA?9?$AAm?$AAs?$AA?9?$AAw?$AAi?$AAn?$AA?9?$AAc?$AAo?$AAr?$AAe@ 00000001800aba40     libvcruntimed:winapi_downlevel.obj
 0002:00001a80       ??_C@_1DK@LPPGFMPP@?$AAa?$AAp?$AAi?$AA?9?$AAm?$AAs?$AA?9?$AAw?$AAi?$AAn?$AA?9?$AAc?$AAo?$AAr?$AAe@ 00000001800aba80     libvcruntimed:winapi_downlevel.obj
 0002:00001ac0       ??_C@_1BC@GDMECMAK@?$AAk?$AAe?$AAr?$AAn?$AAe?$AAl?$AA3?$AA2@ 00000001800abac0     libvcruntimed:winapi_downlevel.obj
 0002:00001ad8       ??_C@_17CNPHIMPH@?$AA?$CF?$AAl?$AAs@ 00000001800abad8     libvcruntimed:winapi_downlevel.obj
 0002:00001ae0       ??_C@_1BA@PFFKHIOG@?$AAa?$AAp?$AAi?$AA?9?$AAm?$AAs?$AA?9@ 00000001800abae0     libvcruntimed:winapi_downlevel.obj
 0002:00001af0       ??_C@_1EM@LBIFGLGH@?$AAc?$AAa?$AAc?$AAh?$AAe?$AAd?$AA_?$AAh?$AAa?$AAn?$AAd?$AAl?$AAe?$AA?5?$AA?$DN@ 00000001800abaf0     libvcruntimed:winapi_downlevel.obj
 0002:00001b40       ??_C@_1JO@JMJNNNEO@?$AAD?$AA?3?$AA?2?$AAa?$AAg?$AAe?$AAn?$AAt?$AA?2?$AA_?$AAw?$AAo?$AAr?$AAk?$AA?2@ 00000001800abb40     libvcruntimed:winapi_downlevel.obj
 0002:00001be0       ??_C@_1DI@MAHEDLDB@?$AAc?$AAa?$AAc?$AAh?$AAe?$AAd?$AA_?$AAh?$AAa?$AAn?$AAd?$AAl?$AAe?$AA?5?$AA?$DN@ 00000001800abbe0     libvcruntimed:winapi_downlevel.obj
 0002:00001c20       ??_C@_1FC@IBNCGNKL@?$AAc?$AAa?$AAc?$AAh?$AAe?$AAd?$AA_?$AAf?$AAp?$AA?5?$AA?$DN?$AA?$DN?$AA?5?$AAi?$AAn@ 00000001800abc20     libvcruntimed:winapi_downlevel.obj
 0002:00001c78       ??_C@_1CI@GDJBAGLP@?$AAc?$AAa?$AAc?$AAh?$AAe?$AAd?$AA_?$AAf?$AAp?$AA?5?$AA?$DN?$AA?$DN?$AA?5?$AAn?$AAe@ 00000001800abc78     libvcruntimed:winapi_downlevel.obj
 0002:00001ca8       ??_C@_08KNHFBNJ@FlsAlloc@  00000001800abca8     libvcruntimed:winapi_downlevel.obj
 0002:00001cc0       ??_C@_07PEJMOBNF@FlsFree@  00000001800abcc0     libvcruntimed:winapi_downlevel.obj
 0002:00001cd0       ??_C@_0M@GDNOONDI@FlsGetValue@ 00000001800abcd0     libvcruntimed:winapi_downlevel.obj
 0002:00001ce8       ??_C@_0M@JCPCPOEF@FlsSetValue@ 00000001800abce8     libvcruntimed:winapi_downlevel.obj
 0002:00001d00       ??_C@_0BM@HCFOFFN@InitializeCriticalSectionEx@ 00000001800abd00     libvcruntimed:winapi_downlevel.obj
 0002:00001d28       ??_7exception@std@@6B@     00000001800abd28     libvcruntimed:frame.obj
 0002:00001d38       ??_C@_0BC@EOODALEL@Unknown?5exception@ 00000001800abd38     libvcruntimed:frame.obj
 0002:00001d58       ??_7bad_exception@std@@6B@ 00000001800abd58     libvcruntimed:frame.obj
 0002:00001d68       ??_C@_0O@DPKOEFFH@bad?5exception@ 00000001800abd68     libvcruntimed:frame.obj
 0002:00001d80       ??_C@_1FK@OACNEHHA@?$AAt?$AAo?$AA?9?$AA?$DO?$AA_?$AAW?$AAh?$AAa?$AAt?$AA?5?$AA?$DN?$AA?$DN?$AA?5?$AAn?$AAu@ 00000001800abd80     libvcruntimed:std_exception.obj
 0002:00001de0       ??_C@_1IM@ELOFIIDB@?$AAD?$AA?3?$AA?2?$AAa?$AAg?$AAe?$AAn?$AAt?$AA?2?$AA_?$AAw?$AAo?$AAr?$AAk?$AA?2@ 00000001800abde0     libvcruntimed:std_exception.obj
 0002:00001e70       ??_C@_0CP@GDJHIDC@minkernel?2crts?2ucrt?2src?2appcrt?2@ 00000001800abe70     libucrtd:_file.obj
 0002:00001ea0       ??_C@_1DC@OGOLMDEL@?$AAp?$AAu?$AAb?$AAl?$AAi?$AAc?$AA_?$AAs?$AAt?$AAr?$AAe?$AAa?$AAm?$AA?5?$AA?$CB@ 00000001800abea0     libucrtd:_file.obj
 0002:00001ee0       ??_C@_1FO@IEGKHABE@?$AAm?$AAi?$AAn?$AAk?$AAe?$AAr?$AAn?$AAe?$AAl?$AA?2?$AAc?$AAr?$AAt?$AAs?$AA?2@ 00000001800abee0     libucrtd:_file.obj
 0002:00001f40       ??_C@_1DI@PJGMCDLC@?$AA_?$AAg?$AAe?$AAt?$AA_?$AAs?$AAt?$AAr?$AAe?$AAa?$AAm?$AA_?$AAb?$AAu?$AAf@ 00000001800abf40     libucrtd:_file.obj
 0002:00001f78       _Fenv1                     00000001800abf78     libucrtd:output.obj
 0002:00001f80       ?standard_lookup_table_spectre@__crt_stdio_output@@3V?$spectre_mitigated_lookup_table@Ustate_transition_pair@__crt_stdio_output@@$0IA@@1@B 00000001800abf80     libucrtd:output.obj
 0002:00002080       ?format_validation_lookup_table_spectre@__crt_stdio_output@@3V?$spectre_mitigated_lookup_table@Ustate_transition_pair@__crt_stdio_output@@$0IA@@1@B 00000001800ac080     libucrtd:output.obj
 0002:000025e0       ??_C@_1BDG@MKBKGHOH@?$AA?$CI?$AA?5?$AA?$CI?$AA_?$AAS?$AAt?$AAr?$AAe?$AAa?$AAm?$AA?4?$AAi?$AAs?$AA_?$AAs@ 00000001800ac5e0     libucrtd:output.obj
 0002:00002720       ??_C@_1GC@LCDLABEA@?$AAm?$AAi?$AAn?$AAk?$AAe?$AAr?$AAn?$AAe?$AAl?$AA?2?$AAc?$AAr?$AAt?$AAs?$AA?2@ 00000001800ac720     libucrtd:output.obj
 0002:00002790       ??_C@_1II@DIIMCJOK@?$AA_?$AA_?$AAa?$AAc?$AAr?$AAt?$AA_?$AAs?$AAt?$AAd?$AAi?$AAo?$AA_?$AAc?$AAh@ 00000001800ac790     libucrtd:output.obj
 0002:00002820       ??_C@_1GE@DPGDJKLM@?$AAm?$AAi?$AAn?$AAk?$AAe?$AAr?$AAn?$AAe?$AAl?$AA?2?$AAc?$AAr?$AAt?$AAs?$AA?2@ 00000001800ac820     libucrtd:output.obj
 0002:00002888       ??_C@_1CE@JLIJLEKO@?$AAs?$AAt?$AAr?$AAe?$AAa?$AAm?$AA?5?$AA?$CB?$AA?$DN?$AA?5?$AAn?$AAu?$AAl?$AAl?$AAp@ 00000001800ac888     libucrtd:output.obj
 0002:000028b0       ??_C@_1GA@MOBAPGIO@?$AAm?$AAi?$AAn?$AAk?$AAe?$AAr?$AAn?$AAe?$AAl?$AA?2?$AAc?$AAr?$AAt?$AAs?$AA?2@ 00000001800ac8b0     libucrtd:output.obj
 0002:00002910       ??_C@_1CA@GELIJBMC@?$AAc?$AAo?$AAm?$AAm?$AAo?$AAn?$AA_?$AAv?$AAf?$AAp?$AAr?$AAi?$AAn?$AAt?$AAf@ 00000001800ac910     libucrtd:output.obj
 0002:00002930       ??_C@_1CE@EAKLPBKK@?$AAf?$AAo?$AAr?$AAm?$AAa?$AAt?$AA?5?$AA?$CB?$AA?$DN?$AA?5?$AAn?$AAu?$AAl?$AAl?$AAp@ 00000001800ac930     libucrtd:output.obj
 0002:00002958       ??_C@_1CA@PIMGHCEK@?$AAc?$AAo?$AAm?$AAm?$AAo?$AAn?$AA_?$AAv?$AAs?$AAp?$AAr?$AAi?$AAn?$AAt?$AAf@ 00000001800ac958     libucrtd:output.obj
 0002:00002980       ??_C@_1EO@EGEEFEFM@?$AAb?$AAu?$AAf?$AAf?$AAe?$AAr?$AA_?$AAc?$AAo?$AAu?$AAn?$AAt?$AA?5?$AA?$DN?$AA?$DN@ 00000001800ac980     libucrtd:output.obj
 0002:000029d0       ??_C@_1CE@JEILLNB@?$AAc?$AAo?$AAm?$AAm?$AAo?$AAn?$AA_?$AAv?$AAs?$AAp?$AAr?$AAi?$AAn?$AAt?$AAf@ 00000001800ac9d0     libucrtd:output.obj
 0002:00002a00       ??_C@_1EM@OAFHAOLH@?$AAb?$AAu?$AAf?$AAf?$AAe?$AAr?$AA?5?$AA?$CB?$AA?$DN?$AA?5?$AAn?$AAu?$AAl?$AAl?$AAp@ 00000001800aca00     libucrtd:output.obj
 0002:00002a50       ??_C@_1DA@HPBFKMEB@?$AA?$CI?$AA?$CC?$AAB?$AAu?$AAf?$AAf?$AAe?$AAr?$AA?5?$AAt?$AAo?$AAo?$AA?5?$AAs?$AAm@ 00000001800aca50     libucrtd:output.obj
 0002:00002a80       ??_C@_1CG@LHFJHFBB@?$AAc?$AAo?$AAm?$AAm?$AAo?$AAn?$AA_?$AAv?$AAs?$AAn?$AAp?$AAr?$AAi?$AAn?$AAt@ 00000001800aca80     libucrtd:output.obj
 0002:00002aa8       ??_C@_1CM@JOIJBMEM@?$AA_?$AAf?$AAo?$AAr?$AAm?$AAa?$AAt?$AA_?$AAi?$AAt?$AA?5?$AA?$CB?$AA?$DN?$AA?5?$AAn@ 00000001800acaa8     libucrtd:output.obj
 0002:00002ae0       ??_C@_1HA@DMAAKIJP@?$AAm?$AAi?$AAn?$AAk?$AAe?$AAr?$AAn?$AAe?$AAl?$AA?2?$AAc?$AAr?$AAt?$AAs?$AA?2@ 00000001800acae0     libucrtd:output.obj
 0002:00002b50       ??_C@_1BNA@OIIAGHJI@?$AA_?$AA_?$AAc?$AAr?$AAt?$AA_?$AAs?$AAt?$AAd?$AAi?$AAo?$AA_?$AAo?$AAu?$AAt@ 00000001800acb50     libucrtd:output.obj
 0002:00002d20       ??_C@_1EE@DMAIGNBG@?$AA?$CI?$AA?$CC?$AAI?$AAn?$AAc?$AAo?$AAr?$AAr?$AAe?$AAc?$AAt?$AA?5?$AAf?$AAo?$AAr@ 00000001800acd20     libucrtd:output.obj
 0002:00002d70       ??_C@_1BLI@EGFICANE@?$AA_?$AA_?$AAc?$AAr?$AAt?$AA_?$AAs?$AAt?$AAd?$AAi?$AAo?$AA_?$AAo?$AAu?$AAt@ 00000001800acd70     libucrtd:output.obj
 0002:00002f30       ??_C@_1BLI@IKDKMDHI@?$AA_?$AA_?$AAc?$AAr?$AAt?$AA_?$AAs?$AAt?$AAd?$AAi?$AAo?$AA_?$AAo?$AAu?$AAt@ 00000001800acf30     libucrtd:output.obj
 0002:000030f0       ??_C@_1BKA@DNADAJMC@?$AA_?$AA_?$AAc?$AAr?$AAt?$AA_?$AAs?$AAt?$AAd?$AAi?$AAo?$AA_?$AAo?$AAu?$AAt@ 00000001800ad0f0     libucrtd:output.obj
 0002:00003290       ??_C@_1BNA@HGLCOOBP@?$AA_?$AA_?$AAc?$AAr?$AAt?$AA_?$AAs?$AAt?$AAd?$AAi?$AAo?$AA_?$AAo?$AAu?$AAt@ 00000001800ad290     libucrtd:output.obj
 0002:00003460       ??_C@_1BLI@FOCNEPKJ@?$AA_?$AA_?$AAc?$AAr?$AAt?$AA_?$AAs?$AAt?$AAd?$AAi?$AAo?$AA_?$AAo?$AAu?$AAt@ 00000001800ad460     libucrtd:output.obj
 0002:00003620       ??_C@_1BMK@CPBKHDIH@?$AA_?$AA_?$AAc?$AAr?$AAt?$AA_?$AAs?$AAt?$AAd?$AAi?$AAo?$AA_?$AAo?$AAu?$AAt@ 00000001800ad620     libucrtd:output.obj
 0002:000037f0       ??_C@_1BLC@PMCLHHAE@?$AA_?$AA_?$AAc?$AAr?$AAt?$AA_?$AAs?$AAt?$AAd?$AAi?$AAo?$AA_?$AAo?$AAu?$AAt@ 00000001800ad7f0     libucrtd:output.obj
 0002:000039b0       ??_C@_1BLI@EEAAPJD@?$AA_?$AA_?$AAc?$AAr?$AAt?$AA_?$AAs?$AAt?$AAd?$AAi?$AAo?$AA_?$AAo?$AAu?$AAt@ 00000001800ad9b0     libucrtd:output.obj
 0002:00003b70       ??_C@_1BKA@IIAAOGBO@?$AA_?$AA_?$AAc?$AAr?$AAt?$AA_?$AAs?$AAt?$AAd?$AAi?$AAo?$AA_?$AAo?$AAu?$AAt@ 00000001800adb70     libucrtd:output.obj
 0002:00003d10       ??_C@_1FG@OBJBDPAC@?$AA?$CI?$AA?$CC?$AAN?$AA?5?$AAl?$AAe?$AAn?$AAg?$AAt?$AAh?$AA?5?$AAm?$AAo?$AAd?$AAi@ 00000001800add10     libucrtd:output.obj
 0002:00003d70       ??_C@_1BOA@BMEGDMHF@?$AA_?$AA_?$AAc?$AAr?$AAt?$AA_?$AAs?$AAt?$AAd?$AAi?$AAo?$AA_?$AAo?$AAu?$AAt@ 00000001800add70     libucrtd:output.obj
 0002:00003f50       ??_C@_1EC@GJPNJDCN@?$AA_?$AAl?$AAe?$AAn?$AAg?$AAt?$AAh?$AA?5?$AA?$DN?$AA?$DN?$AA?5?$AAl?$AAe?$AAn?$AAg@ 00000001800adf50     libucrtd:output.obj
 0002:00003f98       ??_C@_1DG@CEJKFDMO@?$AAs?$AAt?$AAa?$AAt?$AAe?$AA_?$AAc?$AAa?$AAs?$AAe?$AA_?$AAn?$AAo?$AAr?$AAm@ 00000001800adf98     libucrtd:output.obj
 0002:00003fd0       ??_C@_1BOE@IPKNNOEE@?$AA_?$AA_?$AAc?$AAr?$AAt?$AA_?$AAs?$AAt?$AAd?$AAi?$AAo?$AA_?$AAo?$AAu?$AAt@ 00000001800adfd0     libucrtd:output.obj
 0002:000041c0       ??_C@_1IC@NLEOMCDL@?$AA_?$AAt?$AAy?$AAp?$AAe?$AA_?$AAi?$AAn?$AAd?$AAe?$AAx?$AA?5?$AA?$DO?$AA?$DN?$AA?5@ 00000001800ae1c0     libucrtd:output.obj
 0002:00004250       ??_C@_1BFK@KNCMELHH@?$AA_?$AA_?$AAc?$AAr?$AAt?$AA_?$AAs?$AAt?$AAd?$AAi?$AAo?$AA_?$AAo?$AAu?$AAt@ 00000001800ae250     libucrtd:output.obj
 0002:000043b0       ??_C@_1FK@BCPANIEK@?$AA?$CI?$AA?$CC?$AAM?$AAi?$AAs?$AAs?$AAi?$AAn?$AAg?$AA?5?$AAp?$AAo?$AAs?$AAi?$AAt@ 00000001800ae3b0     libucrtd:output.obj
 0002:00004410       ??_C@_1BEI@IHLBHMLJ@?$AA_?$AA_?$AAc?$AAr?$AAt?$AA_?$AAs?$AAt?$AAd?$AAi?$AAo?$AA_?$AAo?$AAu?$AAt@ 00000001800ae410     libucrtd:output.obj
 0002:00004560       ??_C@_1BMI@LKDDDFDL@?$AA_?$AA_?$AAc?$AAr?$AAt?$AA_?$AAs?$AAt?$AAd?$AAi?$AAo?$AA_?$AAo?$AAu?$AAt@ 00000001800ae560     libucrtd:output.obj
 0002:00004730       ??_C@_1BMM@JGEKEBKL@?$AA_?$AA_?$AAc?$AAr?$AAt?$AA_?$AAs?$AAt?$AAd?$AAi?$AAo?$AA_?$AAo?$AAu?$AAt@ 00000001800ae730     libucrtd:output.obj
 0002:00004900       ??_C@_1BEO@ODGKIOAL@?$AA_?$AA_?$AAc?$AAr?$AAt?$AA_?$AAs?$AAt?$AAd?$AAi?$AAo?$AA_?$AAo?$AAu?$AAt@ 00000001800ae900     libucrtd:output.obj
 0002:00004a50       ??_C@_1BDM@GFCGMNL@?$AA_?$AA_?$AAc?$AAr?$AAt?$AA_?$AAs?$AAt?$AAd?$AAi?$AAo?$AA_?$AAo?$AAu?$AAt@ 00000001800aea50     libucrtd:output.obj
 0002:00004b90       ??_C@_1BMI@KBPJOJJI@?$AA_?$AA_?$AAc?$AAr?$AAt?$AA_?$AAs?$AAt?$AAd?$AAi?$AAo?$AA_?$AAo?$AAu?$AAt@ 00000001800aeb90     libucrtd:output.obj
 0002:00004d60       ??_C@_1BMM@PGHHMNDM@?$AA_?$AA_?$AAc?$AAr?$AAt?$AA_?$AAs?$AAt?$AAd?$AAi?$AAo?$AA_?$AAo?$AAu?$AAt@ 00000001800aed60     libucrtd:output.obj
 0002:00004f30       ??_C@_1CI@DDKMNCPP@?$AA_?$AAc?$AAo?$AAn?$AAt?$AAe?$AAx?$AAt?$AA?5?$AA?$CB?$AA?$DN?$AA?5?$AAn?$AAu?$AAl@ 00000001800aef30     libucrtd:output.obj
 0002:00004f60       ??_C@_1HK@IIPGOADH@?$AA_?$AA_?$AAc?$AAr?$AAt?$AA_?$AAs?$AAt?$AAd?$AAi?$AAo?$AA_?$AAo?$AAu?$AAt@ 00000001800aef60     libucrtd:output.obj
 0002:00004fe0       ??_C@_1BLA@MEDMHIOH@?$AA_?$AA_?$AAc?$AAr?$AAt?$AA_?$AAs?$AAt?$AAd?$AAi?$AAo?$AA_?$AAo?$AAu?$AAt@ 00000001800aefe0     libucrtd:output.obj
 0002:00005190       ??_C@_1BLE@LCKPBJON@?$AA_?$AA_?$AAc?$AAr?$AAt?$AA_?$AAs?$AAt?$AAd?$AAi?$AAo?$AA_?$AAo?$AAu?$AAt@ 00000001800af190     libucrtd:output.obj
 0002:00005350       ??_C@_1HE@IACOMEJF@?$AA_?$AA_?$AAc?$AAr?$AAt?$AA_?$AAs?$AAt?$AAd?$AAi?$AAo?$AA_?$AAo?$AAu?$AAt@ 00000001800af350     libucrtd:output.obj
 0002:000053d0       ??_C@_1BOA@CBIEMBEE@?$AA_?$AA_?$AAc?$AAr?$AAt?$AA_?$AAs?$AAt?$AAd?$AAi?$AAo?$AA_?$AAo?$AAu?$AAt@ 00000001800af3d0     libucrtd:output.obj
 0002:000055b0       ??_C@_1BOE@NLICFINO@?$AA_?$AA_?$AAc?$AAr?$AAt?$AA_?$AAs?$AAt?$AAd?$AAi?$AAo?$AA_?$AAo?$AAu?$AAt@ 00000001800af5b0     libucrtd:output.obj
 0002:000057a0       ??_C@_1BFK@IOIDDMPJ@?$AA_?$AA_?$AAc?$AAr?$AAt?$AA_?$AAs?$AAt?$AAd?$AAi?$AAo?$AA_?$AAo?$AAu?$AAt@ 00000001800af7a0     libucrtd:output.obj
 0002:00005900       ??_C@_1BEI@JNJAFAD@?$AA_?$AA_?$AAc?$AAr?$AAt?$AA_?$AAs?$AAt?$AAd?$AAi?$AAo?$AA_?$AAo?$AAu?$AAt@ 00000001800af900     libucrtd:output.obj
 0002:00005a50       ??_C@_1BMI@PKGBOKJK@?$AA_?$AA_?$AAc?$AAr?$AAt?$AA_?$AAs?$AAt?$AAd?$AAi?$AAo?$AA_?$AAo?$AAu?$AAt@ 00000001800afa50     libucrtd:output.obj
 0002:00005c20       ??_C@_1BMM@BLBJDDIA@?$AA_?$AA_?$AAc?$AAr?$AAt?$AA_?$AAs?$AAt?$AAd?$AAi?$AAo?$AA_?$AAo?$AAu?$AAt@ 00000001800afc20     libucrtd:output.obj
 0002:00005df0       ??_C@_1BEO@JEHLMMKB@?$AA_?$AA_?$AAc?$AAr?$AAt?$AA_?$AAs?$AAt?$AAd?$AAi?$AAo?$AA_?$AAo?$AAu?$AAt@ 00000001800afdf0     libucrtd:output.obj
 0002:00005f40       ??_C@_1BDM@FDOLKCHK@?$AA_?$AA_?$AAc?$AAr?$AAt?$AA_?$AAs?$AAt?$AAd?$AAi?$AAo?$AA_?$AAo?$AAu?$AAt@ 00000001800aff40     libucrtd:output.obj
 0002:00006080       ??_C@_1BNK@ONPHCEAM@?$AA_?$AA_?$AAc?$AAr?$AAt?$AA_?$AAs?$AAt?$AAd?$AAi?$AAo?$AA_?$AAo?$AAu?$AAt@ 00000001800b0080     libucrtd:output.obj
 0002:00006260       ??_C@_1BNO@LMMLJOOJ@?$AA_?$AA_?$AAc?$AAr?$AAt?$AA_?$AAs?$AAt?$AAd?$AAi?$AAo?$AA_?$AAo?$AAu?$AAt@ 00000001800b0260     libucrtd:output.obj
 0002:00006440       ??_C@_1GC@BNMHNGKM@?$AA_?$AAs?$AAt?$AAa?$AAt?$AAe?$AA?5?$AA?$DN?$AA?$DN?$AA?5?$AAs?$AAt?$AAa?$AAt?$AAe@ 00000001800b0440     libucrtd:output.obj
 0002:000064b0       ??_C@_1BEC@FNIGNBHI@?$AA_?$AA_?$AAc?$AAr?$AAt?$AA_?$AAs?$AAt?$AAd?$AAi?$AAo?$AA_?$AAo?$AAu?$AAt@ 00000001800b04b0     libucrtd:output.obj
 0002:00006600       ??_C@_1BMC@DAENMDAD@?$AA_?$AA_?$AAc?$AAr?$AAt?$AA_?$AAs?$AAt?$AAd?$AAi?$AAo?$AA_?$AAo?$AAu?$AAt@ 00000001800b0600     libucrtd:output.obj
 0002:000067d0       ??_C@_1BMG@KOENKAMB@?$AA_?$AA_?$AAc?$AAr?$AAt?$AA_?$AAs?$AAt?$AAd?$AAi?$AAo?$AA_?$AAo?$AAu?$AAt@ 00000001800b07d0     libucrtd:output.obj
 0002:000069a0       ??_C@_1BDG@PLANJEFE@?$AA_?$AA_?$AAc?$AAr?$AAt?$AA_?$AAs?$AAt?$AAd?$AAi?$AAo?$AA_?$AAo?$AAu?$AAt@ 00000001800b09a0     libucrtd:output.obj
 0002:00006ae0       ??_C@_1BMI@DNMDMAAN@?$AA_?$AA_?$AAc?$AAr?$AAt?$AA_?$AAs?$AAt?$AAd?$AAi?$AAo?$AA_?$AAo?$AAu?$AAt@ 00000001800b0ae0     libucrtd:output.obj
 0002:00006cb0       ??_C@_1BMM@JHGFKAND@?$AA_?$AA_?$AAc?$AAr?$AAt?$AA_?$AAs?$AAt?$AAd?$AAi?$AAo?$AA_?$AAo?$AAu?$AAt@ 00000001800b0cb0     libucrtd:output.obj
 0002:00006e80       ??_C@_1CA@ONEGMNAN@?$AA_?$AAs?$AAt?$AAr?$AAe?$AAa?$AAm?$AA?4?$AAv?$AAa?$AAl?$AAi?$AAd?$AA?$CI?$AA?$CJ@ 00000001800b0e80     libucrtd:output.obj
 0002:00006ea0       ??_C@_1HK@MPBCDOK@?$AA_?$AA_?$AAc?$AAr?$AAt?$AA_?$AAs?$AAt?$AAd?$AAi?$AAo?$AA_?$AAo?$AAu?$AAt@ 00000001800b0ea0     libucrtd:output.obj
 0002:00006f20       ??_C@_1BLA@GJNGKGIK@?$AA_?$AA_?$AAc?$AAr?$AAt?$AA_?$AAs?$AAt?$AAd?$AAi?$AAo?$AA_?$AAo?$AAu?$AAt@ 00000001800b0f20     libucrtd:output.obj
 0002:000070d0       ??_C@_1BLE@PAACOKDK@?$AA_?$AA_?$AAc?$AAr?$AAt?$AA_?$AAs?$AAt?$AAd?$AAi?$AAo?$AA_?$AAo?$AAu?$AAt@ 00000001800b10d0     libucrtd:output.obj
 0002:00007290       ??_C@_1HE@FGKHNBNL@?$AA_?$AA_?$AAc?$AAr?$AAt?$AA_?$AAs?$AAt?$AAd?$AAi?$AAo?$AA_?$AAo?$AAu?$AAt@ 00000001800b1290     libucrtd:output.obj
 0002:00007310       ??_C@_1EK@PNGFDECN@?$AA?$CI?$AA?$CC?$AA?8?$AAn?$AA?8?$AA?5?$AAf?$AAo?$AAr?$AAm?$AAa?$AAt?$AA?5?$AAs?$AAp@ 00000001800b1310     libucrtd:output.obj
 0002:00007360       ??_C@_1BNI@OPBGCNOB@?$AA_?$AA_?$AAc?$AAr?$AAt?$AA_?$AAs?$AAt?$AAd?$AAi?$AAo?$AA_?$AAo?$AAu?$AAt@ 00000001800b1360     libucrtd:output.obj
 0002:00007540       ??_C@_1EO@GHKFGFKL@?$AA?$CI?$AA?$CC?$AAI?$AAn?$AAv?$AAa?$AAl?$AAi?$AAd?$AA?5?$AAi?$AAn?$AAt?$AAe?$AAg@ 00000001800b1540     libucrtd:output.obj
 0002:00007590       ??_C@_1JC@PMCLKCOC@?$AAp?$AAr?$AAe?$AAc?$AAi?$AAs?$AAi?$AAo?$AAn?$AA_?$AAi?$AAn?$AAd?$AAe?$AAx@ 00000001800b1590     libucrtd:output.obj
 0002:00007630       ??_C@_1BAG@GKCGGKOF@?$AA_?$AA_?$AAc?$AAr?$AAt?$AA_?$AAs?$AAt?$AAd?$AAi?$AAo?$AA_?$AAo?$AAu?$AAt@ 00000001800b1630     libucrtd:output.obj
 0002:00007740       ??_C@_1IC@KGDNLBNC@?$AAw?$AAi?$AAd?$AAt?$AAh?$AA_?$AAi?$AAn?$AAd?$AAe?$AAx?$AA?5?$AA?$DO?$AA?$DN?$AA?5@ 00000001800b1740     libucrtd:output.obj
 0002:000077d0       ??_C@_1BAK@CDLANFGA@?$AA_?$AA_?$AAc?$AAr?$AAt?$AA_?$AAs?$AAt?$AAd?$AAi?$AAo?$AA_?$AAo?$AAu?$AAt@ 00000001800b17d0     libucrtd:output.obj
 0002:000078e0       ??_C@_1BEC@NDOOKIMC@?$AA_?$AA_?$AAc?$AAr?$AAt?$AA_?$AAs?$AAt?$AAd?$AAi?$AAo?$AA_?$AAo?$AAu?$AAt@ 00000001800b18e0     libucrtd:output.obj
 0002:00007a30       ??_C@_1BMA@CBPCAOAB@?$AA_?$AA_?$AAc?$AAr?$AAt?$AA_?$AAs?$AAt?$AAd?$AAi?$AAo?$AA_?$AAo?$AAu?$AAt@ 00000001800b1a30     libucrtd:output.obj
 0002:00007bf0       ??_C@_1PK@KBJLALII@?$AA_?$AA_?$AAc?$AAr?$AAt?$AA_?$AAs?$AAt?$AAd?$AAi?$AAo?$AA_?$AAo?$AAu?$AAt@ 00000001800b1bf0     libucrtd:output.obj
 0002:00007cf0       ??_C@_1PO@PODEJAGE@?$AA_?$AA_?$AAc?$AAr?$AAt?$AA_?$AAs?$AAt?$AAd?$AAi?$AAo?$AA_?$AAo?$AAu?$AAt@ 00000001800b1cf0     libucrtd:output.obj
 0002:00007df0       ??_C@_1BDG@KOLEFKPF@?$AA_?$AA_?$AAc?$AAr?$AAt?$AA_?$AAs?$AAt?$AAd?$AAi?$AAo?$AA_?$AAo?$AAu?$AAt@ 00000001800b1df0     libucrtd:output.obj
 0002:00007f30       ??_C@_1BMA@IHIBOLMD@?$AA_?$AA_?$AAc?$AAr?$AAt?$AA_?$AAs?$AAt?$AAd?$AAi?$AAo?$AA_?$AAo?$AAu?$AAt@ 00000001800b1f30     libucrtd:output.obj
 0002:000080f0       ??_C@_1BKI@CJEIGDAI@?$AA_?$AA_?$AAc?$AAr?$AAt?$AA_?$AAs?$AAt?$AAd?$AAi?$AAo?$AA_?$AAo?$AAu?$AAt@ 00000001800b20f0     libucrtd:output.obj
 0002:000082a0       ??_C@_1BNI@IMOCDBNE@?$AA_?$AA_?$AAc?$AAr?$AAt?$AA_?$AAs?$AAt?$AAd?$AAi?$AAo?$AA_?$AAo?$AAu?$AAt@ 00000001800b22a0     libucrtd:output.obj
 0002:00008480       ??_C@_1BAG@DOFNHDMF@?$AA_?$AA_?$AAc?$AAr?$AAt?$AA_?$AAs?$AAt?$AAd?$AAi?$AAo?$AA_?$AAo?$AAu?$AAt@ 00000001800b2480     libucrtd:output.obj
 0002:00008590       ??_C@_1BAK@DALINHHB@?$AA_?$AA_?$AAc?$AAr?$AAt?$AA_?$AAs?$AAt?$AAd?$AAi?$AAo?$AA_?$AAo?$AAu?$AAt@ 00000001800b2590     libucrtd:output.obj
 0002:000086a0       ??_C@_1BMA@GACGPGHN@?$AA_?$AA_?$AAc?$AAr?$AAt?$AA_?$AAs?$AAt?$AAd?$AAi?$AAo?$AA_?$AAo?$AAu?$AAt@ 00000001800b26a0     libucrtd:output.obj
 0002:00008860       ??_C@_1PK@KBJECIEM@?$AA_?$AA_?$AAc?$AAr?$AAt?$AA_?$AAs?$AAt?$AAd?$AAi?$AAo?$AA_?$AAo?$AAu?$AAt@ 00000001800b2860     libucrtd:output.obj
 0002:00008960       ??_C@_1PO@LKIIANED@?$AA_?$AA_?$AAc?$AAr?$AAt?$AA_?$AAs?$AAt?$AAd?$AAi?$AAo?$AA_?$AAo?$AAu?$AAt@ 00000001800b2960     libucrtd:output.obj
 0002:00008a60       ??_C@_1BNC@DONELHFF@?$AA_?$AA_?$AAc?$AAr?$AAt?$AA_?$AAs?$AAt?$AAd?$AAi?$AAo?$AA_?$AAo?$AAu?$AAt@ 00000001800b2a60     libucrtd:output.obj
 0002:00008c40       ??_C@_1BLK@BGFMMAPO@?$AA_?$AA_?$AAc?$AAr?$AAt?$AA_?$AAs?$AAt?$AAd?$AAi?$AAo?$AA_?$AAo?$AAu?$AAt@ 00000001800b2c40     libucrtd:output.obj
 0002:00008e00       ??_C@_1BMA@PGOJAHFP@?$AA_?$AA_?$AAc?$AAr?$AAt?$AA_?$AAs?$AAt?$AAd?$AAi?$AAo?$AA_?$AAo?$AAu?$AAt@ 00000001800b2e00     libucrtd:output.obj
 0002:00008fc0       ??_C@_1BKI@NDKBCDGP@?$AA_?$AA_?$AAc?$AAr?$AAt?$AA_?$AAs?$AAt?$AAd?$AAi?$AAo?$AA_?$AAo?$AAu?$AAt@ 00000001800b2fc0     libucrtd:output.obj
 0002:00009168       ??_C@_1O@CEDCILHN@?$AA?$CI?$AAn?$AAu?$AAl?$AAl?$AA?$CJ@ 00000001800b3168     libucrtd:output.obj
 0002:00009178       ??_C@_06OJHGLDPL@?$CInull?$CJ@ 00000001800b3178     libucrtd:output.obj
 0002:00009180       ??_C@_1LO@HECDHMMI@?$AAi?$AAs?$AA_?$AAp?$AAo?$AAs?$AAi?$AAt?$AAi?$AAo?$AAn?$AAa?$AAl?$AA_?$AAp@ 00000001800b3180     libucrtd:output.obj
 0002:00009240       ??_C@_1BCI@OBMMNJKK@?$AA_?$AA_?$AAc?$AAr?$AAt?$AA_?$AAs?$AAt?$AAd?$AAi?$AAo?$AA_?$AAo?$AAu?$AAt@ 00000001800b3240     libucrtd:output.obj
 0002:00009370       ??_C@_1FE@IAFJEKN@?$AA_?$AAt?$AAy?$AAp?$AAe?$AA_?$AAi?$AAn?$AAd?$AAe?$AAx?$AA?5?$AA?$DO?$AA?$DN?$AA?5@ 00000001800b3370     libucrtd:output.obj
 0002:000093d0       ??_C@_1BCC@GJLKCHIG@?$AA_?$AA_?$AAc?$AAr?$AAt?$AA_?$AAs?$AAt?$AAd?$AAi?$AAo?$AA_?$AAo?$AAu?$AAt@ 00000001800b33d0     libucrtd:output.obj
 0002:000094f8       ??_C@_1CK@LGDCECDH@?$AA_?$AAf?$AAo?$AAr?$AAm?$AAa?$AAt?$AA_?$AAc?$AAh?$AAa?$AAr?$AA?5?$AA?$CB?$AA?$DN@ 00000001800b34f8     libucrtd:output.obj
 0002:00009530       ??_C@_1BNI@EDCGAPJB@?$AA_?$AA_?$AAc?$AAr?$AAt?$AA_?$AAs?$AAt?$AAd?$AAi?$AAo?$AA_?$AAo?$AAu?$AAt@ 00000001800b3530     libucrtd:output.obj
 0002:00009710       ??_C@_1BBM@CBBAFMPJ@?$AA_?$AA_?$AAc?$AAr?$AAt?$AA_?$AAs?$AAt?$AAd?$AAi?$AAo?$AA_?$AAo?$AAu?$AAt@ 00000001800b3710     libucrtd:output.obj
 0002:00009830       ??_C@_1BBG@KIHCHFIM@?$AA_?$AA_?$AAc?$AAr?$AAt?$AA_?$AAs?$AAt?$AAd?$AAi?$AAo?$AA_?$AAo?$AAu?$AAt@ 00000001800b3830     libucrtd:output.obj
 0002:00009950       ??_C@_1BMA@FANDDEHK@?$AA_?$AA_?$AAc?$AAr?$AAt?$AA_?$AAs?$AAt?$AAd?$AAi?$AAo?$AA_?$AAo?$AAu?$AAt@ 00000001800b3950     libucrtd:output.obj
 0002:00009b10       ??_C@_1BCI@ILAANKJG@?$AA_?$AA_?$AAc?$AAr?$AAt?$AA_?$AAs?$AAt?$AAd?$AAi?$AAo?$AA_?$AAo?$AAu?$AAt@ 00000001800b3b10     libucrtd:output.obj
 0002:00009c40       ??_C@_1BCC@PDNLFIHK@?$AA_?$AA_?$AAc?$AAr?$AAt?$AA_?$AAs?$AAt?$AAd?$AAi?$AAo?$AA_?$AAo?$AAu?$AAt@ 00000001800b3c40     libucrtd:output.obj
 0002:00009d70       ??_C@_1BNI@EJPCEBAG@?$AA_?$AA_?$AAc?$AAr?$AAt?$AA_?$AAs?$AAt?$AAd?$AAi?$AAo?$AA_?$AAo?$AAu?$AAt@ 00000001800b3d70     libucrtd:output.obj
 0002:00009f50       ??_C@_1BBM@LLHBCDAF@?$AA_?$AA_?$AAc?$AAr?$AAt?$AA_?$AAs?$AAt?$AAd?$AAi?$AAo?$AA_?$AAo?$AAu?$AAt@ 00000001800b3f50     libucrtd:output.obj
 0002:0000a070       ??_C@_1BBG@JLLDGFML@?$AA_?$AA_?$AAc?$AAr?$AAt?$AA_?$AAs?$AAt?$AAd?$AAi?$AAo?$AA_?$AAo?$AAu?$AAt@ 00000001800b4070     libucrtd:output.obj
 0002:0000a190       ??_C@_1BNC@BAMNIOCM@?$AA_?$AA_?$AAc?$AAr?$AAt?$AA_?$AAs?$AAt?$AAd?$AAi?$AAo?$AA_?$AAo?$AAu?$AAt@ 00000001800b4190     libucrtd:output.obj
 0002:0000a370       ??_C@_1BMA@MEBEEDJE@?$AA_?$AA_?$AAc?$AAr?$AAt?$AA_?$AAs?$AAt?$AAd?$AAi?$AAo?$AA_?$AAo?$AAu?$AAt@ 00000001800b4370     libucrtd:output.obj
 0002:0000a530       ??_C@_1BCA@HCPCJFGA@?$AA_?$AA_?$AAc?$AAr?$AAt?$AA_?$AAs?$AAt?$AAd?$AAi?$AAo?$AA_?$AAo?$AAu?$AAt@ 00000001800b4530     libucrtd:output.obj
 0002:0000a650       ??_C@_1BOE@LIBLDKPN@?$AA_?$AA_?$AAc?$AAr?$AAt?$AA_?$AAs?$AAt?$AAd?$AAi?$AAo?$AA_?$AAo?$AAu?$AAt@ 00000001800b4650     libucrtd:output.obj
 0002:0000a838       ??_C@_0DI@KIFBHMNO@minkernel?2crts?2ucrt?2inc?2corecrt@ 00000001800b4838     libucrtd:output.obj
 0002:0000a870       ??_C@_1BBE@IBPNPIIM@?$AA_?$AA_?$AAc?$AAr?$AAt?$AA_?$AAs?$AAt?$AAd?$AAi?$AAo?$AA_?$AAo?$AAu?$AAt@ 00000001800b4870     libucrtd:output.obj
 0002:0000a990       ??_C@_1BMM@KBPMKFBC@?$AA_?$AA_?$AAc?$AAr?$AAt?$AA_?$AAs?$AAt?$AAd?$AAi?$AAo?$AA_?$AAo?$AAu?$AAt@ 00000001800b4990     libucrtd:output.obj
 0002:0000ab60       ??_C@_1BMM@MBMBCJIF@?$AA_?$AA_?$AAc?$AAr?$AAt?$AA_?$AAs?$AAt?$AAd?$AAi?$AAo?$AA_?$AAo?$AAu?$AAt@ 00000001800b4b60     libucrtd:output.obj
 0002:0000ad30       ??_C@_1BLE@IFBJPNFE@?$AA_?$AA_?$AAc?$AAr?$AAt?$AA_?$AAs?$AAt?$AAd?$AAi?$AAo?$AA_?$AAo?$AAu?$AAt@ 00000001800b4d30     libucrtd:output.obj
 0002:0000aef0       ??_C@_1BCA@FCGNBIN@?$AA_?$AA_?$AAc?$AAr?$AAt?$AA_?$AAs?$AAt?$AAd?$AAi?$AAo?$AA_?$AAo?$AAu?$AAt@ 00000001800b4ef0     libucrtd:output.obj
 0002:0000b010       ??_C@_1BOE@OMDELMGH@?$AA_?$AA_?$AAc?$AAr?$AAt?$AA_?$AAs?$AAt?$AAd?$AAi?$AAo?$AA_?$AAo?$AAu?$AAt@ 00000001800b5010     libucrtd:output.obj
 0002:0000b200       ??_C@_1BBE@FLKADCDA@?$AA_?$AA_?$AAc?$AAr?$AAt?$AA_?$AAs?$AAt?$AAd?$AAi?$AAo?$AA_?$AAo?$AAu?$AAt@ 00000001800b5200     libucrtd:output.obj
 0002:0000b320       ??_C@_1BMM@CMKPNHDJ@?$AA_?$AA_?$AAc?$AAr?$AAt?$AA_?$AAs?$AAt?$AAd?$AAi?$AAo?$AA_?$AAo?$AAu?$AAt@ 00000001800b5320     libucrtd:output.obj
 0002:0000b4f0       ??_C@_1BNO@ILHNHKFA@?$AA_?$AA_?$AAc?$AAr?$AAt?$AA_?$AAs?$AAt?$AAd?$AAi?$AAo?$AA_?$AAo?$AAu?$AAt@ 00000001800b54f0     libucrtd:output.obj
 0002:0000b6d0       ??_C@_1BMG@JJPLEEHI@?$AA_?$AA_?$AAc?$AAr?$AAt?$AA_?$AAs?$AAt?$AAd?$AAi?$AAo?$AA_?$AAo?$AAu?$AAt@ 00000001800b56d0     libucrtd:output.obj
 0002:0000b8a0       ??_C@_1BMM@KANDEEGK@?$AA_?$AA_?$AAc?$AAr?$AAt?$AA_?$AAs?$AAt?$AAd?$AAi?$AAo?$AA_?$AAo?$AAu?$AAt@ 00000001800b58a0     libucrtd:output.obj
 0002:0000ba70       ??_C@_1BLE@MHLEAOID@?$AA_?$AA_?$AAc?$AAr?$AAt?$AA_?$AAs?$AAt?$AAd?$AAi?$AAo?$AA_?$AAo?$AAu?$AAt@ 00000001800b5a70     libucrtd:output.obj
 0002:0000bc30       ??_C@_1BMK@JGIBNIA@?$AA_?$AA_?$AAc?$AAr?$AAt?$AA_?$AAs?$AAt?$AAd?$AAi?$AAo?$AA_?$AAo?$AAu?$AAt@ 00000001800b5c30     libucrtd:output.obj
 0002:0000be00       ??_C@_1BLC@INKIGOCN@?$AA_?$AA_?$AAc?$AAr?$AAt?$AA_?$AAs?$AAt?$AAd?$AAi?$AAo?$AA_?$AAo?$AAu?$AAt@ 00000001800b5e00     libucrtd:output.obj
 0002:0000bfc0       ??_C@_1BNK@KHNJGCCP@?$AA_?$AA_?$AAc?$AAr?$AAt?$AA_?$AAs?$AAt?$AAd?$AAi?$AAo?$AA_?$AAo?$AAu?$AAt@ 00000001800b5fc0     libucrtd:output.obj
 0002:0000c1a0       ??_C@_1BNO@OHFFMOOJ@?$AA_?$AA_?$AAc?$AAr?$AAt?$AA_?$AAs?$AAt?$AAd?$AAi?$AAo?$AA_?$AAo?$AAu?$AAt@ 00000001800b61a0     libucrtd:output.obj
 0002:0000c380       ??_C@_1BMC@FAGJFBLI@?$AA_?$AA_?$AAc?$AAr?$AAt?$AA_?$AAs?$AAt?$AAd?$AAi?$AAo?$AA_?$AAo?$AAu?$AAt@ 00000001800b6380     libucrtd:output.obj
 0002:0000c550       ??_C@_1BMG@CGPDIFDK@?$AA_?$AA_?$AAc?$AAr?$AAt?$AA_?$AAs?$AAt?$AAd?$AAi?$AAo?$AA_?$AAo?$AAu?$AAt@ 00000001800b6550     libucrtd:output.obj
 0002:0000c720       ??_C@_1BNC@OHPDPPJK@?$AA_?$AA_?$AAc?$AAr?$AAt?$AA_?$AAs?$AAt?$AAd?$AAi?$AAo?$AA_?$AAo?$AAu?$AAt@ 00000001800b6720     libucrtd:output.obj
 0002:0000c900       ??_C@_1BLK@FOLFMPJH@?$AA_?$AA_?$AAc?$AAr?$AAt?$AA_?$AAs?$AAt?$AAd?$AAi?$AAo?$AA_?$AAo?$AAu?$AAt@ 00000001800b6900     libucrtd:output.obj
 0002:0000cac0       ??_C@_1BNC@JPKLPOHO@?$AA_?$AA_?$AAc?$AAr?$AAt?$AA_?$AAs?$AAt?$AAd?$AAi?$AAo?$AA_?$AAo?$AAu?$AAt@ 00000001800b6ac0     libucrtd:output.obj
 0002:0000cca0       ??_C@_1EO@MLJCKPIB@?$AAb?$AAa?$AAs?$AAe?$AA?5?$AA?$DN?$AA?$DN?$AA?5?$AA0?$AA?5?$AA?$HM?$AA?$HM?$AA?5?$AA?$CI?$AA2@ 00000001800b6ca0     libucrtd:output.obj
 0002:0000ccf0       ??_C@_1DI@BANODKFL@?$AA_?$AA_?$AAc?$AAr?$AAt?$AA_?$AAs?$AAt?$AAr?$AAt?$AAo?$AAx?$AA?3?$AA?3?$AAp@ 00000001800b6cf0     libucrtd:output.obj
 0002:0000cd30       ??_C@_1BNO@NAODCKFA@?$AA_?$AA_?$AAc?$AAr?$AAt?$AA_?$AAs?$AAt?$AAd?$AAi?$AAo?$AA_?$AAo?$AAu?$AAt@ 00000001800b6d30     libucrtd:output.obj
 0002:0000cf10       ??_C@_1BMG@BBEFGBID@?$AA_?$AA_?$AAc?$AAr?$AAt?$AA_?$AAs?$AAt?$AAd?$AAi?$AAo?$AA_?$AAo?$AAu?$AAt@ 00000001800b6f10     libucrtd:output.obj
 0002:0000d0d8       ??_C@_1CM@GJENOOEJ@?$AAc?$AA?5?$AA?$DN?$AA?$DN?$AA?5?$AA?8?$AA?2?$AA0?$AA?8?$AA?5?$AA?$HM?$AA?$HM?$AA?5?$AA?$CK?$AA_@ 00000001800b70d8     libucrtd:output.obj
 0002:0000d110       ??_C@_1GK@MNHIDABG@?$AA_?$AA_?$AAc?$AAr?$AAt?$AA_?$AAs?$AAt?$AAr?$AAt?$AAo?$AAx?$AA?3?$AA?3?$AAc@ 00000001800b7110     libucrtd:output.obj
 0002:0000d180       ??_C@_1BM@PNEBBBDO@?$AA_?$AAp?$AA?5?$AA?$CB?$AA?$DN?$AA?5?$AAn?$AAu?$AAl?$AAl?$AAp?$AAt?$AAr@ 00000001800b7180     libucrtd:output.obj
 0002:0000d1a0       ??_C@_1HA@MKKIHBHP@?$AA_?$AA_?$AAc?$AAr?$AAt?$AA_?$AAs?$AAt?$AAr?$AAt?$AAo?$AAx?$AA?3?$AA?3?$AAc@ 00000001800b71a0     libucrtd:output.obj
 0002:0000d210       ??_C@_1HA@CONLANFI@?$AA_?$AA_?$AAc?$AAr?$AAt?$AA_?$AAs?$AAt?$AAr?$AAt?$AAo?$AAx?$AA?3?$AA?3?$AAc@ 00000001800b7210     libucrtd:output.obj
 0002:0000d280       ??_C@_1HG@FCDBLOEG@?$AA_?$AA_?$AAc?$AAr?$AAt?$AA_?$AAs?$AAt?$AAr?$AAt?$AAo?$AAx?$AA?3?$AA?3?$AAc@ 00000001800b7280     libucrtd:output.obj
 0002:0000d300       __acrt_exception_action_table 00000001800b7300     libucrtd:exception_filter.obj
 0002:0000d3c0       __acrt_signal_action_table_count 00000001800b73c0     libucrtd:exception_filter.obj
 0002:0000d3c8       __acrt_signal_action_table_size 00000001800b73c8     libucrtd:exception_filter.obj
 0002:0000d3d0       __acrt_signal_action_first_fpe_index 00000001800b73d0     libucrtd:exception_filter.obj
 0002:0000d3d8       __acrt_signal_action_fpe_count 00000001800b73d8     libucrtd:exception_filter.obj
 0002:0000d3e0       RtlNtPathSeperatorString   00000001800b73e0     libucrtd:exit.obj
 0002:0000d3f0       ??_C@_13FPGAJAPJ@?$AA?2@   00000001800b73f0     libucrtd:exit.obj
 0002:0000d3f8       RtlDosPathSeperatorsString 00000001800b73f8     libucrtd:exit.obj
 0002:0000d408       ??_C@_15MNCACJLI@?$AA?2?$AA?1@ 00000001800b7408     libucrtd:exit.obj
 0002:0000d410       RtlAlternateDosPathSeperatorString 00000001800b7410     libucrtd:exit.obj
 0002:0000d420       ??_C@_13CGOKJPIL@?$AA?1@   00000001800b7420     libucrtd:exit.obj
 0002:0000d4a0       ??_C@_1BI@BGOHAHKC@?$AAm?$AAs?$AAc?$AAo?$AAr?$AAe?$AAe?$AA?4?$AAd?$AAl?$AAl@ 00000001800b74a0     libucrtd:exit.obj
 0002:0000d4b8       ??_C@_0P@MIGLKIOC@CorExitProcess@ 00000001800b74b8     libucrtd:exit.obj
 0002:0000d518       ??_C@_0DI@KNDIGDEP@minkernel?2crts?2ucrt?2src?2appcrt?2@ 00000001800b7518     libucrtd:argv_parsing.obj
 0002:0000d550       ??_C@_1JO@PGBIJBAM@?$AAm?$AAo?$AAd?$AAe?$AA?5?$AA?$DN?$AA?$DN?$AA?5?$AA_?$AAc?$AAr?$AAt?$AA_?$AAa?$AAr@ 00000001800b7550     libucrtd:argv_parsing.obj
 0002:0000d5f0       ??_C@_1HA@JMLCANEE@?$AAm?$AAi?$AAn?$AAk?$AAe?$AAr?$AAn?$AAe?$AAl?$AA?2?$AAc?$AAr?$AAt?$AAs?$AA?2@ 00000001800b75f0     libucrtd:argv_parsing.obj
 0002:0000d660       ??_C@_1CM@LHOJELIC@?$AAc?$AAo?$AAm?$AAm?$AAo?$AAn?$AA_?$AAc?$AAo?$AAn?$AAf?$AAi?$AAg?$AAu?$AAr@ 00000001800b7660     libucrtd:argv_parsing.obj
 0002:0000d730       ??_C@_0EG@LEHKHOEH@minkernel?2crts?2ucrt?2src?2desktop@ 00000001800b7730     libucrtd:environment_initialization.obj
 0002:0000d780       ??_C@_1IM@IMOFFPLG@?$AAm?$AAi?$AAn?$AAk?$AAe?$AAr?$AAn?$AAe?$AAl?$AA?2?$AAc?$AAr?$AAt?$AAs?$AA?2@ 00000001800b7780     libucrtd:environment_initialization.obj
 0002:0000d810       ??_C@_1CG@MNNNBNAK@?$AAc?$AAr?$AAe?$AAa?$AAt?$AAe?$AA_?$AAe?$AAn?$AAv?$AAi?$AAr?$AAo?$AAn?$AAm@ 00000001800b7810     libucrtd:environment_initialization.obj
 0002:0000d840       ??_C@_1HI@OOPIFFGA@?$AAt?$AAr?$AAa?$AAi?$AAt?$AAs?$AA?3?$AA?3?$AAt?$AAc?$AAs?$AAc?$AAp?$AAy?$AA_@ 00000001800b7840     libucrtd:environment_initialization.obj
 0002:0000d930       ??_C@_0DC@NBHMIIKL@minkernel?2crts?2ucrt?2src?2appcrt?2@ 00000001800b7930     libucrtd:onexit.obj
 0002:0000dac0       ??_C@_04HJMOFLDF@Free@     00000001800b7ac0     libucrtd:debug_heap.obj
 0002:0000dac8       ??_C@_06EFAGIKOH@Normal@   00000001800b7ac8     libucrtd:debug_heap.obj
 0002:0000dad0       ??_C@_03OGPFLFLO@CRT@      00000001800b7ad0     libucrtd:debug_heap.obj
 0002:0000dad4       ??_C@_06KMEJCCGM@Ignore@   00000001800b7ad4     libucrtd:debug_heap.obj
 0002:0000dadc       ??_C@_06PJIGMIJB@Client@   00000001800b7adc     libucrtd:debug_heap.obj
 0002:0000db60       ??_C@_1CE@LJFEPPMP@?$AA_?$AAC?$AAr?$AAt?$AAC?$AAh?$AAe?$AAc?$AAk?$AAM?$AAe?$AAm?$AAo?$AAr?$AAy@ 00000001800b7b60     libucrtd:debug_heap.obj
 0002:0000db90       ??_C@_1GG@OCLHPJPK@?$AAm?$AAi?$AAn?$AAk?$AAe?$AAr?$AAn?$AAe?$AAl?$AA?2?$AAc?$AAr?$AAt?$AAs?$AA?2@ 00000001800b7b90     libucrtd:debug_heap.obj
 0002:0000dbf8       ??_C@_0DF@BBEGIFEK@Client?5hook?5allocation?5failure?5@ 00000001800b7bf8     libucrtd:debug_heap.obj
 0002:0000dc30       ??_C@_0CB@CCLOLAHO@Client?5hook?5allocation?5failure?4@ 00000001800b7c30     libucrtd:debug_heap.obj
 0002:0000dc54       ??_C@_02DKCKIIND@?$CFs@    00000001800b7c54     libucrtd:debug_heap.obj
 0002:0000dc58       ??_C@_0DC@JEMAGEKG@Error?3?5memory?5allocation?3?5bad?5m@ 00000001800b7c58     libucrtd:debug_heap.obj
 0002:0000dc90       ??_C@_0DI@KKJPDPGM@Client?5hook?5re?9allocation?5failu@ 00000001800b7c90     libucrtd:debug_heap.obj
 0002:0000dcc8       ??_C@_0CE@DOFMDOL@Client?5hook?5re?9allocation?5failu@ 00000001800b7cc8     libucrtd:debug_heap.obj
 0002:0000dcf0       ??_C@_0FA@EFEIGJKG@Error?3?5memory?5allocation?3?5bad?5m@ 00000001800b7cf0     libucrtd:debug_heap.obj
 0002:0000dd40       ??_C@_0EM@LGFLMAGJ@The?5Block?5at?50x?$CFp?5was?5allocated@ 00000001800b7d40     libucrtd:debug_heap.obj
 0002:0000dd90       ??_C@_1DM@DEDLGNML@?$AA_?$AAC?$AAr?$AAt?$AAI?$AAs?$AAV?$AAa?$AAl?$AAi?$AAd?$AAH?$AAe?$AAa?$AAp@ 00000001800b7d90     libucrtd:debug_heap.obj
 0002:0000ddd0       ??_C@_1PC@MCGKJLN@?$AAo?$AAl?$AAd?$AA_?$AAh?$AAe?$AAa?$AAd?$AA?9?$AA?$DO?$AA_?$AAl?$AAi?$AAn?$AAe@ 00000001800b7dd0     libucrtd:debug_heap.obj
 0002:0000dec8       ??_C@_0DA@HFBKENN@Error?3?5possible?5heap?5corruption@ 00000001800b7ec8     libucrtd:debug_heap.obj
 0002:0000df00       ??_C@_1JM@MCMEPJEP@?$AAr?$AAe?$AAa?$AAl?$AAl?$AAo?$AAc?$AAa?$AAt?$AAi?$AAo?$AAn?$AA_?$AAi?$AAs@ 00000001800b7f00     libucrtd:debug_heap.obj
 0002:0000dfa0       ??_C@_1DM@LNOPKAIJ@?$AA_?$AA_?$AAa?$AAc?$AAr?$AAt?$AA_?$AAl?$AAa?$AAs?$AAt?$AA_?$AAb?$AAl?$AAo@ 00000001800b7fa0     libucrtd:debug_heap.obj
 0002:0000dfe0       ??_C@_1DO@HABCJBHO@?$AA_?$AA_?$AAa?$AAc?$AAr?$AAt?$AA_?$AAf?$AAi?$AAr?$AAs?$AAt?$AA_?$AAb?$AAl@ 00000001800b7fe0     libucrtd:debug_heap.obj
 0002:0000e020       ??_C@_1CC@CKEAHJPH@?$AAb?$AAl?$AAo?$AAc?$AAk?$AA?5?$AA?$CB?$AA?$DN?$AA?5?$AAn?$AAu?$AAl?$AAl?$AAp?$AAt@ 00000001800b8020     libucrtd:debug_heap.obj
 0002:0000e048       ??_C@_1BI@HAPNGHDP@?$AA_?$AAe?$AAx?$AAp?$AAa?$AAn?$AAd?$AA_?$AAd?$AAb?$AAg@ 00000001800b8048     libucrtd:debug_heap.obj
 0002:0000e060       ??_C@_0EJ@HEIBCIMJ@The?5Block?5at?50x?$CFp?5was?5allocated@ 00000001800b8060     libucrtd:debug_heap.obj
 0002:0000e0b0       ??_C@_0BL@KEIPLFAC@Client?5hook?5free?5failure?4?6@ 00000001800b80b0     libucrtd:debug_heap.obj
 0002:0000e0d0       ??_C@_1FA@KDNEBILF@?$AAi?$AAs?$AA_?$AAb?$AAl?$AAo?$AAc?$AAk?$AA_?$AAt?$AAy?$AAp?$AAe?$AA_?$AAv@ 00000001800b80d0     libucrtd:debug_heap.obj
 0002:0000e120       ??_C@_0KI@JGFOHMEB@HEAP?5CORRUPTION?5DETECTED?3?5befor@ 00000001800b8120     libucrtd:debug_heap.obj
 0002:0000e1d0       ??_C@_0IK@PJCGLBOB@HEAP?5CORRUPTION?5DETECTED?3?5befor@ 00000001800b81d0     libucrtd:debug_heap.obj
 0002:0000e260       ??_C@_0KE@MBMNHHHN@HEAP?5CORRUPTION?5DETECTED?3?5after@ 00000001800b8260     libucrtd:debug_heap.obj
 0002:0000e310       ??_C@_0IG@LEMBDCJK@HEAP?5CORRUPTION?5DETECTED?3?5after@ 00000001800b8310     libucrtd:debug_heap.obj
 0002:0000e3a0       ??_C@_1OK@GFEOEJAF@?$AAh?$AAe?$AAa?$AAd?$AAe?$AAr?$AA?9?$AA?$DO?$AA_?$AAl?$AAi?$AAn?$AAe?$AA_?$AAn@ 00000001800b83a0     libucrtd:debug_heap.obj
 0002:0000e490       ??_C@_1ME@GFALMLNA@?$AAh?$AAe?$AAa?$AAd?$AAe?$AAr?$AA?9?$AA?$DO?$AA_?$AAb?$AAl?$AAo?$AAc?$AAk?$AA_@ 00000001800b8490     libucrtd:debug_heap.obj
 0002:0000e558       ??_C@_1DI@ILNOPEPI@?$AA_?$AA_?$AAa?$AAc?$AAr?$AAt?$AA_?$AAl?$AAa?$AAs?$AAt?$AA_?$AAb?$AAl?$AAo@ 00000001800b8558     libucrtd:debug_heap.obj
 0002:0000e590       ??_C@_1DK@KEHFGDIJ@?$AA_?$AA_?$AAa?$AAc?$AAr?$AAt?$AA_?$AAf?$AAi?$AAr?$AAs?$AAt?$AA_?$AAb?$AAl@ 00000001800b8590     libucrtd:debug_heap.obj
 0002:0000e5d0       ??_C@_1BG@MBKOGDLD@?$AA_?$AAm?$AAs?$AAi?$AAz?$AAe?$AA_?$AAd?$AAb?$AAg@ 00000001800b85d0     libucrtd:debug_heap.obj
 0002:0000e5e8       ??_C@_07OHKEFPKJ@DAMAGED@  00000001800b85e8     libucrtd:debug_heap.obj
 0002:0000e5f0       ??_C@_0KA@IHNJJKPL@HEAP?5CORRUPTION?5DETECTED?3?5on?5to@ 00000001800b85f0     libucrtd:debug_heap.obj
 0002:0000e690       ??_C@_0IC@BBJIOOJH@HEAP?5CORRUPTION?5DETECTED?3?5on?5to@ 00000001800b8690     libucrtd:debug_heap.obj
 0002:0000e720       ??_C@_0EG@DGJMPDBH@?$CFhs?5located?5at?50x?$CFp?5is?5?$CFIu?5byte@ 00000001800b8720     libucrtd:debug_heap.obj
 0002:0000e768       ??_C@_0CI@JMLBEDHJ@?$CFhs?5located?5at?50x?$CFp?5is?5?$CFIu?5byte@ 00000001800b8768     libucrtd:debug_heap.obj
 0002:0000e790       ??_C@_0EG@GPFHANHO@Cycle?5in?5block?5list?5detected?5wh@ 00000001800b8790     libucrtd:debug_heap.obj
 0002:0000e7d8       ??_C@_0BJ@ELMAOCAJ@Heap?5validation?5failed?4?6@ 00000001800b87d8     libucrtd:debug_heap.obj
 0002:0000e800       ??_C@_1IE@BBIFDGEB@?$AAn?$AAe?$AAw?$AA_?$AAb?$AAi?$AAt?$AAs?$AA?5?$AA?$DN?$AA?$DN?$AA?5?$AA_?$AAC?$AAR@ 00000001800b8800     libucrtd:debug_heap.obj
 0002:0000e888       ??_C@_1BO@GJFDNMNF@?$AA_?$AAC?$AAr?$AAt?$AAS?$AAe?$AAt?$AAD?$AAb?$AAg?$AAF?$AAl?$AAa?$AAg@ 00000001800b8888     libucrtd:debug_heap.obj
 0002:0000e8a8       ??_C@_1CI@CEIBPAIA@?$AAc?$AAa?$AAl?$AAl?$AAb?$AAa?$AAc?$AAk?$AA?5?$AA?$CB?$AA?$DN?$AA?5?$AAn?$AAu?$AAl@ 00000001800b88a8     libucrtd:debug_heap.obj
 0002:0000e8d0       ??_C@_1DE@GJCKCKEC@?$AA_?$AAC?$AAr?$AAt?$AAD?$AAo?$AAF?$AAo?$AAr?$AAA?$AAl?$AAl?$AAC?$AAl?$AAi@ 00000001800b88d0     libucrtd:debug_heap.obj
 0002:0000e908       ??_C@_1CC@BBKMONGA@?$AAs?$AAt?$AAa?$AAt?$AAe?$AA?5?$AA?$CB?$AA?$DN?$AA?5?$AAn?$AAu?$AAl?$AAl?$AAp?$AAt@ 00000001800b8908     libucrtd:debug_heap.obj
 0002:0000e930       ??_C@_1CE@NJJKELF@?$AA_?$AAC?$AAr?$AAt?$AAM?$AAe?$AAm?$AAC?$AAh?$AAe?$AAc?$AAk?$AAp?$AAo?$AAi@ 00000001800b8930     libucrtd:debug_heap.obj
 0002:0000e958       ??_C@_0DP@LEFMFBOD@Bad?5memory?5block?5found?5at?50x?$CFp?4@ 00000001800b8958     libucrtd:debug_heap.obj
 0002:0000e998       ??_C@_0CB@EAAIGELO@Bad?5memory?5block?5found?5at?50x?$CFp?4@ 00000001800b8998     libucrtd:debug_heap.obj
 0002:0000e9c0       ??_C@_1CE@PDIENACM@?$AA_?$AAC?$AAr?$AAt?$AAM?$AAe?$AAm?$AAD?$AAi?$AAf?$AAf?$AAe?$AAr?$AAe?$AAn@ 00000001800b89c0     libucrtd:debug_heap.obj
 0002:0000e9e8       ??_C@_1CK@FFKLBHMD@?$AAo?$AAl?$AAd?$AA_?$AAs?$AAt?$AAa?$AAt?$AAe?$AA?5?$AA?$CB?$AA?$DN?$AA?5?$AAn?$AAu@ 00000001800b89e8     libucrtd:debug_heap.obj
 0002:0000ea18       ??_C@_1CK@NJPPHDJP@?$AAn?$AAe?$AAw?$AA_?$AAs?$AAt?$AAa?$AAt?$AAe?$AA?5?$AA?$CB?$AA?$DN?$AA?5?$AAn?$AAu@ 00000001800b8a18     libucrtd:debug_heap.obj
 0002:0000ea44       ??_C@_05MKKEDADM@?$CF?42X?5@ 00000001800b8a44     libucrtd:debug_heap.obj
 0002:0000ea50       ??_C@_1CC@DIJAHFFJ@?$AAp?$AAr?$AAi?$AAn?$AAt?$AA_?$AAb?$AAl?$AAo?$AAc?$AAk?$AA_?$AAd?$AAa?$AAt@ 00000001800b8a50     libucrtd:debug_heap.obj
 0002:0000ea78       ??_C@_1BI@KALLJECN@?$AA?$CI?$AA?$CK?$AA_?$AAe?$AAr?$AAr?$AAn?$AAo?$AA?$CI?$AA?$CJ?$AA?$CJ@ 00000001800b8a78     libucrtd:debug_heap.obj
 0002:0000ea90       ??_C@_0BA@HJBKCELP@?5Data?3?5?$DM?$CFs?$DO?5?$CFs?6@ 00000001800b8a90     libucrtd:debug_heap.obj
 0002:0000eaa0       ??_C@_0BE@KCIPKCIA@Dumping?5objects?5?9?$DO?6@ 00000001800b8aa0     libucrtd:debug_heap.obj
